ARM GAS  /tmp/ccVzdWer.s 			page 1


   1              		.cpu cortex-m3
   2              		.eabi_attribute 20, 1
   3              		.eabi_attribute 21, 1
   4              		.eabi_attribute 23, 3
   5              		.eabi_attribute 24, 1
   6              		.eabi_attribute 25, 1
   7              		.eabi_attribute 26, 1
   8              		.eabi_attribute 30, 1
   9              		.eabi_attribute 34, 1
  10              		.eabi_attribute 18, 4
  11              		.file	"BLDC_controller.c"
  12              		.text
  13              	.Ltext0:
  14              		.cfi_sections	.debug_frame
  15              		.section	.text.plook_u8s16_evencka,"ax",%progbits
  16              		.align	1
  17              		.global	plook_u8s16_evencka
  18              		.arch armv7-m
  19              		.syntax unified
  20              		.thumb
  21              		.thumb_func
  22              		.fpu softvfp
  24              	plook_u8s16_evencka:
  25              	.LVL0:
  26              	.LFB0:
  27              		.file 1 "Src/BLDC_controller.c"
   1:Src/BLDC_controller.c **** /*
   2:Src/BLDC_controller.c ****  * File: BLDC_controller.c
   3:Src/BLDC_controller.c ****  *
   4:Src/BLDC_controller.c ****  * Code generated for Simulink model 'BLDC_controller'.
   5:Src/BLDC_controller.c ****  *
   6:Src/BLDC_controller.c ****  * Model version                  : 1.1296
   7:Src/BLDC_controller.c ****  * Simulink Coder version         : 8.13 (R2017b) 24-Jul-2017
   8:Src/BLDC_controller.c ****  * C/C++ source code generated on : Tue Oct 20 17:29:57 2020
   9:Src/BLDC_controller.c ****  *
  10:Src/BLDC_controller.c ****  * Target selection: ert.tlc
  11:Src/BLDC_controller.c ****  * Embedded hardware selection: ARM Compatible->ARM Cortex
  12:Src/BLDC_controller.c ****  * Emulation hardware selection:
  13:Src/BLDC_controller.c ****  *    Differs from embedded hardware (MATLAB Host)
  14:Src/BLDC_controller.c ****  * Code generation objectives:
  15:Src/BLDC_controller.c ****  *    1. Execution efficiency
  16:Src/BLDC_controller.c ****  *    2. RAM efficiency
  17:Src/BLDC_controller.c ****  * Validation result: Not run
  18:Src/BLDC_controller.c ****  */
  19:Src/BLDC_controller.c **** 
  20:Src/BLDC_controller.c **** #include "BLDC_controller.h"
  21:Src/BLDC_controller.c **** 
  22:Src/BLDC_controller.c **** /* Named constants for Chart: '<S5>/F03_02_Control_Mode_Manager' */
  23:Src/BLDC_controller.c **** #define IN_ACTIVE                      ((uint8_T)1U)
  24:Src/BLDC_controller.c **** #define IN_NO_ACTIVE_CHILD             ((uint8_T)0U)
  25:Src/BLDC_controller.c **** #define IN_OPEN                        ((uint8_T)2U)
  26:Src/BLDC_controller.c **** #define IN_SPEED_MODE                  ((uint8_T)1U)
  27:Src/BLDC_controller.c **** #define IN_TORQUE_MODE                 ((uint8_T)2U)
  28:Src/BLDC_controller.c **** #define IN_VOLTAGE_MODE                ((uint8_T)3U)
  29:Src/BLDC_controller.c **** #define OPEN_MODE                      ((uint8_T)0U)
  30:Src/BLDC_controller.c **** #define SPD_MODE                       ((uint8_T)2U)
  31:Src/BLDC_controller.c **** #define TRQ_MODE                       ((uint8_T)3U)
ARM GAS  /tmp/ccVzdWer.s 			page 2


  32:Src/BLDC_controller.c **** #define VLT_MODE                       ((uint8_T)1U)
  33:Src/BLDC_controller.c **** #ifndef UCHAR_MAX
  34:Src/BLDC_controller.c **** #include <limits.h>
  35:Src/BLDC_controller.c **** #endif
  36:Src/BLDC_controller.c **** 
  37:Src/BLDC_controller.c **** #if ( UCHAR_MAX != (0xFFU) ) || ( SCHAR_MAX != (0x7F) )
  38:Src/BLDC_controller.c **** #error Code was generated for compiler with different sized uchar/char. \
  39:Src/BLDC_controller.c **** Consider adjusting Test hardware word size settings on the \
  40:Src/BLDC_controller.c **** Hardware Implementation pane to match your compiler word sizes as \
  41:Src/BLDC_controller.c **** defined in limits.h of the compiler. Alternatively, you can \
  42:Src/BLDC_controller.c **** select the Test hardware is the same as production hardware option and \
  43:Src/BLDC_controller.c **** select the Enable portable word sizes option on the Code Generation > \
  44:Src/BLDC_controller.c **** Verification pane for ERT based targets, which will disable the \
  45:Src/BLDC_controller.c **** preprocessor word size checks.
  46:Src/BLDC_controller.c **** #endif
  47:Src/BLDC_controller.c **** 
  48:Src/BLDC_controller.c **** #if ( USHRT_MAX != (0xFFFFU) ) || ( SHRT_MAX != (0x7FFF) )
  49:Src/BLDC_controller.c **** #error Code was generated for compiler with different sized ushort/short. \
  50:Src/BLDC_controller.c **** Consider adjusting Test hardware word size settings on the \
  51:Src/BLDC_controller.c **** Hardware Implementation pane to match your compiler word sizes as \
  52:Src/BLDC_controller.c **** defined in limits.h of the compiler. Alternatively, you can \
  53:Src/BLDC_controller.c **** select the Test hardware is the same as production hardware option and \
  54:Src/BLDC_controller.c **** select the Enable portable word sizes option on the Code Generation > \
  55:Src/BLDC_controller.c **** Verification pane for ERT based targets, which will disable the \
  56:Src/BLDC_controller.c **** preprocessor word size checks.
  57:Src/BLDC_controller.c **** #endif
  58:Src/BLDC_controller.c **** 
  59:Src/BLDC_controller.c **** #if ( UINT_MAX != (0xFFFFFFFFU) ) || ( INT_MAX != (0x7FFFFFFF) )
  60:Src/BLDC_controller.c **** #error Code was generated for compiler with different sized uint/int. \
  61:Src/BLDC_controller.c **** Consider adjusting Test hardware word size settings on the \
  62:Src/BLDC_controller.c **** Hardware Implementation pane to match your compiler word sizes as \
  63:Src/BLDC_controller.c **** defined in limits.h of the compiler. Alternatively, you can \
  64:Src/BLDC_controller.c **** select the Test hardware is the same as production hardware option and \
  65:Src/BLDC_controller.c **** select the Enable portable word sizes option on the Code Generation > \
  66:Src/BLDC_controller.c **** Verification pane for ERT based targets, which will disable the \
  67:Src/BLDC_controller.c **** preprocessor word size checks.
  68:Src/BLDC_controller.c **** #endif
  69:Src/BLDC_controller.c **** 
  70:Src/BLDC_controller.c **** #if ( ULONG_MAX != (0xFFFFFFFFU) ) || ( LONG_MAX != (0x7FFFFFFF) )
  71:Src/BLDC_controller.c **** #error Code was generated for compiler with different sized ulong/long. \
  72:Src/BLDC_controller.c **** Consider adjusting Test hardware word size settings on the \
  73:Src/BLDC_controller.c **** Hardware Implementation pane to match your compiler word sizes as \
  74:Src/BLDC_controller.c **** defined in limits.h of the compiler. Alternatively, you can \
  75:Src/BLDC_controller.c **** select the Test hardware is the same as production hardware option and \
  76:Src/BLDC_controller.c **** select the Enable portable word sizes option on the Code Generation > \
  77:Src/BLDC_controller.c **** Verification pane for ERT based targets, which will disable the \
  78:Src/BLDC_controller.c **** preprocessor word size checks.
  79:Src/BLDC_controller.c **** #endif
  80:Src/BLDC_controller.c **** 
  81:Src/BLDC_controller.c **** #if 0
  82:Src/BLDC_controller.c **** 
  83:Src/BLDC_controller.c **** /* Skip this size verification because of preprocessor limitation */
  84:Src/BLDC_controller.c **** #if ( ULLONG_MAX != (0xFFFFFFFFFFFFFFFFULL) ) || ( LLONG_MAX != (0x7FFFFFFFFFFFFFFFLL) )
  85:Src/BLDC_controller.c **** #error Code was generated for compiler with different sized ulong_long/long_long. \
  86:Src/BLDC_controller.c **** Consider adjusting Test hardware word size settings on the \
  87:Src/BLDC_controller.c **** Hardware Implementation pane to match your compiler word sizes as \
  88:Src/BLDC_controller.c **** defined in limits.h of the compiler. Alternatively, you can \
ARM GAS  /tmp/ccVzdWer.s 			page 3


  89:Src/BLDC_controller.c **** select the Test hardware is the same as production hardware option and \
  90:Src/BLDC_controller.c **** select the Enable portable word sizes option on the Code Generation > \
  91:Src/BLDC_controller.c **** Verification pane for ERT based targets, which will disable the \
  92:Src/BLDC_controller.c **** preprocessor word size checks.
  93:Src/BLDC_controller.c **** #endif
  94:Src/BLDC_controller.c **** #endif
  95:Src/BLDC_controller.c **** 
  96:Src/BLDC_controller.c **** uint8_T plook_u8s16_evencka(int16_T u, int16_T bp0, uint16_T bpSpace, uint32_T
  97:Src/BLDC_controller.c ****   maxIndex);
  98:Src/BLDC_controller.c **** uint8_T plook_u8u16_evencka(uint16_T u, uint16_T bp0, uint16_T bpSpace, uint32_T
  99:Src/BLDC_controller.c ****   maxIndex);
 100:Src/BLDC_controller.c **** int32_T div_nde_s32_floor(int32_T numerator, int32_T denominator);
 101:Src/BLDC_controller.c **** extern void Counter_Init(DW_Counter *localDW, int16_T rtp_z_cntInit);
 102:Src/BLDC_controller.c **** extern int16_T Counter(int16_T rtu_inc, int16_T rtu_max, boolean_T rtu_rst,
 103:Src/BLDC_controller.c ****   DW_Counter *localDW);
 104:Src/BLDC_controller.c **** extern void Low_Pass_Filter_Reset(DW_Low_Pass_Filter *localDW);
 105:Src/BLDC_controller.c **** extern void Low_Pass_Filter(const int16_T rtu_u[2], uint16_T rtu_coef, int16_T
 106:Src/BLDC_controller.c ****   rty_y[2], DW_Low_Pass_Filter *localDW);
 107:Src/BLDC_controller.c **** extern void Counter_b_Init(DW_Counter_b *localDW, uint16_T rtp_z_cntInit);
 108:Src/BLDC_controller.c **** extern void Counter_n(uint16_T rtu_inc, uint16_T rtu_max, boolean_T rtu_rst,
 109:Src/BLDC_controller.c ****                       uint16_T *rty_cnt, DW_Counter_b *localDW);
 110:Src/BLDC_controller.c **** extern void either_edge(boolean_T rtu_u, boolean_T *rty_y, DW_either_edge
 111:Src/BLDC_controller.c ****   *localDW);
 112:Src/BLDC_controller.c **** extern void Debounce_Filter_Init(DW_Debounce_Filter *localDW);
 113:Src/BLDC_controller.c **** extern void Debounce_Filter(boolean_T rtu_u, uint16_T rtu_tAcv, uint16_T
 114:Src/BLDC_controller.c ****   rtu_tDeacv, boolean_T *rty_y, DW_Debounce_Filter *localDW);
 115:Src/BLDC_controller.c **** extern void I_backCalc_fixdt_Init(DW_I_backCalc_fixdt *localDW, int32_T
 116:Src/BLDC_controller.c ****   rtp_yInit);
 117:Src/BLDC_controller.c **** extern void I_backCalc_fixdt_Reset(DW_I_backCalc_fixdt *localDW, int32_T
 118:Src/BLDC_controller.c ****   rtp_yInit);
 119:Src/BLDC_controller.c **** extern void I_backCalc_fixdt(int16_T rtu_err, uint16_T rtu_I, uint16_T rtu_Kb,
 120:Src/BLDC_controller.c ****   int16_T rtu_satMax, int16_T rtu_satMin, int16_T *rty_out, DW_I_backCalc_fixdt *
 121:Src/BLDC_controller.c ****   localDW);
 122:Src/BLDC_controller.c **** extern void PI_clamp_fixdt_Init(DW_PI_clamp_fixdt *localDW);
 123:Src/BLDC_controller.c **** extern void PI_clamp_fixdt_Reset(DW_PI_clamp_fixdt *localDW);
 124:Src/BLDC_controller.c **** extern void PI_clamp_fixdt(int16_T rtu_err, uint16_T rtu_P, uint16_T rtu_I,
 125:Src/BLDC_controller.c ****   int32_T rtu_init, int16_T rtu_satMax, int16_T rtu_satMin, int32_T
 126:Src/BLDC_controller.c ****   rtu_ext_limProt, int16_T *rty_out, DW_PI_clamp_fixdt *localDW);
 127:Src/BLDC_controller.c **** extern void PI_clamp_fixdt_d_Init(DW_PI_clamp_fixdt_m *localDW);
 128:Src/BLDC_controller.c **** extern void PI_clamp_fixdt_b_Reset(DW_PI_clamp_fixdt_m *localDW);
 129:Src/BLDC_controller.c **** extern void PI_clamp_fixdt_l(int16_T rtu_err, uint16_T rtu_P, uint16_T rtu_I,
 130:Src/BLDC_controller.c ****   int16_T rtu_init, int16_T rtu_satMax, int16_T rtu_satMin, int32_T
 131:Src/BLDC_controller.c ****   rtu_ext_limProt, int16_T *rty_out, DW_PI_clamp_fixdt_m *localDW);
 132:Src/BLDC_controller.c **** extern void PI_clamp_fixdt_f_Init(DW_PI_clamp_fixdt_g *localDW);
 133:Src/BLDC_controller.c **** extern void PI_clamp_fixdt_g_Reset(DW_PI_clamp_fixdt_g *localDW);
 134:Src/BLDC_controller.c **** extern void PI_clamp_fixdt_k(int16_T rtu_err, uint16_T rtu_P, uint16_T rtu_I,
 135:Src/BLDC_controller.c ****   int16_T rtu_init, int16_T rtu_satMax, int16_T rtu_satMin, int32_T
 136:Src/BLDC_controller.c ****   rtu_ext_limProt, int16_T *rty_out, DW_PI_clamp_fixdt_g *localDW);
 137:Src/BLDC_controller.c **** uint8_T plook_u8s16_evencka(int16_T u, int16_T bp0, uint16_T bpSpace, uint32_T
 138:Src/BLDC_controller.c ****   maxIndex)
 139:Src/BLDC_controller.c **** {
  28              		.loc 1 139 1 view -0
  29              		.cfi_startproc
  30              		@ args = 0, pretend = 0, frame = 0
  31              		@ frame_needed = 0, uses_anonymous_args = 0
  32              		@ link register save eliminated.
 140:Src/BLDC_controller.c ****   uint8_T bpIndex;
ARM GAS  /tmp/ccVzdWer.s 			page 4


  33              		.loc 1 140 3 view .LVU1
 141:Src/BLDC_controller.c ****   uint16_T fbpIndex;
  34              		.loc 1 141 3 view .LVU2
 142:Src/BLDC_controller.c **** 
 143:Src/BLDC_controller.c ****   /* Prelookup - Index only
 144:Src/BLDC_controller.c ****      Index Search method: 'even'
 145:Src/BLDC_controller.c ****      Extrapolation method: 'Clip'
 146:Src/BLDC_controller.c ****      Use previous index: 'off'
 147:Src/BLDC_controller.c ****      Use last breakpoint for index at or above upper limit: 'on'
 148:Src/BLDC_controller.c ****      Remove protection against out-of-range input in generated code: 'off'
 149:Src/BLDC_controller.c ****    */
 150:Src/BLDC_controller.c ****   if (u <= bp0) {
  35              		.loc 1 150 3 view .LVU3
  36              		.loc 1 150 6 is_stmt 0 view .LVU4
  37 0000 8842     		cmp	r0, r1
  38 0002 09DD     		ble	.L4
 151:Src/BLDC_controller.c ****     bpIndex = 0U;
 152:Src/BLDC_controller.c ****   } else {
 153:Src/BLDC_controller.c ****     fbpIndex = (uint16_T)((uint32_T)(uint16_T)(u - bp0) / bpSpace);
  39              		.loc 1 153 5 is_stmt 1 view .LVU5
  40              		.loc 1 153 37 is_stmt 0 view .LVU6
  41 0004 401A     		subs	r0, r0, r1
  42              	.LVL1:
  43              		.loc 1 153 37 view .LVU7
  44 0006 80B2     		uxth	r0, r0
  45              		.loc 1 153 14 view .LVU8
  46 0008 B0FBF2F2 		udiv	r2, r0, r2
  47              	.LVL2:
 154:Src/BLDC_controller.c ****     if (fbpIndex < maxIndex) {
  48              		.loc 1 154 5 is_stmt 1 view .LVU9
  49              		.loc 1 154 8 is_stmt 0 view .LVU10
  50 000c 9A42     		cmp	r2, r3
  51 000e 01D2     		bcs	.L3
 155:Src/BLDC_controller.c ****       bpIndex = (uint8_T)fbpIndex;
  52              		.loc 1 155 7 is_stmt 1 view .LVU11
  53              		.loc 1 155 15 is_stmt 0 view .LVU12
  54 0010 D0B2     		uxtb	r0, r2
  55              	.LVL3:
  56              		.loc 1 155 15 view .LVU13
  57 0012 7047     		bx	lr
  58              	.LVL4:
  59              	.L3:
 156:Src/BLDC_controller.c ****     } else {
 157:Src/BLDC_controller.c ****       bpIndex = (uint8_T)maxIndex;
  60              		.loc 1 157 7 is_stmt 1 view .LVU14
  61              		.loc 1 157 15 is_stmt 0 view .LVU15
  62 0014 D8B2     		uxtb	r0, r3
  63              	.LVL5:
  64              		.loc 1 157 15 view .LVU16
  65 0016 7047     		bx	lr
  66              	.LVL6:
  67              	.L4:
 151:Src/BLDC_controller.c ****   } else {
  68              		.loc 1 151 13 view .LVU17
  69 0018 0020     		movs	r0, #0
  70              	.LVL7:
 158:Src/BLDC_controller.c ****     }
ARM GAS  /tmp/ccVzdWer.s 			page 5


 159:Src/BLDC_controller.c ****   }
 160:Src/BLDC_controller.c **** 
 161:Src/BLDC_controller.c ****   return bpIndex;
  71              		.loc 1 161 3 is_stmt 1 view .LVU18
 162:Src/BLDC_controller.c **** }
  72              		.loc 1 162 1 is_stmt 0 view .LVU19
  73 001a 7047     		bx	lr
  74              		.cfi_endproc
  75              	.LFE0:
  77              		.section	.text.plook_u8u16_evencka,"ax",%progbits
  78              		.align	1
  79              		.global	plook_u8u16_evencka
  80              		.syntax unified
  81              		.thumb
  82              		.thumb_func
  83              		.fpu softvfp
  85              	plook_u8u16_evencka:
  86              	.LVL8:
  87              	.LFB1:
 163:Src/BLDC_controller.c **** 
 164:Src/BLDC_controller.c **** uint8_T plook_u8u16_evencka(uint16_T u, uint16_T bp0, uint16_T bpSpace, uint32_T
 165:Src/BLDC_controller.c ****   maxIndex)
 166:Src/BLDC_controller.c **** {
  88              		.loc 1 166 1 is_stmt 1 view -0
  89              		.cfi_startproc
  90              		@ args = 0, pretend = 0, frame = 0
  91              		@ frame_needed = 0, uses_anonymous_args = 0
  92              		@ link register save eliminated.
 167:Src/BLDC_controller.c ****   uint8_T bpIndex;
  93              		.loc 1 167 3 view .LVU21
 168:Src/BLDC_controller.c ****   uint16_T fbpIndex;
  94              		.loc 1 168 3 view .LVU22
 169:Src/BLDC_controller.c **** 
 170:Src/BLDC_controller.c ****   /* Prelookup - Index only
 171:Src/BLDC_controller.c ****      Index Search method: 'even'
 172:Src/BLDC_controller.c ****      Extrapolation method: 'Clip'
 173:Src/BLDC_controller.c ****      Use previous index: 'off'
 174:Src/BLDC_controller.c ****      Use last breakpoint for index at or above upper limit: 'on'
 175:Src/BLDC_controller.c ****      Remove protection against out-of-range input in generated code: 'off'
 176:Src/BLDC_controller.c ****    */
 177:Src/BLDC_controller.c ****   if (u <= bp0) {
  95              		.loc 1 177 3 view .LVU23
  96              		.loc 1 177 6 is_stmt 0 view .LVU24
  97 0000 8842     		cmp	r0, r1
  98 0002 09D9     		bls	.L8
 178:Src/BLDC_controller.c ****     bpIndex = 0U;
 179:Src/BLDC_controller.c ****   } else {
 180:Src/BLDC_controller.c ****     fbpIndex = (uint16_T)((uint32_T)(uint16_T)((uint32_T)u - bp0) / bpSpace);
  99              		.loc 1 180 5 is_stmt 1 view .LVU25
 100              		.loc 1 180 37 is_stmt 0 view .LVU26
 101 0004 401A     		subs	r0, r0, r1
 102              	.LVL9:
 103              		.loc 1 180 37 view .LVU27
 104 0006 80B2     		uxth	r0, r0
 105              		.loc 1 180 14 view .LVU28
 106 0008 B0FBF2F2 		udiv	r2, r0, r2
 107              	.LVL10:
ARM GAS  /tmp/ccVzdWer.s 			page 6


 181:Src/BLDC_controller.c ****     if (fbpIndex < maxIndex) {
 108              		.loc 1 181 5 is_stmt 1 view .LVU29
 109              		.loc 1 181 8 is_stmt 0 view .LVU30
 110 000c 9A42     		cmp	r2, r3
 111 000e 01D2     		bcs	.L7
 182:Src/BLDC_controller.c ****       bpIndex = (uint8_T)fbpIndex;
 112              		.loc 1 182 7 is_stmt 1 view .LVU31
 113              		.loc 1 182 15 is_stmt 0 view .LVU32
 114 0010 D0B2     		uxtb	r0, r2
 115              	.LVL11:
 116              		.loc 1 182 15 view .LVU33
 117 0012 7047     		bx	lr
 118              	.LVL12:
 119              	.L7:
 183:Src/BLDC_controller.c ****     } else {
 184:Src/BLDC_controller.c ****       bpIndex = (uint8_T)maxIndex;
 120              		.loc 1 184 7 is_stmt 1 view .LVU34
 121              		.loc 1 184 15 is_stmt 0 view .LVU35
 122 0014 D8B2     		uxtb	r0, r3
 123              	.LVL13:
 124              		.loc 1 184 15 view .LVU36
 125 0016 7047     		bx	lr
 126              	.LVL14:
 127              	.L8:
 178:Src/BLDC_controller.c ****   } else {
 128              		.loc 1 178 13 view .LVU37
 129 0018 0020     		movs	r0, #0
 130              	.LVL15:
 185:Src/BLDC_controller.c ****     }
 186:Src/BLDC_controller.c ****   }
 187:Src/BLDC_controller.c **** 
 188:Src/BLDC_controller.c ****   return bpIndex;
 131              		.loc 1 188 3 is_stmt 1 view .LVU38
 189:Src/BLDC_controller.c **** }
 132              		.loc 1 189 1 is_stmt 0 view .LVU39
 133 001a 7047     		bx	lr
 134              		.cfi_endproc
 135              	.LFE1:
 137              		.section	.text.div_nde_s32_floor,"ax",%progbits
 138              		.align	1
 139              		.global	div_nde_s32_floor
 140              		.syntax unified
 141              		.thumb
 142              		.thumb_func
 143              		.fpu softvfp
 145              	div_nde_s32_floor:
 146              	.LVL16:
 147              	.LFB2:
 190:Src/BLDC_controller.c **** 
 191:Src/BLDC_controller.c **** int32_T div_nde_s32_floor(int32_T numerator, int32_T denominator)
 192:Src/BLDC_controller.c **** {
 148              		.loc 1 192 1 is_stmt 1 view -0
 149              		.cfi_startproc
 150              		@ args = 0, pretend = 0, frame = 0
 151              		@ frame_needed = 0, uses_anonymous_args = 0
 152              		@ link register save eliminated.
 193:Src/BLDC_controller.c ****   return (((numerator < 0) != (denominator < 0)) && (numerator % denominator !=
ARM GAS  /tmp/ccVzdWer.s 			page 7


 153              		.loc 1 193 3 view .LVU41
 154              		.loc 1 193 28 is_stmt 0 view .LVU42
 155 0000 CB0F     		lsrs	r3, r1, #31
 194:Src/BLDC_controller.c ****            0) ? -1 : 0) + numerator / denominator;
 156              		.loc 1 194 20 view .LVU43
 157 0002 B3EBD07F 		cmp	r3, r0, lsr #31
 158 0006 07D0     		beq	.L11
 193:Src/BLDC_controller.c ****   return (((numerator < 0) != (denominator < 0)) && (numerator % denominator !=
 159              		.loc 1 193 64 view .LVU44
 160 0008 90FBF1F3 		sdiv	r3, r0, r1
 161 000c 01FB1303 		mls	r3, r1, r3, r0
 193:Src/BLDC_controller.c ****   return (((numerator < 0) != (denominator < 0)) && (numerator % denominator !=
 162              		.loc 1 193 50 view .LVU45
 163 0010 1BB1     		cbz	r3, .L10
 164              		.loc 1 194 20 view .LVU46
 165 0012 4FF0FF33 		mov	r3, #-1
 166 0016 00E0     		b	.L10
 167              	.L11:
 168 0018 0023     		movs	r3, #0
 169              	.L10:
 170              		.loc 1 194 37 discriminator 3 view .LVU47
 171 001a 90FBF1F0 		sdiv	r0, r0, r1
 172              	.LVL17:
 195:Src/BLDC_controller.c **** }
 173              		.loc 1 195 1 discriminator 3 view .LVU48
 174 001e 1844     		add	r0, r0, r3
 175 0020 7047     		bx	lr
 176              		.cfi_endproc
 177              	.LFE2:
 179              		.section	.text.Counter_Init,"ax",%progbits
 180              		.align	1
 181              		.global	Counter_Init
 182              		.syntax unified
 183              		.thumb
 184              		.thumb_func
 185              		.fpu softvfp
 187              	Counter_Init:
 188              	.LVL18:
 189              	.LFB3:
 196:Src/BLDC_controller.c **** 
 197:Src/BLDC_controller.c **** /* System initialize for atomic system: '<S13>/Counter' */
 198:Src/BLDC_controller.c **** void Counter_Init(DW_Counter *localDW, int16_T rtp_z_cntInit)
 199:Src/BLDC_controller.c **** {
 190              		.loc 1 199 1 is_stmt 1 view -0
 191              		.cfi_startproc
 192              		@ args = 0, pretend = 0, frame = 0
 193              		@ frame_needed = 0, uses_anonymous_args = 0
 194              		@ link register save eliminated.
 200:Src/BLDC_controller.c ****   /* InitializeConditions for UnitDelay: '<S18>/UnitDelay' */
 201:Src/BLDC_controller.c ****   localDW->UnitDelay_DSTATE = rtp_z_cntInit;
 195              		.loc 1 201 3 view .LVU50
 196              		.loc 1 201 29 is_stmt 0 view .LVU51
 197 0000 0180     		strh	r1, [r0]	@ movhi
 202:Src/BLDC_controller.c **** }
 198              		.loc 1 202 1 view .LVU52
 199 0002 7047     		bx	lr
 200              		.cfi_endproc
ARM GAS  /tmp/ccVzdWer.s 			page 8


 201              	.LFE3:
 203              		.section	.text.Counter,"ax",%progbits
 204              		.align	1
 205              		.global	Counter
 206              		.syntax unified
 207              		.thumb
 208              		.thumb_func
 209              		.fpu softvfp
 211              	Counter:
 212              	.LVL19:
 213              	.LFB4:
 203:Src/BLDC_controller.c **** 
 204:Src/BLDC_controller.c **** /* Output and update for atomic system: '<S13>/Counter' */
 205:Src/BLDC_controller.c **** int16_T Counter(int16_T rtu_inc, int16_T rtu_max, boolean_T rtu_rst, DW_Counter *
 206:Src/BLDC_controller.c ****                 localDW)
 207:Src/BLDC_controller.c **** {
 214              		.loc 1 207 1 is_stmt 1 view -0
 215              		.cfi_startproc
 216              		@ args = 0, pretend = 0, frame = 0
 217              		@ frame_needed = 0, uses_anonymous_args = 0
 218              		@ link register save eliminated.
 208:Src/BLDC_controller.c ****   int16_T rtu_rst_0;
 219              		.loc 1 208 3 view .LVU54
 209:Src/BLDC_controller.c ****   int16_T rty_cnt_0;
 220              		.loc 1 209 3 view .LVU55
 210:Src/BLDC_controller.c **** 
 211:Src/BLDC_controller.c ****   /* Switch: '<S18>/Switch1' incorporates:
 212:Src/BLDC_controller.c ****    *  Constant: '<S18>/Constant23'
 213:Src/BLDC_controller.c ****    *  UnitDelay: '<S18>/UnitDelay'
 214:Src/BLDC_controller.c ****    */
 215:Src/BLDC_controller.c ****   if (rtu_rst) {
 221              		.loc 1 215 3 view .LVU56
 222              		.loc 1 215 6 is_stmt 0 view .LVU57
 223 0000 3AB9     		cbnz	r2, .L18
 216:Src/BLDC_controller.c ****     rtu_rst_0 = 0;
 217:Src/BLDC_controller.c ****   } else {
 218:Src/BLDC_controller.c ****     rtu_rst_0 = localDW->UnitDelay_DSTATE;
 224              		.loc 1 218 5 is_stmt 1 view .LVU58
 225              		.loc 1 218 15 is_stmt 0 view .LVU59
 226 0002 B3F90020 		ldrsh	r2, [r3]
 227              	.LVL20:
 228              	.L15:
 219:Src/BLDC_controller.c ****   }
 220:Src/BLDC_controller.c **** 
 221:Src/BLDC_controller.c ****   /* End of Switch: '<S18>/Switch1' */
 222:Src/BLDC_controller.c **** 
 223:Src/BLDC_controller.c ****   /* Sum: '<S16>/Sum1' */
 224:Src/BLDC_controller.c ****   rty_cnt_0 = (int16_T)(rtu_inc + rtu_rst_0);
 229              		.loc 1 224 3 is_stmt 1 view .LVU60
 230              		.loc 1 224 33 is_stmt 0 view .LVU61
 231 0006 1044     		add	r0, r0, r2
 232              	.LVL21:
 233              		.loc 1 224 13 view .LVU62
 234 0008 00B2     		sxth	r0, r0
 235              	.LVL22:
 225:Src/BLDC_controller.c **** 
 226:Src/BLDC_controller.c ****   /* MinMax: '<S16>/MinMax' */
ARM GAS  /tmp/ccVzdWer.s 			page 9


 227:Src/BLDC_controller.c ****   if (rty_cnt_0 < rtu_max) {
 236              		.loc 1 227 3 is_stmt 1 view .LVU63
 237              		.loc 1 227 6 is_stmt 0 view .LVU64
 238 000a 8842     		cmp	r0, r1
 239 000c 03DA     		bge	.L16
 228:Src/BLDC_controller.c ****     /* Update for UnitDelay: '<S18>/UnitDelay' */
 229:Src/BLDC_controller.c ****     localDW->UnitDelay_DSTATE = rty_cnt_0;
 240              		.loc 1 229 5 is_stmt 1 view .LVU65
 241              		.loc 1 229 31 is_stmt 0 view .LVU66
 242 000e 1880     		strh	r0, [r3]	@ movhi
 243 0010 7047     		bx	lr
 244              	.LVL23:
 245              	.L18:
 216:Src/BLDC_controller.c ****   } else {
 246              		.loc 1 216 15 view .LVU67
 247 0012 0022     		movs	r2, #0
 248              	.LVL24:
 216:Src/BLDC_controller.c ****   } else {
 249              		.loc 1 216 15 view .LVU68
 250 0014 F7E7     		b	.L15
 251              	.LVL25:
 252              	.L16:
 230:Src/BLDC_controller.c ****   } else {
 231:Src/BLDC_controller.c ****     /* Update for UnitDelay: '<S18>/UnitDelay' */
 232:Src/BLDC_controller.c ****     localDW->UnitDelay_DSTATE = rtu_max;
 253              		.loc 1 232 5 is_stmt 1 view .LVU69
 254              		.loc 1 232 31 is_stmt 0 view .LVU70
 255 0016 1980     		strh	r1, [r3]	@ movhi
 233:Src/BLDC_controller.c ****   }
 234:Src/BLDC_controller.c **** 
 235:Src/BLDC_controller.c ****   /* End of MinMax: '<S16>/MinMax' */
 236:Src/BLDC_controller.c ****   return rty_cnt_0;
 256              		.loc 1 236 3 is_stmt 1 view .LVU71
 237:Src/BLDC_controller.c **** }
 257              		.loc 1 237 1 is_stmt 0 view .LVU72
 258 0018 7047     		bx	lr
 259              		.cfi_endproc
 260              	.LFE4:
 262              		.section	.text.Low_Pass_Filter_Reset,"ax",%progbits
 263              		.align	1
 264              		.global	Low_Pass_Filter_Reset
 265              		.syntax unified
 266              		.thumb
 267              		.thumb_func
 268              		.fpu softvfp
 270              	Low_Pass_Filter_Reset:
 271              	.LVL26:
 272              	.LFB5:
 238:Src/BLDC_controller.c **** 
 239:Src/BLDC_controller.c **** /* System reset for atomic system: '<S50>/Low_Pass_Filter' */
 240:Src/BLDC_controller.c **** void Low_Pass_Filter_Reset(DW_Low_Pass_Filter *localDW)
 241:Src/BLDC_controller.c **** {
 273              		.loc 1 241 1 is_stmt 1 view -0
 274              		.cfi_startproc
 275              		@ args = 0, pretend = 0, frame = 0
 276              		@ frame_needed = 0, uses_anonymous_args = 0
 277              		@ link register save eliminated.
ARM GAS  /tmp/ccVzdWer.s 			page 10


 242:Src/BLDC_controller.c ****   /* InitializeConditions for UnitDelay: '<S56>/UnitDelay1' */
 243:Src/BLDC_controller.c ****   localDW->UnitDelay1_DSTATE[0] = 0;
 278              		.loc 1 243 3 view .LVU74
 279              		.loc 1 243 33 is_stmt 0 view .LVU75
 280 0000 0023     		movs	r3, #0
 281 0002 0360     		str	r3, [r0]
 244:Src/BLDC_controller.c ****   localDW->UnitDelay1_DSTATE[1] = 0;
 282              		.loc 1 244 3 is_stmt 1 view .LVU76
 283              		.loc 1 244 33 is_stmt 0 view .LVU77
 284 0004 4360     		str	r3, [r0, #4]
 245:Src/BLDC_controller.c **** }
 285              		.loc 1 245 1 view .LVU78
 286 0006 7047     		bx	lr
 287              		.cfi_endproc
 288              	.LFE5:
 290              		.section	.text.Low_Pass_Filter,"ax",%progbits
 291              		.align	1
 292              		.global	Low_Pass_Filter
 293              		.syntax unified
 294              		.thumb
 295              		.thumb_func
 296              		.fpu softvfp
 298              	Low_Pass_Filter:
 299              	.LVL27:
 300              	.LFB6:
 246:Src/BLDC_controller.c **** 
 247:Src/BLDC_controller.c **** /* Output and update for atomic system: '<S50>/Low_Pass_Filter' */
 248:Src/BLDC_controller.c **** void Low_Pass_Filter(const int16_T rtu_u[2], uint16_T rtu_coef, int16_T rty_y[2],
 249:Src/BLDC_controller.c ****                      DW_Low_Pass_Filter *localDW)
 250:Src/BLDC_controller.c **** {
 301              		.loc 1 250 1 is_stmt 1 view -0
 302              		.cfi_startproc
 303              		@ args = 0, pretend = 0, frame = 0
 304              		@ frame_needed = 0, uses_anonymous_args = 0
 305              		@ link register save eliminated.
 306              		.loc 1 250 1 is_stmt 0 view .LVU80
 307 0000 30B4     		push	{r4, r5}
 308              	.LCFI0:
 309              		.cfi_def_cfa_offset 8
 310              		.cfi_offset 4, -8
 311              		.cfi_offset 5, -4
 251:Src/BLDC_controller.c ****   int32_T rtb_Sum3_g;
 312              		.loc 1 251 3 is_stmt 1 view .LVU81
 252:Src/BLDC_controller.c **** 
 253:Src/BLDC_controller.c ****   /* Sum: '<S56>/Sum2' incorporates:
 254:Src/BLDC_controller.c ****    *  UnitDelay: '<S56>/UnitDelay1'
 255:Src/BLDC_controller.c ****    */
 256:Src/BLDC_controller.c ****   rtb_Sum3_g = rtu_u[0] - (localDW->UnitDelay1_DSTATE[0] >> 16);
 313              		.loc 1 256 3 view .LVU82
 314              		.loc 1 256 21 is_stmt 0 view .LVU83
 315 0002 B0F90040 		ldrsh	r4, [r0]
 316              		.loc 1 256 54 view .LVU84
 317 0006 1D68     		ldr	r5, [r3]
 318              		.loc 1 256 14 view .LVU85
 319 0008 A4EB2544 		sub	r4, r4, r5, asr #16
 320              	.LVL28:
 257:Src/BLDC_controller.c ****   if (rtb_Sum3_g > 32767) {
ARM GAS  /tmp/ccVzdWer.s 			page 11


 321              		.loc 1 257 3 is_stmt 1 view .LVU86
 322              		.loc 1 257 6 is_stmt 0 view .LVU87
 323 000c B4F5004F 		cmp	r4, #32768
 324 0010 04DA     		bge	.L23
 258:Src/BLDC_controller.c ****     rtb_Sum3_g = 32767;
 259:Src/BLDC_controller.c ****   } else {
 260:Src/BLDC_controller.c ****     if (rtb_Sum3_g < -32768) {
 325              		.loc 1 260 5 is_stmt 1 view .LVU88
 326              		.loc 1 260 8 is_stmt 0 view .LVU89
 327 0012 14F5004F 		cmn	r4, #32768
 328 0016 03DA     		bge	.L21
 261:Src/BLDC_controller.c ****       rtb_Sum3_g = -32768;
 329              		.loc 1 261 18 view .LVU90
 330 0018 0F4C     		ldr	r4, .L28
 331              	.LVL29:
 332              		.loc 1 261 18 view .LVU91
 333 001a 01E0     		b	.L21
 334              	.LVL30:
 335              	.L23:
 258:Src/BLDC_controller.c ****     rtb_Sum3_g = 32767;
 336              		.loc 1 258 16 view .LVU92
 337 001c 47F6FF74 		movw	r4, #32767
 338              	.LVL31:
 339              	.L21:
 262:Src/BLDC_controller.c ****     }
 263:Src/BLDC_controller.c ****   }
 264:Src/BLDC_controller.c **** 
 265:Src/BLDC_controller.c ****   /* Sum: '<S56>/Sum3' incorporates:
 266:Src/BLDC_controller.c ****    *  Product: '<S56>/Divide3'
 267:Src/BLDC_controller.c ****    *  Sum: '<S56>/Sum2'
 268:Src/BLDC_controller.c ****    *  UnitDelay: '<S56>/UnitDelay1'
 269:Src/BLDC_controller.c ****    */
 270:Src/BLDC_controller.c ****   rtb_Sum3_g = rtu_coef * rtb_Sum3_g + localDW->UnitDelay1_DSTATE[0];
 340              		.loc 1 270 3 is_stmt 1 view .LVU93
 341              		.loc 1 270 14 is_stmt 0 view .LVU94
 342 0020 04FB0154 		mla	r4, r4, r1, r5
 343              	.LVL32:
 271:Src/BLDC_controller.c **** 
 272:Src/BLDC_controller.c ****   /* DataTypeConversion: '<S56>/Data Type Conversion' */
 273:Src/BLDC_controller.c ****   rty_y[0] = (int16_T)(rtb_Sum3_g >> 16);
 344              		.loc 1 273 3 is_stmt 1 view .LVU95
 345              		.loc 1 273 14 is_stmt 0 view .LVU96
 346 0024 2514     		asrs	r5, r4, #16
 347              		.loc 1 273 12 view .LVU97
 348 0026 1580     		strh	r5, [r2]	@ movhi
 274:Src/BLDC_controller.c **** 
 275:Src/BLDC_controller.c ****   /* Update for UnitDelay: '<S56>/UnitDelay1' */
 276:Src/BLDC_controller.c ****   localDW->UnitDelay1_DSTATE[0] = rtb_Sum3_g;
 349              		.loc 1 276 3 is_stmt 1 view .LVU98
 350              		.loc 1 276 33 is_stmt 0 view .LVU99
 351 0028 1C60     		str	r4, [r3]
 277:Src/BLDC_controller.c **** 
 278:Src/BLDC_controller.c ****   /* Sum: '<S56>/Sum2' incorporates:
 279:Src/BLDC_controller.c ****    *  UnitDelay: '<S56>/UnitDelay1'
 280:Src/BLDC_controller.c ****    */
 281:Src/BLDC_controller.c ****   rtb_Sum3_g = rtu_u[1] - (localDW->UnitDelay1_DSTATE[1] >> 16);
 352              		.loc 1 281 3 is_stmt 1 view .LVU100
ARM GAS  /tmp/ccVzdWer.s 			page 12


 353              		.loc 1 281 21 is_stmt 0 view .LVU101
 354 002a B0F90200 		ldrsh	r0, [r0, #2]
 355              	.LVL33:
 356              		.loc 1 281 54 view .LVU102
 357 002e 5C68     		ldr	r4, [r3, #4]
 358              	.LVL34:
 359              		.loc 1 281 14 view .LVU103
 360 0030 A0EB2440 		sub	r0, r0, r4, asr #16
 361              	.LVL35:
 282:Src/BLDC_controller.c ****   if (rtb_Sum3_g > 32767) {
 362              		.loc 1 282 3 is_stmt 1 view .LVU104
 363              		.loc 1 282 6 is_stmt 0 view .LVU105
 364 0034 B0F5004F 		cmp	r0, #32768
 365 0038 04DA     		bge	.L25
 283:Src/BLDC_controller.c ****     rtb_Sum3_g = 32767;
 284:Src/BLDC_controller.c ****   } else {
 285:Src/BLDC_controller.c ****     if (rtb_Sum3_g < -32768) {
 366              		.loc 1 285 5 is_stmt 1 view .LVU106
 367              		.loc 1 285 8 is_stmt 0 view .LVU107
 368 003a 10F5004F 		cmn	r0, #32768
 369 003e 03DA     		bge	.L22
 286:Src/BLDC_controller.c ****       rtb_Sum3_g = -32768;
 370              		.loc 1 286 18 view .LVU108
 371 0040 0548     		ldr	r0, .L28
 372              	.LVL36:
 373              		.loc 1 286 18 view .LVU109
 374 0042 01E0     		b	.L22
 375              	.LVL37:
 376              	.L25:
 283:Src/BLDC_controller.c ****     rtb_Sum3_g = 32767;
 377              		.loc 1 283 16 view .LVU110
 378 0044 47F6FF70 		movw	r0, #32767
 379              	.LVL38:
 380              	.L22:
 287:Src/BLDC_controller.c ****     }
 288:Src/BLDC_controller.c ****   }
 289:Src/BLDC_controller.c **** 
 290:Src/BLDC_controller.c ****   /* Sum: '<S56>/Sum3' incorporates:
 291:Src/BLDC_controller.c ****    *  Product: '<S56>/Divide3'
 292:Src/BLDC_controller.c ****    *  Sum: '<S56>/Sum2'
 293:Src/BLDC_controller.c ****    *  UnitDelay: '<S56>/UnitDelay1'
 294:Src/BLDC_controller.c ****    */
 295:Src/BLDC_controller.c ****   rtb_Sum3_g = rtu_coef * rtb_Sum3_g + localDW->UnitDelay1_DSTATE[1];
 381              		.loc 1 295 3 is_stmt 1 view .LVU111
 382              		.loc 1 295 14 is_stmt 0 view .LVU112
 383 0048 00FB0141 		mla	r1, r0, r1, r4
 384              	.LVL39:
 296:Src/BLDC_controller.c **** 
 297:Src/BLDC_controller.c ****   /* DataTypeConversion: '<S56>/Data Type Conversion' */
 298:Src/BLDC_controller.c ****   rty_y[1] = (int16_T)(rtb_Sum3_g >> 16);
 385              		.loc 1 298 3 is_stmt 1 view .LVU113
 386              		.loc 1 298 14 is_stmt 0 view .LVU114
 387 004c 0814     		asrs	r0, r1, #16
 388              		.loc 1 298 12 view .LVU115
 389 004e 5080     		strh	r0, [r2, #2]	@ movhi
 299:Src/BLDC_controller.c **** 
 300:Src/BLDC_controller.c ****   /* Update for UnitDelay: '<S56>/UnitDelay1' */
ARM GAS  /tmp/ccVzdWer.s 			page 13


 301:Src/BLDC_controller.c ****   localDW->UnitDelay1_DSTATE[1] = rtb_Sum3_g;
 390              		.loc 1 301 3 is_stmt 1 view .LVU116
 391              		.loc 1 301 33 is_stmt 0 view .LVU117
 392 0050 5960     		str	r1, [r3, #4]
 302:Src/BLDC_controller.c **** }
 393              		.loc 1 302 1 view .LVU118
 394 0052 30BC     		pop	{r4, r5}
 395              	.LCFI1:
 396              		.cfi_restore 5
 397              		.cfi_restore 4
 398              		.cfi_def_cfa_offset 0
 399 0054 7047     		bx	lr
 400              	.L29:
 401 0056 00BF     		.align	2
 402              	.L28:
 403 0058 0080FFFF 		.word	-32768
 404              		.cfi_endproc
 405              	.LFE6:
 407              		.section	.text.Counter_b_Init,"ax",%progbits
 408              		.align	1
 409              		.global	Counter_b_Init
 410              		.syntax unified
 411              		.thumb
 412              		.thumb_func
 413              		.fpu softvfp
 415              	Counter_b_Init:
 416              	.LVL40:
 417              	.LFB7:
 303:Src/BLDC_controller.c **** 
 304:Src/BLDC_controller.c **** /*
 305:Src/BLDC_controller.c ****  * System initialize for atomic system:
 306:Src/BLDC_controller.c ****  *    '<S25>/Counter'
 307:Src/BLDC_controller.c ****  *    '<S24>/Counter'
 308:Src/BLDC_controller.c ****  */
 309:Src/BLDC_controller.c **** void Counter_b_Init(DW_Counter_b *localDW, uint16_T rtp_z_cntInit)
 310:Src/BLDC_controller.c **** {
 418              		.loc 1 310 1 is_stmt 1 view -0
 419              		.cfi_startproc
 420              		@ args = 0, pretend = 0, frame = 0
 421              		@ frame_needed = 0, uses_anonymous_args = 0
 422              		@ link register save eliminated.
 311:Src/BLDC_controller.c ****   /* InitializeConditions for UnitDelay: '<S30>/UnitDelay' */
 312:Src/BLDC_controller.c ****   localDW->UnitDelay_DSTATE = rtp_z_cntInit;
 423              		.loc 1 312 3 view .LVU120
 424              		.loc 1 312 29 is_stmt 0 view .LVU121
 425 0000 0180     		strh	r1, [r0]	@ movhi
 313:Src/BLDC_controller.c **** }
 426              		.loc 1 313 1 view .LVU122
 427 0002 7047     		bx	lr
 428              		.cfi_endproc
 429              	.LFE7:
 431              		.section	.text.Counter_n,"ax",%progbits
 432              		.align	1
 433              		.global	Counter_n
 434              		.syntax unified
 435              		.thumb
 436              		.thumb_func
ARM GAS  /tmp/ccVzdWer.s 			page 14


 437              		.fpu softvfp
 439              	Counter_n:
 440              	.LVL41:
 441              	.LFB8:
 314:Src/BLDC_controller.c **** 
 315:Src/BLDC_controller.c **** /*
 316:Src/BLDC_controller.c ****  * Output and update for atomic system:
 317:Src/BLDC_controller.c ****  *    '<S25>/Counter'
 318:Src/BLDC_controller.c ****  *    '<S24>/Counter'
 319:Src/BLDC_controller.c ****  */
 320:Src/BLDC_controller.c **** void Counter_n(uint16_T rtu_inc, uint16_T rtu_max, boolean_T rtu_rst, uint16_T
 321:Src/BLDC_controller.c ****                *rty_cnt, DW_Counter_b *localDW)
 322:Src/BLDC_controller.c **** {
 442              		.loc 1 322 1 is_stmt 1 view -0
 443              		.cfi_startproc
 444              		@ args = 4, pretend = 0, frame = 0
 445              		@ frame_needed = 0, uses_anonymous_args = 0
 446              		@ link register save eliminated.
 447              		.loc 1 322 1 is_stmt 0 view .LVU124
 448 0000 10B4     		push	{r4}
 449              	.LCFI2:
 450              		.cfi_def_cfa_offset 4
 451              		.cfi_offset 4, -4
 452 0002 019C     		ldr	r4, [sp, #4]
 323:Src/BLDC_controller.c ****   uint16_T rtu_rst_0;
 453              		.loc 1 323 3 is_stmt 1 view .LVU125
 324:Src/BLDC_controller.c **** 
 325:Src/BLDC_controller.c ****   /* Switch: '<S30>/Switch1' incorporates:
 326:Src/BLDC_controller.c ****    *  Constant: '<S30>/Constant23'
 327:Src/BLDC_controller.c ****    *  UnitDelay: '<S30>/UnitDelay'
 328:Src/BLDC_controller.c ****    */
 329:Src/BLDC_controller.c ****   if (rtu_rst) {
 454              		.loc 1 329 3 view .LVU126
 455              		.loc 1 329 6 is_stmt 0 view .LVU127
 456 0004 42B9     		cbnz	r2, .L35
 330:Src/BLDC_controller.c ****     rtu_rst_0 = 0U;
 331:Src/BLDC_controller.c ****   } else {
 332:Src/BLDC_controller.c ****     rtu_rst_0 = localDW->UnitDelay_DSTATE;
 457              		.loc 1 332 5 is_stmt 1 view .LVU128
 458              		.loc 1 332 15 is_stmt 0 view .LVU129
 459 0006 2288     		ldrh	r2, [r4]
 460              	.LVL42:
 461              	.L32:
 333:Src/BLDC_controller.c ****   }
 334:Src/BLDC_controller.c **** 
 335:Src/BLDC_controller.c ****   /* End of Switch: '<S30>/Switch1' */
 336:Src/BLDC_controller.c **** 
 337:Src/BLDC_controller.c ****   /* Sum: '<S29>/Sum1' */
 338:Src/BLDC_controller.c ****   *rty_cnt = (uint16_T)((uint32_T)rtu_inc + rtu_rst_0);
 462              		.loc 1 338 3 is_stmt 1 view .LVU130
 463              		.loc 1 338 14 is_stmt 0 view .LVU131
 464 0008 1044     		add	r0, r0, r2
 465              	.LVL43:
 466              		.loc 1 338 14 view .LVU132
 467 000a 80B2     		uxth	r0, r0
 468              		.loc 1 338 12 view .LVU133
 469 000c 1880     		strh	r0, [r3]	@ movhi
ARM GAS  /tmp/ccVzdWer.s 			page 15


 339:Src/BLDC_controller.c **** 
 340:Src/BLDC_controller.c ****   /* MinMax: '<S29>/MinMax' */
 341:Src/BLDC_controller.c ****   if (*rty_cnt < rtu_max) {
 470              		.loc 1 341 3 is_stmt 1 view .LVU134
 471              		.loc 1 341 6 is_stmt 0 view .LVU135
 472 000e 8842     		cmp	r0, r1
 473 0010 04D2     		bcs	.L33
 342:Src/BLDC_controller.c ****     /* Update for UnitDelay: '<S30>/UnitDelay' */
 343:Src/BLDC_controller.c ****     localDW->UnitDelay_DSTATE = *rty_cnt;
 474              		.loc 1 343 5 is_stmt 1 view .LVU136
 475              		.loc 1 343 31 is_stmt 0 view .LVU137
 476 0012 2080     		strh	r0, [r4]	@ movhi
 477              	.L31:
 344:Src/BLDC_controller.c ****   } else {
 345:Src/BLDC_controller.c ****     /* Update for UnitDelay: '<S30>/UnitDelay' */
 346:Src/BLDC_controller.c ****     localDW->UnitDelay_DSTATE = rtu_max;
 347:Src/BLDC_controller.c ****   }
 348:Src/BLDC_controller.c **** 
 349:Src/BLDC_controller.c ****   /* End of MinMax: '<S29>/MinMax' */
 350:Src/BLDC_controller.c **** }
 478              		.loc 1 350 1 view .LVU138
 479 0014 10BC     		pop	{r4}
 480              	.LCFI3:
 481              		.cfi_remember_state
 482              		.cfi_restore 4
 483              		.cfi_def_cfa_offset 0
 484              	.LVL44:
 485              		.loc 1 350 1 view .LVU139
 486 0016 7047     		bx	lr
 487              	.LVL45:
 488              	.L35:
 489              	.LCFI4:
 490              		.cfi_restore_state
 330:Src/BLDC_controller.c ****   } else {
 491              		.loc 1 330 15 view .LVU140
 492 0018 0022     		movs	r2, #0
 493              	.LVL46:
 330:Src/BLDC_controller.c ****   } else {
 494              		.loc 1 330 15 view .LVU141
 495 001a F5E7     		b	.L32
 496              	.LVL47:
 497              	.L33:
 346:Src/BLDC_controller.c ****   }
 498              		.loc 1 346 5 is_stmt 1 view .LVU142
 346:Src/BLDC_controller.c ****   }
 499              		.loc 1 346 31 is_stmt 0 view .LVU143
 500 001c 2180     		strh	r1, [r4]	@ movhi
 501              		.loc 1 350 1 view .LVU144
 502 001e F9E7     		b	.L31
 503              		.cfi_endproc
 504              	.LFE8:
 506              		.section	.text.either_edge,"ax",%progbits
 507              		.align	1
 508              		.global	either_edge
 509              		.syntax unified
 510              		.thumb
 511              		.thumb_func
ARM GAS  /tmp/ccVzdWer.s 			page 16


 512              		.fpu softvfp
 514              	either_edge:
 515              	.LVL48:
 516              	.LFB9:
 351:Src/BLDC_controller.c **** 
 352:Src/BLDC_controller.c **** /*
 353:Src/BLDC_controller.c ****  * Output and update for atomic system:
 354:Src/BLDC_controller.c ****  *    '<S21>/either_edge'
 355:Src/BLDC_controller.c ****  *    '<S20>/either_edge'
 356:Src/BLDC_controller.c ****  */
 357:Src/BLDC_controller.c **** void either_edge(boolean_T rtu_u, boolean_T *rty_y, DW_either_edge *localDW)
 358:Src/BLDC_controller.c **** {
 517              		.loc 1 358 1 is_stmt 1 view -0
 518              		.cfi_startproc
 519              		@ args = 0, pretend = 0, frame = 0
 520              		@ frame_needed = 0, uses_anonymous_args = 0
 521              		@ link register save eliminated.
 359:Src/BLDC_controller.c ****   /* RelationalOperator: '<S26>/Relational Operator' incorporates:
 360:Src/BLDC_controller.c ****    *  UnitDelay: '<S26>/UnitDelay'
 361:Src/BLDC_controller.c ****    */
 362:Src/BLDC_controller.c ****   *rty_y = (rtu_u != localDW->UnitDelay_DSTATE);
 522              		.loc 1 362 3 view .LVU146
 523              		.loc 1 362 29 is_stmt 0 view .LVU147
 524 0000 1378     		ldrb	r3, [r2]	@ zero_extendqisi2
 525              		.loc 1 362 19 view .LVU148
 526 0002 1B1A     		subs	r3, r3, r0
 527 0004 18BF     		it	ne
 528 0006 0123     		movne	r3, #1
 529              		.loc 1 362 10 view .LVU149
 530 0008 0B70     		strb	r3, [r1]
 363:Src/BLDC_controller.c **** 
 364:Src/BLDC_controller.c ****   /* Update for UnitDelay: '<S26>/UnitDelay' */
 365:Src/BLDC_controller.c ****   localDW->UnitDelay_DSTATE = rtu_u;
 531              		.loc 1 365 3 is_stmt 1 view .LVU150
 532              		.loc 1 365 29 is_stmt 0 view .LVU151
 533 000a 1070     		strb	r0, [r2]
 366:Src/BLDC_controller.c **** }
 534              		.loc 1 366 1 view .LVU152
 535 000c 7047     		bx	lr
 536              		.cfi_endproc
 537              	.LFE9:
 539              		.section	.text.Debounce_Filter_Init,"ax",%progbits
 540              		.align	1
 541              		.global	Debounce_Filter_Init
 542              		.syntax unified
 543              		.thumb
 544              		.thumb_func
 545              		.fpu softvfp
 547              	Debounce_Filter_Init:
 548              	.LVL49:
 549              	.LFB10:
 367:Src/BLDC_controller.c **** 
 368:Src/BLDC_controller.c **** /* System initialize for atomic system: '<S20>/Debounce_Filter' */
 369:Src/BLDC_controller.c **** void Debounce_Filter_Init(DW_Debounce_Filter *localDW)
 370:Src/BLDC_controller.c **** {
 550              		.loc 1 370 1 is_stmt 1 view -0
 551              		.cfi_startproc
ARM GAS  /tmp/ccVzdWer.s 			page 17


 552              		@ args = 0, pretend = 0, frame = 0
 553              		@ frame_needed = 0, uses_anonymous_args = 0
 554              		.loc 1 370 1 is_stmt 0 view .LVU154
 555 0000 10B5     		push	{r4, lr}
 556              	.LCFI5:
 557              		.cfi_def_cfa_offset 8
 558              		.cfi_offset 4, -8
 559              		.cfi_offset 14, -4
 560 0002 0446     		mov	r4, r0
 371:Src/BLDC_controller.c ****   /* SystemInitialize for IfAction SubSystem: '<S21>/Qualification' */
 372:Src/BLDC_controller.c **** 
 373:Src/BLDC_controller.c ****   /* SystemInitialize for Atomic SubSystem: '<S25>/Counter' */
 374:Src/BLDC_controller.c ****   Counter_b_Init(&localDW->Counter_n1, 0U);
 561              		.loc 1 374 3 is_stmt 1 view .LVU155
 562 0004 0021     		movs	r1, #0
 563 0006 0430     		adds	r0, r0, #4
 564              	.LVL50:
 565              		.loc 1 374 3 is_stmt 0 view .LVU156
 566 0008 FFF7FEFF 		bl	Counter_b_Init
 567              	.LVL51:
 375:Src/BLDC_controller.c **** 
 376:Src/BLDC_controller.c ****   /* End of SystemInitialize for SubSystem: '<S25>/Counter' */
 377:Src/BLDC_controller.c **** 
 378:Src/BLDC_controller.c ****   /* End of SystemInitialize for SubSystem: '<S21>/Qualification' */
 379:Src/BLDC_controller.c **** 
 380:Src/BLDC_controller.c ****   /* SystemInitialize for IfAction SubSystem: '<S21>/Dequalification' */
 381:Src/BLDC_controller.c **** 
 382:Src/BLDC_controller.c ****   /* SystemInitialize for Atomic SubSystem: '<S24>/Counter' */
 383:Src/BLDC_controller.c ****   Counter_b_Init(&localDW->Counter_e, 0U);
 568              		.loc 1 383 3 is_stmt 1 view .LVU157
 569 000c 0021     		movs	r1, #0
 570 000e A01C     		adds	r0, r4, #2
 571 0010 FFF7FEFF 		bl	Counter_b_Init
 572              	.LVL52:
 384:Src/BLDC_controller.c **** 
 385:Src/BLDC_controller.c ****   /* End of SystemInitialize for SubSystem: '<S24>/Counter' */
 386:Src/BLDC_controller.c **** 
 387:Src/BLDC_controller.c ****   /* End of SystemInitialize for SubSystem: '<S21>/Dequalification' */
 388:Src/BLDC_controller.c **** }
 573              		.loc 1 388 1 is_stmt 0 view .LVU158
 574 0014 10BD     		pop	{r4, pc}
 575              		.loc 1 388 1 view .LVU159
 576              		.cfi_endproc
 577              	.LFE10:
 579              		.section	.text.Debounce_Filter,"ax",%progbits
 580              		.align	1
 581              		.global	Debounce_Filter
 582              		.syntax unified
 583              		.thumb
 584              		.thumb_func
 585              		.fpu softvfp
 587              	Debounce_Filter:
 588              	.LVL53:
 589              	.LFB11:
 389:Src/BLDC_controller.c **** 
 390:Src/BLDC_controller.c **** /* Output and update for atomic system: '<S20>/Debounce_Filter' */
 391:Src/BLDC_controller.c **** void Debounce_Filter(boolean_T rtu_u, uint16_T rtu_tAcv, uint16_T rtu_tDeacv,
ARM GAS  /tmp/ccVzdWer.s 			page 18


 392:Src/BLDC_controller.c ****                      boolean_T *rty_y, DW_Debounce_Filter *localDW)
 393:Src/BLDC_controller.c **** {
 590              		.loc 1 393 1 is_stmt 1 view -0
 591              		.cfi_startproc
 592              		@ args = 4, pretend = 0, frame = 8
 593              		@ frame_needed = 0, uses_anonymous_args = 0
 594              		.loc 1 393 1 is_stmt 0 view .LVU161
 595 0000 2DE9F041 		push	{r4, r5, r6, r7, r8, lr}
 596              	.LCFI6:
 597              		.cfi_def_cfa_offset 24
 598              		.cfi_offset 4, -24
 599              		.cfi_offset 5, -20
 600              		.cfi_offset 6, -16
 601              		.cfi_offset 7, -12
 602              		.cfi_offset 8, -8
 603              		.cfi_offset 14, -4
 604 0004 84B0     		sub	sp, sp, #16
 605              	.LCFI7:
 606              		.cfi_def_cfa_offset 40
 607 0006 0646     		mov	r6, r0
 608 0008 8846     		mov	r8, r1
 609 000a 1746     		mov	r7, r2
 610 000c 1D46     		mov	r5, r3
 611 000e 0A9C     		ldr	r4, [sp, #40]
 394:Src/BLDC_controller.c ****   uint16_T rtb_Sum1_n;
 612              		.loc 1 394 3 is_stmt 1 view .LVU162
 395:Src/BLDC_controller.c ****   boolean_T rtb_RelationalOperator_g;
 613              		.loc 1 395 3 view .LVU163
 396:Src/BLDC_controller.c **** 
 397:Src/BLDC_controller.c ****   /* Outputs for Atomic SubSystem: '<S21>/either_edge' */
 398:Src/BLDC_controller.c ****   either_edge(rtu_u, &rtb_RelationalOperator_g, &localDW->either_edge_p);
 614              		.loc 1 398 3 view .LVU164
 615 0010 2246     		mov	r2, r4
 616              	.LVL54:
 617              		.loc 1 398 3 is_stmt 0 view .LVU165
 618 0012 0DF10D01 		add	r1, sp, #13
 619              	.LVL55:
 620              		.loc 1 398 3 view .LVU166
 621 0016 FFF7FEFF 		bl	either_edge
 622              	.LVL56:
 399:Src/BLDC_controller.c **** 
 400:Src/BLDC_controller.c ****   /* End of Outputs for SubSystem: '<S21>/either_edge' */
 401:Src/BLDC_controller.c **** 
 402:Src/BLDC_controller.c ****   /* If: '<S21>/If2' incorporates:
 403:Src/BLDC_controller.c ****    *  Constant: '<S24>/Constant6'
 404:Src/BLDC_controller.c ****    *  Constant: '<S25>/Constant6'
 405:Src/BLDC_controller.c ****    *  Inport: '<S23>/yPrev'
 406:Src/BLDC_controller.c ****    *  Logic: '<S21>/Logical Operator1'
 407:Src/BLDC_controller.c ****    *  Logic: '<S21>/Logical Operator2'
 408:Src/BLDC_controller.c ****    *  Logic: '<S21>/Logical Operator3'
 409:Src/BLDC_controller.c ****    *  Logic: '<S21>/Logical Operator4'
 410:Src/BLDC_controller.c ****    *  UnitDelay: '<S21>/UnitDelay'
 411:Src/BLDC_controller.c ****    */
 412:Src/BLDC_controller.c ****   if (rtu_u && (!localDW->UnitDelay_DSTATE)) {
 623              		.loc 1 412 3 is_stmt 1 view .LVU167
 624              		.loc 1 412 6 is_stmt 0 view .LVU168
 625 001a 0EB1     		cbz	r6, .L41
ARM GAS  /tmp/ccVzdWer.s 			page 19


 626              		.loc 1 412 25 discriminator 1 view .LVU169
 627 001c A379     		ldrb	r3, [r4, #6]	@ zero_extendqisi2
 628              		.loc 1 412 13 discriminator 1 view .LVU170
 629 001e 4BB1     		cbz	r3, .L51
 630              	.L41:
 413:Src/BLDC_controller.c ****     /* Outputs for IfAction SubSystem: '<S21>/Qualification' incorporates:
 414:Src/BLDC_controller.c ****      *  ActionPort: '<S25>/Action Port'
 415:Src/BLDC_controller.c ****      */
 416:Src/BLDC_controller.c **** 
 417:Src/BLDC_controller.c ****     /* Outputs for Atomic SubSystem: '<S25>/Counter' */
 418:Src/BLDC_controller.c ****     Counter_n(1U, rtu_tAcv, rtb_RelationalOperator_g, &rtb_Sum1_n,
 419:Src/BLDC_controller.c ****               &localDW->Counter_n1);
 420:Src/BLDC_controller.c **** 
 421:Src/BLDC_controller.c ****     /* End of Outputs for SubSystem: '<S25>/Counter' */
 422:Src/BLDC_controller.c **** 
 423:Src/BLDC_controller.c ****     /* Switch: '<S25>/Switch2' incorporates:
 424:Src/BLDC_controller.c ****      *  Constant: '<S25>/Constant6'
 425:Src/BLDC_controller.c ****      *  RelationalOperator: '<S25>/Relational Operator2'
 426:Src/BLDC_controller.c ****      */
 427:Src/BLDC_controller.c ****     *rty_y = ((rtb_Sum1_n > rtu_tAcv) || localDW->UnitDelay_DSTATE);
 428:Src/BLDC_controller.c **** 
 429:Src/BLDC_controller.c ****     /* End of Outputs for SubSystem: '<S21>/Qualification' */
 430:Src/BLDC_controller.c ****   } else if ((!rtu_u) && localDW->UnitDelay_DSTATE) {
 631              		.loc 1 430 10 is_stmt 1 view .LVU171
 632              		.loc 1 430 13 is_stmt 0 view .LVU172
 633 0020 0EB9     		cbnz	r6, .L44
 634              		.loc 1 430 33 discriminator 1 view .LVU173
 635 0022 A379     		ldrb	r3, [r4, #6]	@ zero_extendqisi2
 636              		.loc 1 430 23 discriminator 1 view .LVU174
 637 0024 EBB9     		cbnz	r3, .L52
 638              	.L44:
 431:Src/BLDC_controller.c ****     /* Outputs for IfAction SubSystem: '<S21>/Dequalification' incorporates:
 432:Src/BLDC_controller.c ****      *  ActionPort: '<S24>/Action Port'
 433:Src/BLDC_controller.c ****      */
 434:Src/BLDC_controller.c **** 
 435:Src/BLDC_controller.c ****     /* Outputs for Atomic SubSystem: '<S24>/Counter' */
 436:Src/BLDC_controller.c ****     Counter_n(1U, rtu_tDeacv, rtb_RelationalOperator_g, &rtb_Sum1_n,
 437:Src/BLDC_controller.c ****               &localDW->Counter_e);
 438:Src/BLDC_controller.c **** 
 439:Src/BLDC_controller.c ****     /* End of Outputs for SubSystem: '<S24>/Counter' */
 440:Src/BLDC_controller.c **** 
 441:Src/BLDC_controller.c ****     /* Switch: '<S24>/Switch2' incorporates:
 442:Src/BLDC_controller.c ****      *  Constant: '<S24>/Constant6'
 443:Src/BLDC_controller.c ****      *  RelationalOperator: '<S24>/Relational Operator2'
 444:Src/BLDC_controller.c ****      */
 445:Src/BLDC_controller.c ****     *rty_y = ((!(rtb_Sum1_n > rtu_tDeacv)) && localDW->UnitDelay_DSTATE);
 446:Src/BLDC_controller.c **** 
 447:Src/BLDC_controller.c ****     /* End of Outputs for SubSystem: '<S21>/Dequalification' */
 448:Src/BLDC_controller.c ****   } else {
 449:Src/BLDC_controller.c ****     /* Outputs for IfAction SubSystem: '<S21>/Default' incorporates:
 450:Src/BLDC_controller.c ****      *  ActionPort: '<S23>/Action Port'
 451:Src/BLDC_controller.c ****      */
 452:Src/BLDC_controller.c ****     *rty_y = localDW->UnitDelay_DSTATE;
 639              		.loc 1 452 5 is_stmt 1 view .LVU175
 640              		.loc 1 452 21 is_stmt 0 view .LVU176
 641 0026 A379     		ldrb	r3, [r4, #6]	@ zero_extendqisi2
 642              		.loc 1 452 12 view .LVU177
ARM GAS  /tmp/ccVzdWer.s 			page 20


 643 0028 2B70     		strb	r3, [r5]
 644              	.L43:
 453:Src/BLDC_controller.c **** 
 454:Src/BLDC_controller.c ****     /* End of Outputs for SubSystem: '<S21>/Default' */
 455:Src/BLDC_controller.c ****   }
 456:Src/BLDC_controller.c **** 
 457:Src/BLDC_controller.c ****   /* End of If: '<S21>/If2' */
 458:Src/BLDC_controller.c **** 
 459:Src/BLDC_controller.c ****   /* Update for UnitDelay: '<S21>/UnitDelay' */
 460:Src/BLDC_controller.c ****   localDW->UnitDelay_DSTATE = *rty_y;
 645              		.loc 1 460 3 is_stmt 1 view .LVU178
 646              		.loc 1 460 31 is_stmt 0 view .LVU179
 647 002a 2B78     		ldrb	r3, [r5]	@ zero_extendqisi2
 648              		.loc 1 460 29 view .LVU180
 649 002c A371     		strb	r3, [r4, #6]
 461:Src/BLDC_controller.c **** }
 650              		.loc 1 461 1 view .LVU181
 651 002e 04B0     		add	sp, sp, #16
 652              	.LCFI8:
 653              		.cfi_remember_state
 654              		.cfi_def_cfa_offset 24
 655              		@ sp needed
 656 0030 BDE8F081 		pop	{r4, r5, r6, r7, r8, pc}
 657              	.LVL57:
 658              	.L51:
 659              	.LCFI9:
 660              		.cfi_restore_state
 418:Src/BLDC_controller.c ****               &localDW->Counter_n1);
 661              		.loc 1 418 5 is_stmt 1 view .LVU182
 662 0034 231D     		adds	r3, r4, #4
 663 0036 0093     		str	r3, [sp]
 664 0038 0DF10E03 		add	r3, sp, #14
 665 003c 9DF80D20 		ldrb	r2, [sp, #13]	@ zero_extendqisi2
 666 0040 4146     		mov	r1, r8
 667 0042 0120     		movs	r0, #1
 668 0044 FFF7FEFF 		bl	Counter_n
 669              	.LVL58:
 427:Src/BLDC_controller.c **** 
 670              		.loc 1 427 5 view .LVU183
 427:Src/BLDC_controller.c **** 
 671              		.loc 1 427 27 is_stmt 0 view .LVU184
 672 0048 BDF80E30 		ldrh	r3, [sp, #14]
 427:Src/BLDC_controller.c **** 
 673              		.loc 1 427 39 view .LVU185
 674 004c 4345     		cmp	r3, r8
 675 004e 03D8     		bhi	.L46
 427:Src/BLDC_controller.c **** 
 676              		.loc 1 427 49 discriminator 2 view .LVU186
 677 0050 A379     		ldrb	r3, [r4, #6]	@ zero_extendqisi2
 427:Src/BLDC_controller.c **** 
 678              		.loc 1 427 39 discriminator 2 view .LVU187
 679 0052 23B1     		cbz	r3, .L47
 427:Src/BLDC_controller.c **** 
 680              		.loc 1 427 39 view .LVU188
 681 0054 0123     		movs	r3, #1
 682 0056 00E0     		b	.L42
 683              	.L46:
ARM GAS  /tmp/ccVzdWer.s 			page 21


 684 0058 0123     		movs	r3, #1
 685              	.L42:
 427:Src/BLDC_controller.c **** 
 686              		.loc 1 427 12 discriminator 6 view .LVU189
 687 005a 2B70     		strb	r3, [r5]
 688 005c E5E7     		b	.L43
 689              	.L47:
 427:Src/BLDC_controller.c **** 
 690              		.loc 1 427 39 view .LVU190
 691 005e 0023     		movs	r3, #0
 692 0060 FBE7     		b	.L42
 693              	.L52:
 436:Src/BLDC_controller.c ****               &localDW->Counter_e);
 694              		.loc 1 436 5 is_stmt 1 view .LVU191
 695 0062 A31C     		adds	r3, r4, #2
 696 0064 0093     		str	r3, [sp]
 697 0066 0DF10E03 		add	r3, sp, #14
 698 006a 9DF80D20 		ldrb	r2, [sp, #13]	@ zero_extendqisi2
 699 006e 3946     		mov	r1, r7
 700 0070 0120     		movs	r0, #1
 701 0072 FFF7FEFF 		bl	Counter_n
 702              	.LVL59:
 445:Src/BLDC_controller.c **** 
 703              		.loc 1 445 5 view .LVU192
 445:Src/BLDC_controller.c **** 
 704              		.loc 1 445 16 is_stmt 0 view .LVU193
 705 0076 BDF80E30 		ldrh	r3, [sp, #14]
 445:Src/BLDC_controller.c **** 
 706              		.loc 1 445 44 view .LVU194
 707 007a BB42     		cmp	r3, r7
 708 007c 03D8     		bhi	.L48
 445:Src/BLDC_controller.c **** 
 709              		.loc 1 445 54 discriminator 1 view .LVU195
 710 007e A379     		ldrb	r3, [r4, #6]	@ zero_extendqisi2
 445:Src/BLDC_controller.c **** 
 711              		.loc 1 445 44 discriminator 1 view .LVU196
 712 0080 13B1     		cbz	r3, .L45
 445:Src/BLDC_controller.c **** 
 713              		.loc 1 445 44 view .LVU197
 714 0082 0123     		movs	r3, #1
 715 0084 00E0     		b	.L45
 716              	.L48:
 717 0086 0023     		movs	r3, #0
 718              	.L45:
 445:Src/BLDC_controller.c **** 
 719              		.loc 1 445 12 discriminator 6 view .LVU198
 720 0088 2B70     		strb	r3, [r5]
 721 008a CEE7     		b	.L43
 722              		.cfi_endproc
 723              	.LFE11:
 725              		.section	.text.I_backCalc_fixdt_Init,"ax",%progbits
 726              		.align	1
 727              		.global	I_backCalc_fixdt_Init
 728              		.syntax unified
 729              		.thumb
 730              		.thumb_func
 731              		.fpu softvfp
ARM GAS  /tmp/ccVzdWer.s 			page 22


 733              	I_backCalc_fixdt_Init:
 734              	.LVL60:
 735              	.LFB12:
 462:Src/BLDC_controller.c **** 
 463:Src/BLDC_controller.c **** /*
 464:Src/BLDC_controller.c ****  * System initialize for atomic system:
 465:Src/BLDC_controller.c ****  *    '<S83>/I_backCalc_fixdt'
 466:Src/BLDC_controller.c ****  *    '<S83>/I_backCalc_fixdt1'
 467:Src/BLDC_controller.c ****  *    '<S82>/I_backCalc_fixdt'
 468:Src/BLDC_controller.c ****  */
 469:Src/BLDC_controller.c **** void I_backCalc_fixdt_Init(DW_I_backCalc_fixdt *localDW, int32_T rtp_yInit)
 470:Src/BLDC_controller.c **** {
 736              		.loc 1 470 1 is_stmt 1 view -0
 737              		.cfi_startproc
 738              		@ args = 0, pretend = 0, frame = 0
 739              		@ frame_needed = 0, uses_anonymous_args = 0
 740              		@ link register save eliminated.
 471:Src/BLDC_controller.c ****   /* InitializeConditions for UnitDelay: '<S90>/UnitDelay' */
 472:Src/BLDC_controller.c ****   localDW->UnitDelay_DSTATE_m = rtp_yInit;
 741              		.loc 1 472 3 view .LVU200
 742              		.loc 1 472 31 is_stmt 0 view .LVU201
 743 0000 4160     		str	r1, [r0, #4]
 473:Src/BLDC_controller.c **** }
 744              		.loc 1 473 1 view .LVU202
 745 0002 7047     		bx	lr
 746              		.cfi_endproc
 747              	.LFE12:
 749              		.section	.text.I_backCalc_fixdt_Reset,"ax",%progbits
 750              		.align	1
 751              		.global	I_backCalc_fixdt_Reset
 752              		.syntax unified
 753              		.thumb
 754              		.thumb_func
 755              		.fpu softvfp
 757              	I_backCalc_fixdt_Reset:
 758              	.LVL61:
 759              	.LFB13:
 474:Src/BLDC_controller.c **** 
 475:Src/BLDC_controller.c **** /*
 476:Src/BLDC_controller.c ****  * System reset for atomic system:
 477:Src/BLDC_controller.c ****  *    '<S83>/I_backCalc_fixdt'
 478:Src/BLDC_controller.c ****  *    '<S83>/I_backCalc_fixdt1'
 479:Src/BLDC_controller.c ****  *    '<S82>/I_backCalc_fixdt'
 480:Src/BLDC_controller.c ****  */
 481:Src/BLDC_controller.c **** void I_backCalc_fixdt_Reset(DW_I_backCalc_fixdt *localDW, int32_T rtp_yInit)
 482:Src/BLDC_controller.c **** {
 760              		.loc 1 482 1 is_stmt 1 view -0
 761              		.cfi_startproc
 762              		@ args = 0, pretend = 0, frame = 0
 763              		@ frame_needed = 0, uses_anonymous_args = 0
 764              		@ link register save eliminated.
 483:Src/BLDC_controller.c ****   /* InitializeConditions for UnitDelay: '<S88>/UnitDelay' */
 484:Src/BLDC_controller.c ****   localDW->UnitDelay_DSTATE = 0;
 765              		.loc 1 484 3 view .LVU204
 766              		.loc 1 484 29 is_stmt 0 view .LVU205
 767 0000 0023     		movs	r3, #0
 768 0002 0360     		str	r3, [r0]
ARM GAS  /tmp/ccVzdWer.s 			page 23


 485:Src/BLDC_controller.c **** 
 486:Src/BLDC_controller.c ****   /* InitializeConditions for UnitDelay: '<S90>/UnitDelay' */
 487:Src/BLDC_controller.c ****   localDW->UnitDelay_DSTATE_m = rtp_yInit;
 769              		.loc 1 487 3 is_stmt 1 view .LVU206
 770              		.loc 1 487 31 is_stmt 0 view .LVU207
 771 0004 4160     		str	r1, [r0, #4]
 488:Src/BLDC_controller.c **** }
 772              		.loc 1 488 1 view .LVU208
 773 0006 7047     		bx	lr
 774              		.cfi_endproc
 775              	.LFE13:
 777              		.section	.text.I_backCalc_fixdt,"ax",%progbits
 778              		.align	1
 779              		.global	I_backCalc_fixdt
 780              		.syntax unified
 781              		.thumb
 782              		.thumb_func
 783              		.fpu softvfp
 785              	I_backCalc_fixdt:
 786              	.LVL62:
 787              	.LFB14:
 489:Src/BLDC_controller.c **** 
 490:Src/BLDC_controller.c **** /*
 491:Src/BLDC_controller.c ****  * Output and update for atomic system:
 492:Src/BLDC_controller.c ****  *    '<S83>/I_backCalc_fixdt'
 493:Src/BLDC_controller.c ****  *    '<S83>/I_backCalc_fixdt1'
 494:Src/BLDC_controller.c ****  *    '<S82>/I_backCalc_fixdt'
 495:Src/BLDC_controller.c ****  */
 496:Src/BLDC_controller.c **** void I_backCalc_fixdt(int16_T rtu_err, uint16_T rtu_I, uint16_T rtu_Kb, int16_T
 497:Src/BLDC_controller.c ****                       rtu_satMax, int16_T rtu_satMin, int16_T *rty_out,
 498:Src/BLDC_controller.c ****                       DW_I_backCalc_fixdt *localDW)
 499:Src/BLDC_controller.c **** {
 788              		.loc 1 499 1 is_stmt 1 view -0
 789              		.cfi_startproc
 790              		@ args = 12, pretend = 0, frame = 0
 791              		@ frame_needed = 0, uses_anonymous_args = 0
 792              		@ link register save eliminated.
 793              		.loc 1 499 1 is_stmt 0 view .LVU210
 794 0000 F0B4     		push	{r4, r5, r6, r7}
 795              	.LCFI10:
 796              		.cfi_def_cfa_offset 16
 797              		.cfi_offset 4, -16
 798              		.cfi_offset 5, -12
 799              		.cfi_offset 6, -8
 800              		.cfi_offset 7, -4
 801 0002 BDF91070 		ldrsh	r7, [sp, #16]
 802 0006 059D     		ldr	r5, [sp, #20]
 803 0008 069C     		ldr	r4, [sp, #24]
 500:Src/BLDC_controller.c ****   int32_T rtb_Sum1_o;
 804              		.loc 1 500 3 is_stmt 1 view .LVU211
 501:Src/BLDC_controller.c ****   int16_T rtb_DataTypeConversion1_gf;
 805              		.loc 1 501 3 view .LVU212
 502:Src/BLDC_controller.c **** 
 503:Src/BLDC_controller.c ****   /* Sum: '<S88>/Sum2' incorporates:
 504:Src/BLDC_controller.c ****    *  Product: '<S88>/Divide2'
 505:Src/BLDC_controller.c ****    *  UnitDelay: '<S88>/UnitDelay'
 506:Src/BLDC_controller.c ****    */
ARM GAS  /tmp/ccVzdWer.s 			page 24


 507:Src/BLDC_controller.c ****   rtb_Sum1_o = (rtu_err * rtu_I) >> 4;
 806              		.loc 1 507 3 view .LVU213
 807              		.loc 1 507 25 is_stmt 0 view .LVU214
 808 000a 01FB00F1 		mul	r1, r1, r0
 809              	.LVL63:
 508:Src/BLDC_controller.c ****   if ((rtb_Sum1_o < 0) && (localDW->UnitDelay_DSTATE < MIN_int32_T - rtb_Sum1_o))
 810              		.loc 1 508 3 is_stmt 1 view .LVU215
 811              		.loc 1 508 6 is_stmt 0 view .LVU216
 812 000e 0911     		asrs	r1, r1, #4
 813              	.LVL64:
 814              		.loc 1 508 6 view .LVU217
 815 0010 1AD4     		bmi	.L65
 816              	.LVL65:
 817              	.L56:
 509:Src/BLDC_controller.c ****   {
 510:Src/BLDC_controller.c ****     rtb_Sum1_o = MIN_int32_T;
 511:Src/BLDC_controller.c ****   } else if ((rtb_Sum1_o > 0) && (localDW->UnitDelay_DSTATE > MAX_int32_T
 818              		.loc 1 511 10 is_stmt 1 view .LVU218
 819              		.loc 1 511 13 is_stmt 0 view .LVU219
 820 0012 0029     		cmp	r1, #0
 821 0014 05DD     		ble	.L58
 822              		.loc 1 511 42 discriminator 1 view .LVU220
 823 0016 2668     		ldr	r6, [r4]
 512:Src/BLDC_controller.c ****               - rtb_Sum1_o)) {
 824              		.loc 1 512 15 discriminator 1 view .LVU221
 825 0018 6FF00040 		mvn	r0, #-2147483648
 826 001c 401A     		subs	r0, r0, r1
 511:Src/BLDC_controller.c ****               - rtb_Sum1_o)) {
 827              		.loc 1 511 31 discriminator 1 view .LVU222
 828 001e 8642     		cmp	r6, r0
 829 0020 1ADC     		bgt	.L63
 830              	.L58:
 513:Src/BLDC_controller.c ****     rtb_Sum1_o = MAX_int32_T;
 514:Src/BLDC_controller.c ****   } else {
 515:Src/BLDC_controller.c ****     rtb_Sum1_o += localDW->UnitDelay_DSTATE;
 831              		.loc 1 515 5 is_stmt 1 view .LVU223
 832              		.loc 1 515 26 is_stmt 0 view .LVU224
 833 0022 2068     		ldr	r0, [r4]
 834              		.loc 1 515 16 view .LVU225
 835 0024 0844     		add	r0, r0, r1
 836              	.LVL66:
 837              	.L57:
 516:Src/BLDC_controller.c ****   }
 517:Src/BLDC_controller.c **** 
 518:Src/BLDC_controller.c ****   /* End of Sum: '<S88>/Sum2' */
 519:Src/BLDC_controller.c **** 
 520:Src/BLDC_controller.c ****   /* Sum: '<S90>/Sum1' incorporates:
 521:Src/BLDC_controller.c ****    *  UnitDelay: '<S90>/UnitDelay'
 522:Src/BLDC_controller.c ****    */
 523:Src/BLDC_controller.c ****   rtb_Sum1_o += localDW->UnitDelay_DSTATE_m;
 838              		.loc 1 523 3 is_stmt 1 view .LVU226
 839              		.loc 1 523 24 is_stmt 0 view .LVU227
 840 0026 6168     		ldr	r1, [r4, #4]
 841              		.loc 1 523 14 view .LVU228
 842 0028 0144     		add	r1, r1, r0
 843              	.LVL67:
 524:Src/BLDC_controller.c **** 
ARM GAS  /tmp/ccVzdWer.s 			page 25


 525:Src/BLDC_controller.c ****   /* DataTypeConversion: '<S90>/Data Type Conversion1' */
 526:Src/BLDC_controller.c ****   rtb_DataTypeConversion1_gf = (int16_T)(rtb_Sum1_o >> 12);
 844              		.loc 1 526 3 is_stmt 1 view .LVU229
 845              		.loc 1 526 53 is_stmt 0 view .LVU230
 846 002a 0E13     		asrs	r6, r1, #12
 847              		.loc 1 526 30 view .LVU231
 848 002c 41F30F30 		sbfx	r0, r1, #12, #16
 849              	.LVL68:
 527:Src/BLDC_controller.c **** 
 528:Src/BLDC_controller.c ****   /* Switch: '<S91>/Switch2' incorporates:
 529:Src/BLDC_controller.c ****    *  RelationalOperator: '<S91>/LowerRelop1'
 530:Src/BLDC_controller.c ****    *  RelationalOperator: '<S91>/UpperRelop'
 531:Src/BLDC_controller.c ****    *  Switch: '<S91>/Switch'
 532:Src/BLDC_controller.c ****    */
 533:Src/BLDC_controller.c ****   if (rtb_DataTypeConversion1_gf > rtu_satMax) {
 850              		.loc 1 533 3 is_stmt 1 view .LVU232
 851              		.loc 1 533 6 is_stmt 0 view .LVU233
 852 0030 9842     		cmp	r0, r3
 853 0032 14DD     		ble	.L59
 534:Src/BLDC_controller.c ****     *rty_out = rtu_satMax;
 854              		.loc 1 534 5 is_stmt 1 view .LVU234
 855              		.loc 1 534 14 is_stmt 0 view .LVU235
 856 0034 2B80     		strh	r3, [r5]	@ movhi
 857              	.L60:
 535:Src/BLDC_controller.c ****   } else if (rtb_DataTypeConversion1_gf < rtu_satMin) {
 536:Src/BLDC_controller.c ****     /* Switch: '<S91>/Switch' */
 537:Src/BLDC_controller.c ****     *rty_out = rtu_satMin;
 538:Src/BLDC_controller.c ****   } else {
 539:Src/BLDC_controller.c ****     *rty_out = rtb_DataTypeConversion1_gf;
 540:Src/BLDC_controller.c ****   }
 541:Src/BLDC_controller.c **** 
 542:Src/BLDC_controller.c ****   /* End of Switch: '<S91>/Switch2' */
 543:Src/BLDC_controller.c **** 
 544:Src/BLDC_controller.c ****   /* Update for UnitDelay: '<S88>/UnitDelay' incorporates:
 545:Src/BLDC_controller.c ****    *  Product: '<S88>/Divide1'
 546:Src/BLDC_controller.c ****    *  Sum: '<S88>/Sum3'
 547:Src/BLDC_controller.c ****    */
 548:Src/BLDC_controller.c ****   localDW->UnitDelay_DSTATE = (int16_T)(*rty_out - rtb_DataTypeConversion1_gf) *
 858              		.loc 1 548 3 is_stmt 1 view .LVU236
 859              		.loc 1 548 41 is_stmt 0 view .LVU237
 860 0036 2B88     		ldrh	r3, [r5]
 861              	.LVL69:
 862              		.loc 1 548 50 view .LVU238
 863 0038 9B1B     		subs	r3, r3, r6
 864              		.loc 1 548 31 view .LVU239
 865 003a 1BB2     		sxth	r3, r3
 866              		.loc 1 548 80 view .LVU240
 867 003c 03FB02F2 		mul	r2, r3, r2
 868              	.LVL70:
 869              		.loc 1 548 29 view .LVU241
 870 0040 2260     		str	r2, [r4]
 549:Src/BLDC_controller.c ****     rtu_Kb;
 550:Src/BLDC_controller.c **** 
 551:Src/BLDC_controller.c ****   /* Update for UnitDelay: '<S90>/UnitDelay' */
 552:Src/BLDC_controller.c ****   localDW->UnitDelay_DSTATE_m = rtb_Sum1_o;
 871              		.loc 1 552 3 is_stmt 1 view .LVU242
 872              		.loc 1 552 31 is_stmt 0 view .LVU243
ARM GAS  /tmp/ccVzdWer.s 			page 26


 873 0042 6160     		str	r1, [r4, #4]
 553:Src/BLDC_controller.c **** }
 874              		.loc 1 553 1 view .LVU244
 875 0044 F0BC     		pop	{r4, r5, r6, r7}
 876              	.LCFI11:
 877              		.cfi_remember_state
 878              		.cfi_restore 7
 879              		.cfi_restore 6
 880              		.cfi_restore 5
 881              		.cfi_restore 4
 882              		.cfi_def_cfa_offset 0
 883              	.LVL71:
 884              		.loc 1 553 1 view .LVU245
 885 0046 7047     		bx	lr
 886              	.LVL72:
 887              	.L65:
 888              	.LCFI12:
 889              		.cfi_restore_state
 508:Src/BLDC_controller.c ****   {
 890              		.loc 1 508 35 discriminator 1 view .LVU246
 891 0048 2668     		ldr	r6, [r4]
 508:Src/BLDC_controller.c ****   {
 892              		.loc 1 508 68 discriminator 1 view .LVU247
 893 004a C1F10040 		rsb	r0, r1, #-2147483648
 894              	.LVL73:
 508:Src/BLDC_controller.c ****   {
 895              		.loc 1 508 24 discriminator 1 view .LVU248
 896 004e 8642     		cmp	r6, r0
 897 0050 DFDA     		bge	.L56
 510:Src/BLDC_controller.c ****   } else if ((rtb_Sum1_o > 0) && (localDW->UnitDelay_DSTATE > MAX_int32_T
 898              		.loc 1 510 16 view .LVU249
 899 0052 4FF00040 		mov	r0, #-2147483648
 900 0056 E6E7     		b	.L57
 901              	.L63:
 513:Src/BLDC_controller.c ****   } else {
 902              		.loc 1 513 16 view .LVU250
 903 0058 6FF00040 		mvn	r0, #-2147483648
 904 005c E3E7     		b	.L57
 905              	.LVL74:
 906              	.L59:
 535:Src/BLDC_controller.c ****     /* Switch: '<S91>/Switch' */
 907              		.loc 1 535 10 is_stmt 1 view .LVU251
 535:Src/BLDC_controller.c ****     /* Switch: '<S91>/Switch' */
 908              		.loc 1 535 13 is_stmt 0 view .LVU252
 909 005e B842     		cmp	r0, r7
 910 0060 01DA     		bge	.L61
 537:Src/BLDC_controller.c ****   } else {
 911              		.loc 1 537 5 is_stmt 1 view .LVU253
 537:Src/BLDC_controller.c ****   } else {
 912              		.loc 1 537 14 is_stmt 0 view .LVU254
 913 0062 2F80     		strh	r7, [r5]	@ movhi
 914 0064 E7E7     		b	.L60
 915              	.L61:
 539:Src/BLDC_controller.c ****   }
 916              		.loc 1 539 5 is_stmt 1 view .LVU255
 539:Src/BLDC_controller.c ****   }
 917              		.loc 1 539 14 is_stmt 0 view .LVU256
ARM GAS  /tmp/ccVzdWer.s 			page 27


 918 0066 2880     		strh	r0, [r5]	@ movhi
 919 0068 E5E7     		b	.L60
 920              		.cfi_endproc
 921              	.LFE14:
 923              		.section	.text.PI_clamp_fixdt_Init,"ax",%progbits
 924              		.align	1
 925              		.global	PI_clamp_fixdt_Init
 926              		.syntax unified
 927              		.thumb
 928              		.thumb_func
 929              		.fpu softvfp
 931              	PI_clamp_fixdt_Init:
 932              	.LVL75:
 933              	.LFB15:
 554:Src/BLDC_controller.c **** 
 555:Src/BLDC_controller.c **** /* System initialize for atomic system: '<S63>/PI_clamp_fixdt' */
 556:Src/BLDC_controller.c **** void PI_clamp_fixdt_Init(DW_PI_clamp_fixdt *localDW)
 557:Src/BLDC_controller.c **** {
 934              		.loc 1 557 1 is_stmt 1 view -0
 935              		.cfi_startproc
 936              		@ args = 0, pretend = 0, frame = 0
 937              		@ frame_needed = 0, uses_anonymous_args = 0
 938              		@ link register save eliminated.
 558:Src/BLDC_controller.c ****   /* InitializeConditions for Delay: '<S77>/Resettable Delay' */
 559:Src/BLDC_controller.c ****   localDW->icLoad = 1U;
 939              		.loc 1 559 3 view .LVU258
 940              		.loc 1 559 19 is_stmt 0 view .LVU259
 941 0000 0123     		movs	r3, #1
 942 0002 0371     		strb	r3, [r0, #4]
 560:Src/BLDC_controller.c **** }
 943              		.loc 1 560 1 view .LVU260
 944 0004 7047     		bx	lr
 945              		.cfi_endproc
 946              	.LFE15:
 948              		.section	.text.PI_clamp_fixdt_Reset,"ax",%progbits
 949              		.align	1
 950              		.global	PI_clamp_fixdt_Reset
 951              		.syntax unified
 952              		.thumb
 953              		.thumb_func
 954              		.fpu softvfp
 956              	PI_clamp_fixdt_Reset:
 957              	.LVL76:
 958              	.LFB16:
 561:Src/BLDC_controller.c **** 
 562:Src/BLDC_controller.c **** /* System reset for atomic system: '<S63>/PI_clamp_fixdt' */
 563:Src/BLDC_controller.c **** void PI_clamp_fixdt_Reset(DW_PI_clamp_fixdt *localDW)
 564:Src/BLDC_controller.c **** {
 959              		.loc 1 564 1 is_stmt 1 view -0
 960              		.cfi_startproc
 961              		@ args = 0, pretend = 0, frame = 0
 962              		@ frame_needed = 0, uses_anonymous_args = 0
 963              		@ link register save eliminated.
 565:Src/BLDC_controller.c ****   /* InitializeConditions for UnitDelay: '<S74>/UnitDelay1' */
 566:Src/BLDC_controller.c ****   localDW->UnitDelay1_DSTATE = false;
 964              		.loc 1 566 3 view .LVU262
 965              		.loc 1 566 30 is_stmt 0 view .LVU263
ARM GAS  /tmp/ccVzdWer.s 			page 28


 966 0000 0023     		movs	r3, #0
 967 0002 4371     		strb	r3, [r0, #5]
 567:Src/BLDC_controller.c **** 
 568:Src/BLDC_controller.c ****   /* InitializeConditions for Delay: '<S77>/Resettable Delay' */
 569:Src/BLDC_controller.c ****   localDW->icLoad = 1U;
 968              		.loc 1 569 3 is_stmt 1 view .LVU264
 969              		.loc 1 569 19 is_stmt 0 view .LVU265
 970 0004 0123     		movs	r3, #1
 971 0006 0371     		strb	r3, [r0, #4]
 570:Src/BLDC_controller.c **** }
 972              		.loc 1 570 1 view .LVU266
 973 0008 7047     		bx	lr
 974              		.cfi_endproc
 975              	.LFE16:
 977              		.section	.text.PI_clamp_fixdt,"ax",%progbits
 978              		.align	1
 979              		.global	PI_clamp_fixdt
 980              		.syntax unified
 981              		.thumb
 982              		.thumb_func
 983              		.fpu softvfp
 985              	PI_clamp_fixdt:
 986              	.LVL77:
 987              	.LFB17:
 571:Src/BLDC_controller.c **** 
 572:Src/BLDC_controller.c **** /* Output and update for atomic system: '<S63>/PI_clamp_fixdt' */
 573:Src/BLDC_controller.c **** void PI_clamp_fixdt(int16_T rtu_err, uint16_T rtu_P, uint16_T rtu_I, int32_T
 574:Src/BLDC_controller.c ****                     rtu_init, int16_T rtu_satMax, int16_T rtu_satMin, int32_T
 575:Src/BLDC_controller.c ****                     rtu_ext_limProt, int16_T *rty_out, DW_PI_clamp_fixdt
 576:Src/BLDC_controller.c ****                     *localDW)
 577:Src/BLDC_controller.c **** {
 988              		.loc 1 577 1 is_stmt 1 view -0
 989              		.cfi_startproc
 990              		@ args = 20, pretend = 0, frame = 0
 991              		@ frame_needed = 0, uses_anonymous_args = 0
 992              		.loc 1 577 1 is_stmt 0 view .LVU268
 993 0000 F0B5     		push	{r4, r5, r6, r7, lr}
 994              	.LCFI13:
 995              		.cfi_def_cfa_offset 20
 996              		.cfi_offset 4, -20
 997              		.cfi_offset 5, -16
 998              		.cfi_offset 6, -12
 999              		.cfi_offset 7, -8
 1000              		.cfi_offset 14, -4
 1001 0002 BDF91460 		ldrsh	r6, [sp, #20]
 1002 0006 BDF91870 		ldrsh	r7, [sp, #24]
 1003 000a 079C     		ldr	r4, [sp, #28]
 1004 000c 099D     		ldr	r5, [sp, #36]
 578:Src/BLDC_controller.c ****   boolean_T rtb_LowerRelop1_c0;
 1005              		.loc 1 578 3 is_stmt 1 view .LVU269
 579:Src/BLDC_controller.c ****   boolean_T rtb_UpperRelop_f;
 1006              		.loc 1 579 3 view .LVU270
 580:Src/BLDC_controller.c ****   int32_T rtb_Sum1_p0;
 1007              		.loc 1 580 3 view .LVU271
 581:Src/BLDC_controller.c ****   int32_T q0;
 1008              		.loc 1 581 3 view .LVU272
 582:Src/BLDC_controller.c ****   int32_T tmp;
ARM GAS  /tmp/ccVzdWer.s 			page 29


 1009              		.loc 1 582 3 view .LVU273
 583:Src/BLDC_controller.c ****   int16_T tmp_0;
 1010              		.loc 1 583 3 view .LVU274
 584:Src/BLDC_controller.c **** 
 585:Src/BLDC_controller.c ****   /* Sum: '<S74>/Sum2' incorporates:
 586:Src/BLDC_controller.c ****    *  Product: '<S74>/Divide2'
 587:Src/BLDC_controller.c ****    */
 588:Src/BLDC_controller.c ****   q0 = rtu_err * rtu_I;
 1011              		.loc 1 588 3 view .LVU275
 1012              		.loc 1 588 6 is_stmt 0 view .LVU276
 1013 000e 02FB00F2 		mul	r2, r2, r0
 1014              	.LVL78:
 589:Src/BLDC_controller.c ****   if ((q0 < 0) && (rtu_ext_limProt < MIN_int32_T - q0)) {
 1015              		.loc 1 589 3 is_stmt 1 view .LVU277
 1016              		.loc 1 589 6 is_stmt 0 view .LVU278
 1017 0012 002A     		cmp	r2, #0
 1018 0014 1DDB     		blt	.L95
 1019              	.L69:
 590:Src/BLDC_controller.c ****     q0 = MIN_int32_T;
 591:Src/BLDC_controller.c ****   } else if ((q0 > 0) && (rtu_ext_limProt > MAX_int32_T - q0)) {
 1020              		.loc 1 591 10 is_stmt 1 view .LVU279
 1021              		.loc 1 591 13 is_stmt 0 view .LVU280
 1022 0016 002A     		cmp	r2, #0
 1023 0018 05DD     		ble	.L71
 1024              		.loc 1 591 57 discriminator 1 view .LVU281
 1025 001a 6FF0004E 		mvn	lr, #-2147483648
 1026 001e AEEB020E 		sub	lr, lr, r2
 1027              		.loc 1 591 23 discriminator 1 view .LVU282
 1028 0022 A645     		cmp	lr, r4
 1029 0024 1CDB     		blt	.L83
 1030              	.L71:
 592:Src/BLDC_controller.c ****     q0 = MAX_int32_T;
 593:Src/BLDC_controller.c ****   } else {
 594:Src/BLDC_controller.c ****     q0 += rtu_ext_limProt;
 1031              		.loc 1 594 5 is_stmt 1 view .LVU283
 1032              		.loc 1 594 8 is_stmt 0 view .LVU284
 1033 0026 2244     		add	r2, r2, r4
 1034              	.LVL79:
 1035              	.L70:
 595:Src/BLDC_controller.c ****   }
 596:Src/BLDC_controller.c **** 
 597:Src/BLDC_controller.c ****   /* Delay: '<S77>/Resettable Delay' */
 598:Src/BLDC_controller.c ****   if (localDW->icLoad != 0) {
 1036              		.loc 1 598 3 is_stmt 1 view .LVU285
 1037              		.loc 1 598 14 is_stmt 0 view .LVU286
 1038 0028 2C79     		ldrb	r4, [r5, #4]	@ zero_extendqisi2
 1039              		.loc 1 598 6 view .LVU287
 1040 002a 04B1     		cbz	r4, .L72
 599:Src/BLDC_controller.c ****     localDW->ResettableDelay_DSTATE = rtu_init;
 1041              		.loc 1 599 5 is_stmt 1 view .LVU288
 1042              		.loc 1 599 37 is_stmt 0 view .LVU289
 1043 002c 2B60     		str	r3, [r5]
 1044              	.L72:
 600:Src/BLDC_controller.c ****   }
 601:Src/BLDC_controller.c **** 
 602:Src/BLDC_controller.c ****   /* Switch: '<S74>/Switch1' incorporates:
 603:Src/BLDC_controller.c ****    *  Constant: '<S74>/Constant'
ARM GAS  /tmp/ccVzdWer.s 			page 30


 604:Src/BLDC_controller.c ****    *  Sum: '<S74>/Sum2'
 605:Src/BLDC_controller.c ****    *  UnitDelay: '<S74>/UnitDelay1'
 606:Src/BLDC_controller.c ****    */
 607:Src/BLDC_controller.c ****   if (localDW->UnitDelay1_DSTATE) {
 1045              		.loc 1 607 3 is_stmt 1 view .LVU290
 1046              		.loc 1 607 14 is_stmt 0 view .LVU291
 1047 002e 6B79     		ldrb	r3, [r5, #5]	@ zero_extendqisi2
 1048              	.LVL80:
 1049              		.loc 1 607 6 view .LVU292
 1050 0030 CBB1     		cbz	r3, .L84
 608:Src/BLDC_controller.c ****     tmp = 0;
 1051              		.loc 1 608 9 view .LVU293
 1052 0032 4FF0000C 		mov	ip, #0
 1053              	.L73:
 1054              	.LVL81:
 609:Src/BLDC_controller.c ****   } else {
 610:Src/BLDC_controller.c ****     tmp = q0;
 611:Src/BLDC_controller.c ****   }
 612:Src/BLDC_controller.c **** 
 613:Src/BLDC_controller.c ****   /* End of Switch: '<S74>/Switch1' */
 614:Src/BLDC_controller.c **** 
 615:Src/BLDC_controller.c ****   /* Sum: '<S77>/Sum1' incorporates:
 616:Src/BLDC_controller.c ****    *  Delay: '<S77>/Resettable Delay'
 617:Src/BLDC_controller.c ****    */
 618:Src/BLDC_controller.c ****   rtb_Sum1_p0 = tmp + localDW->ResettableDelay_DSTATE;
 1055              		.loc 1 618 3 is_stmt 1 view .LVU294
 1056              		.loc 1 618 30 is_stmt 0 view .LVU295
 1057 0036 2B68     		ldr	r3, [r5]
 1058              		.loc 1 618 15 view .LVU296
 1059 0038 03EB0C04 		add	r4, r3, ip
 1060              	.LVL82:
 619:Src/BLDC_controller.c **** 
 620:Src/BLDC_controller.c ****   /* Product: '<S74>/Divide5' */
 621:Src/BLDC_controller.c ****   tmp = (rtu_err * rtu_P) >> 11;
 1061              		.loc 1 621 3 is_stmt 1 view .LVU297
 1062              		.loc 1 621 18 is_stmt 0 view .LVU298
 1063 003c 00FB01F1 		mul	r1, r0, r1
 1064              	.LVL83:
 1065              		.loc 1 621 7 view .LVU299
 1066 0040 CB12     		asrs	r3, r1, #11
 1067              	.LVL84:
 622:Src/BLDC_controller.c ****   if (tmp > 32767) {
 1068              		.loc 1 622 3 is_stmt 1 view .LVU300
 1069              		.loc 1 622 6 is_stmt 0 view .LVU301
 1070 0042 B1F1806F 		cmp	r1, #67108864
 1071 0046 10DA     		bge	.L85
 623:Src/BLDC_controller.c ****     tmp = 32767;
 624:Src/BLDC_controller.c ****   } else {
 625:Src/BLDC_controller.c ****     if (tmp < -32768) {
 1072              		.loc 1 625 5 is_stmt 1 view .LVU302
 1073              		.loc 1 625 8 is_stmt 0 view .LVU303
 1074 0048 13F5004F 		cmn	r3, #32768
 1075 004c 0FDA     		bge	.L74
 626:Src/BLDC_controller.c ****       tmp = -32768;
 1076              		.loc 1 626 11 view .LVU304
 1077 004e 274B     		ldr	r3, .L97
 1078              	.LVL85:
ARM GAS  /tmp/ccVzdWer.s 			page 31


 1079              		.loc 1 626 11 view .LVU305
 1080 0050 0DE0     		b	.L74
 1081              	.LVL86:
 1082              	.L95:
 589:Src/BLDC_controller.c ****     q0 = MIN_int32_T;
 1083              		.loc 1 589 50 discriminator 1 view .LVU306
 1084 0052 C2F1004E 		rsb	lr, r2, #-2147483648
 589:Src/BLDC_controller.c ****     q0 = MIN_int32_T;
 1085              		.loc 1 589 16 discriminator 1 view .LVU307
 1086 0056 A645     		cmp	lr, r4
 1087 0058 DDDD     		ble	.L69
 590:Src/BLDC_controller.c ****   } else if ((q0 > 0) && (rtu_ext_limProt > MAX_int32_T - q0)) {
 1088              		.loc 1 590 8 view .LVU308
 1089 005a 4FF00042 		mov	r2, #-2147483648
 1090              	.LVL87:
 590:Src/BLDC_controller.c ****   } else if ((q0 > 0) && (rtu_ext_limProt > MAX_int32_T - q0)) {
 1091              		.loc 1 590 8 view .LVU309
 1092 005e E3E7     		b	.L70
 1093              	.LVL88:
 1094              	.L83:
 592:Src/BLDC_controller.c ****   } else {
 1095              		.loc 1 592 8 view .LVU310
 1096 0060 6FF00042 		mvn	r2, #-2147483648
 1097              	.LVL89:
 592:Src/BLDC_controller.c ****   } else {
 1098              		.loc 1 592 8 view .LVU311
 1099 0064 E0E7     		b	.L70
 1100              	.LVL90:
 1101              	.L84:
 610:Src/BLDC_controller.c ****   }
 1102              		.loc 1 610 9 view .LVU312
 1103 0066 9446     		mov	ip, r2
 1104 0068 E5E7     		b	.L73
 1105              	.LVL91:
 1106              	.L85:
 623:Src/BLDC_controller.c ****   } else {
 1107              		.loc 1 623 9 view .LVU313
 1108 006a 47F6FF73 		movw	r3, #32767
 1109              	.LVL92:
 1110              	.L74:
 627:Src/BLDC_controller.c ****     }
 628:Src/BLDC_controller.c ****   }
 629:Src/BLDC_controller.c **** 
 630:Src/BLDC_controller.c ****   /* Sum: '<S74>/Sum1' incorporates:
 631:Src/BLDC_controller.c ****    *  DataTypeConversion: '<S77>/Data Type Conversion1'
 632:Src/BLDC_controller.c ****    *  Product: '<S74>/Divide5'
 633:Src/BLDC_controller.c ****    */
 634:Src/BLDC_controller.c ****   tmp = (((rtb_Sum1_p0 >> 16) << 1) + tmp) >> 1;
 1111              		.loc 1 634 3 is_stmt 1 view .LVU314
 1112              		.loc 1 634 24 is_stmt 0 view .LVU315
 1113 006e 2114     		asrs	r1, r4, #16
 1114              		.loc 1 634 37 view .LVU316
 1115 0070 03EB4101 		add	r1, r3, r1, lsl #1
 1116              		.loc 1 634 7 view .LVU317
 1117 0074 4B10     		asrs	r3, r1, #1
 1118              	.LVL93:
 635:Src/BLDC_controller.c ****   if (tmp > 32767) {
ARM GAS  /tmp/ccVzdWer.s 			page 32


 1119              		.loc 1 635 3 is_stmt 1 view .LVU318
 1120              		.loc 1 635 6 is_stmt 0 view .LVU319
 1121 0076 B1F5803F 		cmp	r1, #65536
 1122 007a 04DA     		bge	.L87
 636:Src/BLDC_controller.c ****     tmp = 32767;
 637:Src/BLDC_controller.c ****   } else {
 638:Src/BLDC_controller.c ****     if (tmp < -32768) {
 1123              		.loc 1 638 5 is_stmt 1 view .LVU320
 1124              		.loc 1 638 8 is_stmt 0 view .LVU321
 1125 007c 13F5004F 		cmn	r3, #32768
 1126 0080 03DA     		bge	.L75
 639:Src/BLDC_controller.c ****       tmp = -32768;
 1127              		.loc 1 639 11 view .LVU322
 1128 0082 1A4B     		ldr	r3, .L97
 1129              	.LVL94:
 1130              		.loc 1 639 11 view .LVU323
 1131 0084 01E0     		b	.L75
 1132              	.LVL95:
 1133              	.L87:
 636:Src/BLDC_controller.c ****     tmp = 32767;
 1134              		.loc 1 636 9 view .LVU324
 1135 0086 47F6FF73 		movw	r3, #32767
 1136              	.LVL96:
 1137              	.L75:
 640:Src/BLDC_controller.c ****     }
 641:Src/BLDC_controller.c ****   }
 642:Src/BLDC_controller.c **** 
 643:Src/BLDC_controller.c ****   /* RelationalOperator: '<S78>/LowerRelop1' incorporates:
 644:Src/BLDC_controller.c ****    *  Sum: '<S74>/Sum1'
 645:Src/BLDC_controller.c ****    */
 646:Src/BLDC_controller.c ****   rtb_LowerRelop1_c0 = ((int16_T)tmp > rtu_satMax);
 1138              		.loc 1 646 3 is_stmt 1 view .LVU325
 1139              		.loc 1 646 25 is_stmt 0 view .LVU326
 1140 008a 1BB2     		sxth	r3, r3
 1141              	.LVL97:
 647:Src/BLDC_controller.c **** 
 648:Src/BLDC_controller.c ****   /* RelationalOperator: '<S78>/UpperRelop' incorporates:
 649:Src/BLDC_controller.c ****    *  Sum: '<S74>/Sum1'
 650:Src/BLDC_controller.c ****    */
 651:Src/BLDC_controller.c ****   rtb_UpperRelop_f = ((int16_T)tmp < rtu_satMin);
 1142              		.loc 1 651 3 is_stmt 1 view .LVU327
 652:Src/BLDC_controller.c **** 
 653:Src/BLDC_controller.c ****   /* Switch: '<S78>/Switch1' incorporates:
 654:Src/BLDC_controller.c ****    *  Sum: '<S74>/Sum1'
 655:Src/BLDC_controller.c ****    *  Switch: '<S78>/Switch3'
 656:Src/BLDC_controller.c ****    */
 657:Src/BLDC_controller.c ****   if (rtb_LowerRelop1_c0) {
 1143              		.loc 1 657 3 view .LVU328
 1144              		.loc 1 657 6 is_stmt 0 view .LVU329
 1145 008c B342     		cmp	r3, r6
 1146 008e 15DD     		ble	.L76
 658:Src/BLDC_controller.c ****     *rty_out = rtu_satMax;
 1147              		.loc 1 658 5 is_stmt 1 view .LVU330
 1148              		.loc 1 658 14 is_stmt 0 view .LVU331
 1149 0090 0899     		ldr	r1, [sp, #32]
 1150 0092 0E80     		strh	r6, [r1]	@ movhi
 1151              	.L77:
ARM GAS  /tmp/ccVzdWer.s 			page 33


 659:Src/BLDC_controller.c ****   } else if (rtb_UpperRelop_f) {
 660:Src/BLDC_controller.c ****     /* Switch: '<S78>/Switch3' */
 661:Src/BLDC_controller.c ****     *rty_out = rtu_satMin;
 662:Src/BLDC_controller.c ****   } else {
 663:Src/BLDC_controller.c ****     *rty_out = (int16_T)tmp;
 664:Src/BLDC_controller.c ****   }
 665:Src/BLDC_controller.c **** 
 666:Src/BLDC_controller.c ****   /* End of Switch: '<S78>/Switch1' */
 667:Src/BLDC_controller.c **** 
 668:Src/BLDC_controller.c ****   /* Signum: '<S76>/SignDeltaU2' incorporates:
 669:Src/BLDC_controller.c ****    *  Sum: '<S74>/Sum2'
 670:Src/BLDC_controller.c ****    */
 671:Src/BLDC_controller.c ****   if (q0 < 0) {
 1152              		.loc 1 671 3 is_stmt 1 view .LVU332
 1153              		.loc 1 671 6 is_stmt 0 view .LVU333
 1154 0094 002A     		cmp	r2, #0
 1155 0096 19DB     		blt	.L89
 672:Src/BLDC_controller.c ****     q0 = -1;
 673:Src/BLDC_controller.c ****   } else {
 674:Src/BLDC_controller.c ****     q0 = (q0 > 0);
 1156              		.loc 1 674 5 is_stmt 1 view .LVU334
 1157              		.loc 1 674 14 is_stmt 0 view .LVU335
 1158 0098 002A     		cmp	r2, #0
 1159 009a D4BF     		ite	le
 1160 009c 0022     		movle	r2, #0
 1161              	.LVL98:
 1162              		.loc 1 674 14 view .LVU336
 1163 009e 0122     		movgt	r2, #1
 1164              	.LVL99:
 1165              	.L79:
 675:Src/BLDC_controller.c ****   }
 676:Src/BLDC_controller.c **** 
 677:Src/BLDC_controller.c ****   /* End of Signum: '<S76>/SignDeltaU2' */
 678:Src/BLDC_controller.c **** 
 679:Src/BLDC_controller.c ****   /* Signum: '<S76>/SignDeltaU3' incorporates:
 680:Src/BLDC_controller.c ****    *  Sum: '<S74>/Sum1'
 681:Src/BLDC_controller.c ****    */
 682:Src/BLDC_controller.c ****   if ((int16_T)tmp < 0) {
 1166              		.loc 1 682 3 is_stmt 1 view .LVU337
 1167              		.loc 1 682 6 is_stmt 0 view .LVU338
 1168 00a0 002B     		cmp	r3, #0
 1169 00a2 16DB     		blt	.L90
 683:Src/BLDC_controller.c ****     tmp_0 = -1;
 684:Src/BLDC_controller.c ****   } else {
 685:Src/BLDC_controller.c ****     tmp_0 = (int16_T)((int16_T)tmp > 0);
 1170              		.loc 1 685 5 is_stmt 1 view .LVU339
 1171              		.loc 1 685 11 is_stmt 0 view .LVU340
 1172 00a4 002B     		cmp	r3, #0
 1173 00a6 D4BF     		ite	le
 1174 00a8 0021     		movle	r1, #0
 1175 00aa 0121     		movgt	r1, #1
 1176              	.LVL100:
 1177              	.L80:
 686:Src/BLDC_controller.c ****   }
 687:Src/BLDC_controller.c **** 
 688:Src/BLDC_controller.c ****   /* End of Signum: '<S76>/SignDeltaU3' */
 689:Src/BLDC_controller.c **** 
ARM GAS  /tmp/ccVzdWer.s 			page 34


 690:Src/BLDC_controller.c ****   /* Update for UnitDelay: '<S74>/UnitDelay1' incorporates:
 691:Src/BLDC_controller.c ****    *  DataTypeConversion: '<S76>/DataTypeConv4'
 692:Src/BLDC_controller.c ****    *  Logic: '<S74>/AND1'
 693:Src/BLDC_controller.c ****    *  Logic: '<S76>/AND1'
 694:Src/BLDC_controller.c ****    *  RelationalOperator: '<S76>/Equal1'
 695:Src/BLDC_controller.c ****    */
 696:Src/BLDC_controller.c ****   localDW->UnitDelay1_DSTATE = ((q0 == tmp_0) && (rtb_LowerRelop1_c0 ||
 1178              		.loc 1 696 3 is_stmt 1 view .LVU341
 1179              		.loc 1 696 47 is_stmt 0 view .LVU342
 1180 00ac 9142     		cmp	r1, r2
 1181 00ae 13D0     		beq	.L96
 1182 00b0 0023     		movs	r3, #0
 1183              	.LVL101:
 1184              	.L81:
 1185              		.loc 1 696 30 discriminator 8 view .LVU343
 1186 00b2 6B71     		strb	r3, [r5, #5]
 697:Src/BLDC_controller.c ****     rtb_UpperRelop_f));
 698:Src/BLDC_controller.c **** 
 699:Src/BLDC_controller.c ****   /* Update for Delay: '<S77>/Resettable Delay' */
 700:Src/BLDC_controller.c ****   localDW->icLoad = 0U;
 1187              		.loc 1 700 3 is_stmt 1 discriminator 8 view .LVU344
 1188              		.loc 1 700 19 is_stmt 0 discriminator 8 view .LVU345
 1189 00b4 0023     		movs	r3, #0
 1190 00b6 2B71     		strb	r3, [r5, #4]
 701:Src/BLDC_controller.c ****   localDW->ResettableDelay_DSTATE = rtb_Sum1_p0;
 1191              		.loc 1 701 3 is_stmt 1 discriminator 8 view .LVU346
 1192              		.loc 1 701 35 is_stmt 0 discriminator 8 view .LVU347
 1193 00b8 2C60     		str	r4, [r5]
 702:Src/BLDC_controller.c **** }
 1194              		.loc 1 702 1 discriminator 8 view .LVU348
 1195 00ba F0BD     		pop	{r4, r5, r6, r7, pc}
 1196              	.LVL102:
 1197              	.L76:
 659:Src/BLDC_controller.c ****     /* Switch: '<S78>/Switch3' */
 1198              		.loc 1 659 10 is_stmt 1 view .LVU349
 659:Src/BLDC_controller.c ****     /* Switch: '<S78>/Switch3' */
 1199              		.loc 1 659 13 is_stmt 0 view .LVU350
 1200 00bc BB42     		cmp	r3, r7
 1201 00be 02DA     		bge	.L78
 661:Src/BLDC_controller.c ****   } else {
 1202              		.loc 1 661 5 is_stmt 1 view .LVU351
 661:Src/BLDC_controller.c ****   } else {
 1203              		.loc 1 661 14 is_stmt 0 view .LVU352
 1204 00c0 0899     		ldr	r1, [sp, #32]
 1205 00c2 0F80     		strh	r7, [r1]	@ movhi
 1206 00c4 E6E7     		b	.L77
 1207              	.L78:
 663:Src/BLDC_controller.c ****   }
 1208              		.loc 1 663 5 is_stmt 1 view .LVU353
 663:Src/BLDC_controller.c ****   }
 1209              		.loc 1 663 14 is_stmt 0 view .LVU354
 1210 00c6 0899     		ldr	r1, [sp, #32]
 1211 00c8 0B80     		strh	r3, [r1]	@ movhi
 1212 00ca E3E7     		b	.L77
 1213              	.L89:
 672:Src/BLDC_controller.c ****   } else {
 1214              		.loc 1 672 8 view .LVU355
ARM GAS  /tmp/ccVzdWer.s 			page 35


 1215 00cc 4FF0FF32 		mov	r2, #-1
 1216              	.LVL103:
 672:Src/BLDC_controller.c ****   } else {
 1217              		.loc 1 672 8 view .LVU356
 1218 00d0 E6E7     		b	.L79
 1219              	.LVL104:
 1220              	.L90:
 683:Src/BLDC_controller.c ****   } else {
 1221              		.loc 1 683 11 view .LVU357
 1222 00d2 4FF0FF31 		mov	r1, #-1
 1223 00d6 E9E7     		b	.L80
 1224              	.LVL105:
 1225              	.L96:
 696:Src/BLDC_controller.c ****     rtb_UpperRelop_f));
 1226              		.loc 1 696 47 discriminator 1 view .LVU358
 1227 00d8 B342     		cmp	r3, r6
 1228 00da 03DC     		bgt	.L92
 696:Src/BLDC_controller.c ****     rtb_UpperRelop_f));
 1229              		.loc 1 696 70 discriminator 4 view .LVU359
 1230 00dc BB42     		cmp	r3, r7
 1231 00de 03DB     		blt	.L93
 696:Src/BLDC_controller.c ****     rtb_UpperRelop_f));
 1232              		.loc 1 696 47 view .LVU360
 1233 00e0 0023     		movs	r3, #0
 1234              	.LVL106:
 696:Src/BLDC_controller.c ****     rtb_UpperRelop_f));
 1235              		.loc 1 696 47 view .LVU361
 1236 00e2 E6E7     		b	.L81
 1237              	.LVL107:
 1238              	.L92:
 696:Src/BLDC_controller.c ****     rtb_UpperRelop_f));
 1239              		.loc 1 696 47 view .LVU362
 1240 00e4 0123     		movs	r3, #1
 1241              	.LVL108:
 696:Src/BLDC_controller.c ****     rtb_UpperRelop_f));
 1242              		.loc 1 696 47 view .LVU363
 1243 00e6 E4E7     		b	.L81
 1244              	.LVL109:
 1245              	.L93:
 696:Src/BLDC_controller.c ****     rtb_UpperRelop_f));
 1246              		.loc 1 696 47 view .LVU364
 1247 00e8 0123     		movs	r3, #1
 1248              	.LVL110:
 696:Src/BLDC_controller.c ****     rtb_UpperRelop_f));
 1249              		.loc 1 696 47 view .LVU365
 1250 00ea E2E7     		b	.L81
 1251              	.L98:
 1252              		.align	2
 1253              	.L97:
 1254 00ec 0080FFFF 		.word	-32768
 1255              		.cfi_endproc
 1256              	.LFE17:
 1258              		.section	.text.PI_clamp_fixdt_d_Init,"ax",%progbits
 1259              		.align	1
 1260              		.global	PI_clamp_fixdt_d_Init
 1261              		.syntax unified
 1262              		.thumb
ARM GAS  /tmp/ccVzdWer.s 			page 36


 1263              		.thumb_func
 1264              		.fpu softvfp
 1266              	PI_clamp_fixdt_d_Init:
 1267              	.LVL111:
 1268              	.LFB18:
 703:Src/BLDC_controller.c **** 
 704:Src/BLDC_controller.c **** /* System initialize for atomic system: '<S61>/PI_clamp_fixdt' */
 705:Src/BLDC_controller.c **** void PI_clamp_fixdt_d_Init(DW_PI_clamp_fixdt_m *localDW)
 706:Src/BLDC_controller.c **** {
 1269              		.loc 1 706 1 is_stmt 1 view -0
 1270              		.cfi_startproc
 1271              		@ args = 0, pretend = 0, frame = 0
 1272              		@ frame_needed = 0, uses_anonymous_args = 0
 1273              		@ link register save eliminated.
 707:Src/BLDC_controller.c ****   /* InitializeConditions for Delay: '<S67>/Resettable Delay' */
 708:Src/BLDC_controller.c ****   localDW->icLoad = 1U;
 1274              		.loc 1 708 3 view .LVU367
 1275              		.loc 1 708 19 is_stmt 0 view .LVU368
 1276 0000 0123     		movs	r3, #1
 1277 0002 0371     		strb	r3, [r0, #4]
 709:Src/BLDC_controller.c **** }
 1278              		.loc 1 709 1 view .LVU369
 1279 0004 7047     		bx	lr
 1280              		.cfi_endproc
 1281              	.LFE18:
 1283              		.section	.text.PI_clamp_fixdt_b_Reset,"ax",%progbits
 1284              		.align	1
 1285              		.global	PI_clamp_fixdt_b_Reset
 1286              		.syntax unified
 1287              		.thumb
 1288              		.thumb_func
 1289              		.fpu softvfp
 1291              	PI_clamp_fixdt_b_Reset:
 1292              	.LVL112:
 1293              	.LFB19:
 710:Src/BLDC_controller.c **** 
 711:Src/BLDC_controller.c **** /* System reset for atomic system: '<S61>/PI_clamp_fixdt' */
 712:Src/BLDC_controller.c **** void PI_clamp_fixdt_b_Reset(DW_PI_clamp_fixdt_m *localDW)
 713:Src/BLDC_controller.c **** {
 1294              		.loc 1 713 1 is_stmt 1 view -0
 1295              		.cfi_startproc
 1296              		@ args = 0, pretend = 0, frame = 0
 1297              		@ frame_needed = 0, uses_anonymous_args = 0
 1298              		@ link register save eliminated.
 714:Src/BLDC_controller.c ****   /* InitializeConditions for UnitDelay: '<S65>/UnitDelay1' */
 715:Src/BLDC_controller.c ****   localDW->UnitDelay1_DSTATE = false;
 1299              		.loc 1 715 3 view .LVU371
 1300              		.loc 1 715 30 is_stmt 0 view .LVU372
 1301 0000 0023     		movs	r3, #0
 1302 0002 4371     		strb	r3, [r0, #5]
 716:Src/BLDC_controller.c **** 
 717:Src/BLDC_controller.c ****   /* InitializeConditions for Delay: '<S67>/Resettable Delay' */
 718:Src/BLDC_controller.c ****   localDW->icLoad = 1U;
 1303              		.loc 1 718 3 is_stmt 1 view .LVU373
 1304              		.loc 1 718 19 is_stmt 0 view .LVU374
 1305 0004 0123     		movs	r3, #1
 1306 0006 0371     		strb	r3, [r0, #4]
ARM GAS  /tmp/ccVzdWer.s 			page 37


 719:Src/BLDC_controller.c **** }
 1307              		.loc 1 719 1 view .LVU375
 1308 0008 7047     		bx	lr
 1309              		.cfi_endproc
 1310              	.LFE19:
 1312              		.section	.text.PI_clamp_fixdt_l,"ax",%progbits
 1313              		.align	1
 1314              		.global	PI_clamp_fixdt_l
 1315              		.syntax unified
 1316              		.thumb
 1317              		.thumb_func
 1318              		.fpu softvfp
 1320              	PI_clamp_fixdt_l:
 1321              	.LVL113:
 1322              	.LFB20:
 720:Src/BLDC_controller.c **** 
 721:Src/BLDC_controller.c **** /* Output and update for atomic system: '<S61>/PI_clamp_fixdt' */
 722:Src/BLDC_controller.c **** void PI_clamp_fixdt_l(int16_T rtu_err, uint16_T rtu_P, uint16_T rtu_I, int16_T
 723:Src/BLDC_controller.c ****                       rtu_init, int16_T rtu_satMax, int16_T rtu_satMin, int32_T
 724:Src/BLDC_controller.c ****                       rtu_ext_limProt, int16_T *rty_out, DW_PI_clamp_fixdt_m
 725:Src/BLDC_controller.c ****                       *localDW)
 726:Src/BLDC_controller.c **** {
 1323              		.loc 1 726 1 is_stmt 1 view -0
 1324              		.cfi_startproc
 1325              		@ args = 20, pretend = 0, frame = 0
 1326              		@ frame_needed = 0, uses_anonymous_args = 0
 1327              		.loc 1 726 1 is_stmt 0 view .LVU377
 1328 0000 F0B5     		push	{r4, r5, r6, r7, lr}
 1329              	.LCFI14:
 1330              		.cfi_def_cfa_offset 20
 1331              		.cfi_offset 4, -20
 1332              		.cfi_offset 5, -16
 1333              		.cfi_offset 6, -12
 1334              		.cfi_offset 7, -8
 1335              		.cfi_offset 14, -4
 1336 0002 BDF91460 		ldrsh	r6, [sp, #20]
 1337 0006 BDF91870 		ldrsh	r7, [sp, #24]
 1338 000a 079C     		ldr	r4, [sp, #28]
 1339 000c 099D     		ldr	r5, [sp, #36]
 727:Src/BLDC_controller.c ****   boolean_T rtb_LowerRelop1_l;
 1340              		.loc 1 727 3 is_stmt 1 view .LVU378
 728:Src/BLDC_controller.c ****   boolean_T rtb_UpperRelop_l;
 1341              		.loc 1 728 3 view .LVU379
 729:Src/BLDC_controller.c ****   int32_T rtb_Sum1_ni;
 1342              		.loc 1 729 3 view .LVU380
 730:Src/BLDC_controller.c ****   int32_T q0;
 1343              		.loc 1 730 3 view .LVU381
 731:Src/BLDC_controller.c ****   int32_T tmp;
 1344              		.loc 1 731 3 view .LVU382
 732:Src/BLDC_controller.c ****   int16_T tmp_0;
 1345              		.loc 1 732 3 view .LVU383
 733:Src/BLDC_controller.c **** 
 734:Src/BLDC_controller.c ****   /* Sum: '<S65>/Sum2' incorporates:
 735:Src/BLDC_controller.c ****    *  Product: '<S65>/Divide2'
 736:Src/BLDC_controller.c ****    */
 737:Src/BLDC_controller.c ****   q0 = rtu_err * rtu_I;
 1346              		.loc 1 737 3 view .LVU384
ARM GAS  /tmp/ccVzdWer.s 			page 38


 1347              		.loc 1 737 6 is_stmt 0 view .LVU385
 1348 000e 02FB00F2 		mul	r2, r2, r0
 1349              	.LVL114:
 738:Src/BLDC_controller.c ****   if ((q0 < 0) && (rtu_ext_limProt < MIN_int32_T - q0)) {
 1350              		.loc 1 738 3 is_stmt 1 view .LVU386
 1351              		.loc 1 738 6 is_stmt 0 view .LVU387
 1352 0012 002A     		cmp	r2, #0
 1353 0014 1EDB     		blt	.L128
 1354              	.L102:
 739:Src/BLDC_controller.c ****     q0 = MIN_int32_T;
 740:Src/BLDC_controller.c ****   } else if ((q0 > 0) && (rtu_ext_limProt > MAX_int32_T - q0)) {
 1355              		.loc 1 740 10 is_stmt 1 view .LVU388
 1356              		.loc 1 740 13 is_stmt 0 view .LVU389
 1357 0016 002A     		cmp	r2, #0
 1358 0018 05DD     		ble	.L104
 1359              		.loc 1 740 57 discriminator 1 view .LVU390
 1360 001a 6FF0004E 		mvn	lr, #-2147483648
 1361 001e AEEB020E 		sub	lr, lr, r2
 1362              		.loc 1 740 23 discriminator 1 view .LVU391
 1363 0022 A645     		cmp	lr, r4
 1364 0024 1DDB     		blt	.L116
 1365              	.L104:
 741:Src/BLDC_controller.c ****     q0 = MAX_int32_T;
 742:Src/BLDC_controller.c ****   } else {
 743:Src/BLDC_controller.c ****     q0 += rtu_ext_limProt;
 1366              		.loc 1 743 5 is_stmt 1 view .LVU392
 1367              		.loc 1 743 8 is_stmt 0 view .LVU393
 1368 0026 2244     		add	r2, r2, r4
 1369              	.LVL115:
 1370              	.L103:
 744:Src/BLDC_controller.c ****   }
 745:Src/BLDC_controller.c **** 
 746:Src/BLDC_controller.c ****   /* Delay: '<S67>/Resettable Delay' */
 747:Src/BLDC_controller.c ****   if (localDW->icLoad != 0) {
 1371              		.loc 1 747 3 is_stmt 1 view .LVU394
 1372              		.loc 1 747 14 is_stmt 0 view .LVU395
 1373 0028 2C79     		ldrb	r4, [r5, #4]	@ zero_extendqisi2
 1374              		.loc 1 747 6 view .LVU396
 1375 002a 0CB1     		cbz	r4, .L105
 748:Src/BLDC_controller.c ****     localDW->ResettableDelay_DSTATE = rtu_init << 16;
 1376              		.loc 1 748 5 is_stmt 1 view .LVU397
 1377              		.loc 1 748 48 is_stmt 0 view .LVU398
 1378 002c 1B04     		lsls	r3, r3, #16
 1379              	.LVL116:
 1380              		.loc 1 748 37 view .LVU399
 1381 002e 2B60     		str	r3, [r5]
 1382              	.L105:
 749:Src/BLDC_controller.c ****   }
 750:Src/BLDC_controller.c **** 
 751:Src/BLDC_controller.c ****   /* Switch: '<S65>/Switch1' incorporates:
 752:Src/BLDC_controller.c ****    *  Constant: '<S65>/Constant'
 753:Src/BLDC_controller.c ****    *  Sum: '<S65>/Sum2'
 754:Src/BLDC_controller.c ****    *  UnitDelay: '<S65>/UnitDelay1'
 755:Src/BLDC_controller.c ****    */
 756:Src/BLDC_controller.c ****   if (localDW->UnitDelay1_DSTATE) {
 1383              		.loc 1 756 3 is_stmt 1 view .LVU400
 1384              		.loc 1 756 14 is_stmt 0 view .LVU401
ARM GAS  /tmp/ccVzdWer.s 			page 39


 1385 0030 6B79     		ldrb	r3, [r5, #5]	@ zero_extendqisi2
 1386              		.loc 1 756 6 view .LVU402
 1387 0032 CBB1     		cbz	r3, .L117
 757:Src/BLDC_controller.c ****     tmp = 0;
 1388              		.loc 1 757 9 view .LVU403
 1389 0034 4FF0000C 		mov	ip, #0
 1390              	.L106:
 1391              	.LVL117:
 758:Src/BLDC_controller.c ****   } else {
 759:Src/BLDC_controller.c ****     tmp = q0;
 760:Src/BLDC_controller.c ****   }
 761:Src/BLDC_controller.c **** 
 762:Src/BLDC_controller.c ****   /* End of Switch: '<S65>/Switch1' */
 763:Src/BLDC_controller.c **** 
 764:Src/BLDC_controller.c ****   /* Sum: '<S67>/Sum1' incorporates:
 765:Src/BLDC_controller.c ****    *  Delay: '<S67>/Resettable Delay'
 766:Src/BLDC_controller.c ****    */
 767:Src/BLDC_controller.c ****   rtb_Sum1_ni = tmp + localDW->ResettableDelay_DSTATE;
 1392              		.loc 1 767 3 is_stmt 1 view .LVU404
 1393              		.loc 1 767 30 is_stmt 0 view .LVU405
 1394 0038 2B68     		ldr	r3, [r5]
 1395              		.loc 1 767 15 view .LVU406
 1396 003a 03EB0C04 		add	r4, r3, ip
 1397              	.LVL118:
 768:Src/BLDC_controller.c **** 
 769:Src/BLDC_controller.c ****   /* Product: '<S65>/Divide5' */
 770:Src/BLDC_controller.c ****   tmp = (rtu_err * rtu_P) >> 11;
 1398              		.loc 1 770 3 is_stmt 1 view .LVU407
 1399              		.loc 1 770 18 is_stmt 0 view .LVU408
 1400 003e 00FB01F1 		mul	r1, r0, r1
 1401              	.LVL119:
 1402              		.loc 1 770 7 view .LVU409
 1403 0042 CB12     		asrs	r3, r1, #11
 1404              	.LVL120:
 771:Src/BLDC_controller.c ****   if (tmp > 32767) {
 1405              		.loc 1 771 3 is_stmt 1 view .LVU410
 1406              		.loc 1 771 6 is_stmt 0 view .LVU411
 1407 0044 B1F1806F 		cmp	r1, #67108864
 1408 0048 10DA     		bge	.L118
 772:Src/BLDC_controller.c ****     tmp = 32767;
 773:Src/BLDC_controller.c ****   } else {
 774:Src/BLDC_controller.c ****     if (tmp < -32768) {
 1409              		.loc 1 774 5 is_stmt 1 view .LVU412
 1410              		.loc 1 774 8 is_stmt 0 view .LVU413
 1411 004a 13F5004F 		cmn	r3, #32768
 1412 004e 0FDA     		bge	.L107
 775:Src/BLDC_controller.c ****       tmp = -32768;
 1413              		.loc 1 775 11 view .LVU414
 1414 0050 274B     		ldr	r3, .L130
 1415              	.LVL121:
 1416              		.loc 1 775 11 view .LVU415
 1417 0052 0DE0     		b	.L107
 1418              	.LVL122:
 1419              	.L128:
 738:Src/BLDC_controller.c ****     q0 = MIN_int32_T;
 1420              		.loc 1 738 50 discriminator 1 view .LVU416
 1421 0054 C2F1004E 		rsb	lr, r2, #-2147483648
ARM GAS  /tmp/ccVzdWer.s 			page 40


 738:Src/BLDC_controller.c ****     q0 = MIN_int32_T;
 1422              		.loc 1 738 16 discriminator 1 view .LVU417
 1423 0058 A645     		cmp	lr, r4
 1424 005a DCDD     		ble	.L102
 739:Src/BLDC_controller.c ****   } else if ((q0 > 0) && (rtu_ext_limProt > MAX_int32_T - q0)) {
 1425              		.loc 1 739 8 view .LVU418
 1426 005c 4FF00042 		mov	r2, #-2147483648
 1427              	.LVL123:
 739:Src/BLDC_controller.c ****   } else if ((q0 > 0) && (rtu_ext_limProt > MAX_int32_T - q0)) {
 1428              		.loc 1 739 8 view .LVU419
 1429 0060 E2E7     		b	.L103
 1430              	.LVL124:
 1431              	.L116:
 741:Src/BLDC_controller.c ****   } else {
 1432              		.loc 1 741 8 view .LVU420
 1433 0062 6FF00042 		mvn	r2, #-2147483648
 1434              	.LVL125:
 741:Src/BLDC_controller.c ****   } else {
 1435              		.loc 1 741 8 view .LVU421
 1436 0066 DFE7     		b	.L103
 1437              	.LVL126:
 1438              	.L117:
 759:Src/BLDC_controller.c ****   }
 1439              		.loc 1 759 9 view .LVU422
 1440 0068 9446     		mov	ip, r2
 1441 006a E5E7     		b	.L106
 1442              	.LVL127:
 1443              	.L118:
 772:Src/BLDC_controller.c ****   } else {
 1444              		.loc 1 772 9 view .LVU423
 1445 006c 47F6FF73 		movw	r3, #32767
 1446              	.LVL128:
 1447              	.L107:
 776:Src/BLDC_controller.c ****     }
 777:Src/BLDC_controller.c ****   }
 778:Src/BLDC_controller.c **** 
 779:Src/BLDC_controller.c ****   /* Sum: '<S65>/Sum1' incorporates:
 780:Src/BLDC_controller.c ****    *  DataTypeConversion: '<S67>/Data Type Conversion1'
 781:Src/BLDC_controller.c ****    *  Product: '<S65>/Divide5'
 782:Src/BLDC_controller.c ****    */
 783:Src/BLDC_controller.c ****   tmp = (((rtb_Sum1_ni >> 16) << 1) + tmp) >> 1;
 1448              		.loc 1 783 3 is_stmt 1 view .LVU424
 1449              		.loc 1 783 24 is_stmt 0 view .LVU425
 1450 0070 2114     		asrs	r1, r4, #16
 1451              		.loc 1 783 37 view .LVU426
 1452 0072 03EB4101 		add	r1, r3, r1, lsl #1
 1453              		.loc 1 783 7 view .LVU427
 1454 0076 4B10     		asrs	r3, r1, #1
 1455              	.LVL129:
 784:Src/BLDC_controller.c ****   if (tmp > 32767) {
 1456              		.loc 1 784 3 is_stmt 1 view .LVU428
 1457              		.loc 1 784 6 is_stmt 0 view .LVU429
 1458 0078 B1F5803F 		cmp	r1, #65536
 1459 007c 04DA     		bge	.L120
 785:Src/BLDC_controller.c ****     tmp = 32767;
 786:Src/BLDC_controller.c ****   } else {
 787:Src/BLDC_controller.c ****     if (tmp < -32768) {
ARM GAS  /tmp/ccVzdWer.s 			page 41


 1460              		.loc 1 787 5 is_stmt 1 view .LVU430
 1461              		.loc 1 787 8 is_stmt 0 view .LVU431
 1462 007e 13F5004F 		cmn	r3, #32768
 1463 0082 03DA     		bge	.L108
 788:Src/BLDC_controller.c ****       tmp = -32768;
 1464              		.loc 1 788 11 view .LVU432
 1465 0084 1A4B     		ldr	r3, .L130
 1466              	.LVL130:
 1467              		.loc 1 788 11 view .LVU433
 1468 0086 01E0     		b	.L108
 1469              	.LVL131:
 1470              	.L120:
 785:Src/BLDC_controller.c ****     tmp = 32767;
 1471              		.loc 1 785 9 view .LVU434
 1472 0088 47F6FF73 		movw	r3, #32767
 1473              	.LVL132:
 1474              	.L108:
 789:Src/BLDC_controller.c ****     }
 790:Src/BLDC_controller.c ****   }
 791:Src/BLDC_controller.c **** 
 792:Src/BLDC_controller.c ****   /* RelationalOperator: '<S68>/LowerRelop1' incorporates:
 793:Src/BLDC_controller.c ****    *  Sum: '<S65>/Sum1'
 794:Src/BLDC_controller.c ****    */
 795:Src/BLDC_controller.c ****   rtb_LowerRelop1_l = ((int16_T)tmp > rtu_satMax);
 1475              		.loc 1 795 3 is_stmt 1 view .LVU435
 1476              		.loc 1 795 24 is_stmt 0 view .LVU436
 1477 008c 1BB2     		sxth	r3, r3
 1478              	.LVL133:
 796:Src/BLDC_controller.c **** 
 797:Src/BLDC_controller.c ****   /* RelationalOperator: '<S68>/UpperRelop' incorporates:
 798:Src/BLDC_controller.c ****    *  Sum: '<S65>/Sum1'
 799:Src/BLDC_controller.c ****    */
 800:Src/BLDC_controller.c ****   rtb_UpperRelop_l = ((int16_T)tmp < rtu_satMin);
 1479              		.loc 1 800 3 is_stmt 1 view .LVU437
 801:Src/BLDC_controller.c **** 
 802:Src/BLDC_controller.c ****   /* Switch: '<S68>/Switch1' incorporates:
 803:Src/BLDC_controller.c ****    *  Sum: '<S65>/Sum1'
 804:Src/BLDC_controller.c ****    *  Switch: '<S68>/Switch3'
 805:Src/BLDC_controller.c ****    */
 806:Src/BLDC_controller.c ****   if (rtb_LowerRelop1_l) {
 1480              		.loc 1 806 3 view .LVU438
 1481              		.loc 1 806 6 is_stmt 0 view .LVU439
 1482 008e B342     		cmp	r3, r6
 1483 0090 15DD     		ble	.L109
 807:Src/BLDC_controller.c ****     *rty_out = rtu_satMax;
 1484              		.loc 1 807 5 is_stmt 1 view .LVU440
 1485              		.loc 1 807 14 is_stmt 0 view .LVU441
 1486 0092 0899     		ldr	r1, [sp, #32]
 1487 0094 0E80     		strh	r6, [r1]	@ movhi
 1488              	.L110:
 808:Src/BLDC_controller.c ****   } else if (rtb_UpperRelop_l) {
 809:Src/BLDC_controller.c ****     /* Switch: '<S68>/Switch3' */
 810:Src/BLDC_controller.c ****     *rty_out = rtu_satMin;
 811:Src/BLDC_controller.c ****   } else {
 812:Src/BLDC_controller.c ****     *rty_out = (int16_T)tmp;
 813:Src/BLDC_controller.c ****   }
 814:Src/BLDC_controller.c **** 
ARM GAS  /tmp/ccVzdWer.s 			page 42


 815:Src/BLDC_controller.c ****   /* End of Switch: '<S68>/Switch1' */
 816:Src/BLDC_controller.c **** 
 817:Src/BLDC_controller.c ****   /* Signum: '<S66>/SignDeltaU2' incorporates:
 818:Src/BLDC_controller.c ****    *  Sum: '<S65>/Sum2'
 819:Src/BLDC_controller.c ****    */
 820:Src/BLDC_controller.c ****   if (q0 < 0) {
 1489              		.loc 1 820 3 is_stmt 1 view .LVU442
 1490              		.loc 1 820 6 is_stmt 0 view .LVU443
 1491 0096 002A     		cmp	r2, #0
 1492 0098 19DB     		blt	.L122
 821:Src/BLDC_controller.c ****     q0 = -1;
 822:Src/BLDC_controller.c ****   } else {
 823:Src/BLDC_controller.c ****     q0 = (q0 > 0);
 1493              		.loc 1 823 5 is_stmt 1 view .LVU444
 1494              		.loc 1 823 14 is_stmt 0 view .LVU445
 1495 009a 002A     		cmp	r2, #0
 1496 009c D4BF     		ite	le
 1497 009e 0022     		movle	r2, #0
 1498              	.LVL134:
 1499              		.loc 1 823 14 view .LVU446
 1500 00a0 0122     		movgt	r2, #1
 1501              	.LVL135:
 1502              	.L112:
 824:Src/BLDC_controller.c ****   }
 825:Src/BLDC_controller.c **** 
 826:Src/BLDC_controller.c ****   /* End of Signum: '<S66>/SignDeltaU2' */
 827:Src/BLDC_controller.c **** 
 828:Src/BLDC_controller.c ****   /* Signum: '<S66>/SignDeltaU3' incorporates:
 829:Src/BLDC_controller.c ****    *  Sum: '<S65>/Sum1'
 830:Src/BLDC_controller.c ****    */
 831:Src/BLDC_controller.c ****   if ((int16_T)tmp < 0) {
 1503              		.loc 1 831 3 is_stmt 1 view .LVU447
 1504              		.loc 1 831 6 is_stmt 0 view .LVU448
 1505 00a2 002B     		cmp	r3, #0
 1506 00a4 16DB     		blt	.L123
 832:Src/BLDC_controller.c ****     tmp_0 = -1;
 833:Src/BLDC_controller.c ****   } else {
 834:Src/BLDC_controller.c ****     tmp_0 = (int16_T)((int16_T)tmp > 0);
 1507              		.loc 1 834 5 is_stmt 1 view .LVU449
 1508              		.loc 1 834 11 is_stmt 0 view .LVU450
 1509 00a6 002B     		cmp	r3, #0
 1510 00a8 D4BF     		ite	le
 1511 00aa 0021     		movle	r1, #0
 1512 00ac 0121     		movgt	r1, #1
 1513              	.LVL136:
 1514              	.L113:
 835:Src/BLDC_controller.c ****   }
 836:Src/BLDC_controller.c **** 
 837:Src/BLDC_controller.c ****   /* End of Signum: '<S66>/SignDeltaU3' */
 838:Src/BLDC_controller.c **** 
 839:Src/BLDC_controller.c ****   /* Update for UnitDelay: '<S65>/UnitDelay1' incorporates:
 840:Src/BLDC_controller.c ****    *  DataTypeConversion: '<S66>/DataTypeConv4'
 841:Src/BLDC_controller.c ****    *  Logic: '<S65>/AND1'
 842:Src/BLDC_controller.c ****    *  Logic: '<S66>/AND1'
 843:Src/BLDC_controller.c ****    *  RelationalOperator: '<S66>/Equal1'
 844:Src/BLDC_controller.c ****    */
 845:Src/BLDC_controller.c ****   localDW->UnitDelay1_DSTATE = ((q0 == tmp_0) && (rtb_LowerRelop1_l ||
ARM GAS  /tmp/ccVzdWer.s 			page 43


 1515              		.loc 1 845 3 is_stmt 1 view .LVU451
 1516              		.loc 1 845 47 is_stmt 0 view .LVU452
 1517 00ae 9142     		cmp	r1, r2
 1518 00b0 13D0     		beq	.L129
 1519 00b2 0023     		movs	r3, #0
 1520              	.LVL137:
 1521              	.L114:
 1522              		.loc 1 845 30 discriminator 8 view .LVU453
 1523 00b4 6B71     		strb	r3, [r5, #5]
 846:Src/BLDC_controller.c ****     rtb_UpperRelop_l));
 847:Src/BLDC_controller.c **** 
 848:Src/BLDC_controller.c ****   /* Update for Delay: '<S67>/Resettable Delay' */
 849:Src/BLDC_controller.c ****   localDW->icLoad = 0U;
 1524              		.loc 1 849 3 is_stmt 1 discriminator 8 view .LVU454
 1525              		.loc 1 849 19 is_stmt 0 discriminator 8 view .LVU455
 1526 00b6 0023     		movs	r3, #0
 1527 00b8 2B71     		strb	r3, [r5, #4]
 850:Src/BLDC_controller.c ****   localDW->ResettableDelay_DSTATE = rtb_Sum1_ni;
 1528              		.loc 1 850 3 is_stmt 1 discriminator 8 view .LVU456
 1529              		.loc 1 850 35 is_stmt 0 discriminator 8 view .LVU457
 1530 00ba 2C60     		str	r4, [r5]
 851:Src/BLDC_controller.c **** }
 1531              		.loc 1 851 1 discriminator 8 view .LVU458
 1532 00bc F0BD     		pop	{r4, r5, r6, r7, pc}
 1533              	.LVL138:
 1534              	.L109:
 808:Src/BLDC_controller.c ****     /* Switch: '<S68>/Switch3' */
 1535              		.loc 1 808 10 is_stmt 1 view .LVU459
 808:Src/BLDC_controller.c ****     /* Switch: '<S68>/Switch3' */
 1536              		.loc 1 808 13 is_stmt 0 view .LVU460
 1537 00be BB42     		cmp	r3, r7
 1538 00c0 02DA     		bge	.L111
 810:Src/BLDC_controller.c ****   } else {
 1539              		.loc 1 810 5 is_stmt 1 view .LVU461
 810:Src/BLDC_controller.c ****   } else {
 1540              		.loc 1 810 14 is_stmt 0 view .LVU462
 1541 00c2 0899     		ldr	r1, [sp, #32]
 1542 00c4 0F80     		strh	r7, [r1]	@ movhi
 1543 00c6 E6E7     		b	.L110
 1544              	.L111:
 812:Src/BLDC_controller.c ****   }
 1545              		.loc 1 812 5 is_stmt 1 view .LVU463
 812:Src/BLDC_controller.c ****   }
 1546              		.loc 1 812 14 is_stmt 0 view .LVU464
 1547 00c8 0899     		ldr	r1, [sp, #32]
 1548 00ca 0B80     		strh	r3, [r1]	@ movhi
 1549 00cc E3E7     		b	.L110
 1550              	.L122:
 821:Src/BLDC_controller.c ****   } else {
 1551              		.loc 1 821 8 view .LVU465
 1552 00ce 4FF0FF32 		mov	r2, #-1
 1553              	.LVL139:
 821:Src/BLDC_controller.c ****   } else {
 1554              		.loc 1 821 8 view .LVU466
 1555 00d2 E6E7     		b	.L112
 1556              	.LVL140:
 1557              	.L123:
ARM GAS  /tmp/ccVzdWer.s 			page 44


 832:Src/BLDC_controller.c ****   } else {
 1558              		.loc 1 832 11 view .LVU467
 1559 00d4 4FF0FF31 		mov	r1, #-1
 1560 00d8 E9E7     		b	.L113
 1561              	.LVL141:
 1562              	.L129:
 845:Src/BLDC_controller.c ****     rtb_UpperRelop_l));
 1563              		.loc 1 845 47 discriminator 1 view .LVU468
 1564 00da B342     		cmp	r3, r6
 1565 00dc 03DC     		bgt	.L125
 845:Src/BLDC_controller.c ****     rtb_UpperRelop_l));
 1566              		.loc 1 845 69 discriminator 4 view .LVU469
 1567 00de BB42     		cmp	r3, r7
 1568 00e0 03DB     		blt	.L126
 845:Src/BLDC_controller.c ****     rtb_UpperRelop_l));
 1569              		.loc 1 845 47 view .LVU470
 1570 00e2 0023     		movs	r3, #0
 1571              	.LVL142:
 845:Src/BLDC_controller.c ****     rtb_UpperRelop_l));
 1572              		.loc 1 845 47 view .LVU471
 1573 00e4 E6E7     		b	.L114
 1574              	.LVL143:
 1575              	.L125:
 845:Src/BLDC_controller.c ****     rtb_UpperRelop_l));
 1576              		.loc 1 845 47 view .LVU472
 1577 00e6 0123     		movs	r3, #1
 1578              	.LVL144:
 845:Src/BLDC_controller.c ****     rtb_UpperRelop_l));
 1579              		.loc 1 845 47 view .LVU473
 1580 00e8 E4E7     		b	.L114
 1581              	.LVL145:
 1582              	.L126:
 845:Src/BLDC_controller.c ****     rtb_UpperRelop_l));
 1583              		.loc 1 845 47 view .LVU474
 1584 00ea 0123     		movs	r3, #1
 1585              	.LVL146:
 845:Src/BLDC_controller.c ****     rtb_UpperRelop_l));
 1586              		.loc 1 845 47 view .LVU475
 1587 00ec E2E7     		b	.L114
 1588              	.L131:
 1589 00ee 00BF     		.align	2
 1590              	.L130:
 1591 00f0 0080FFFF 		.word	-32768
 1592              		.cfi_endproc
 1593              	.LFE20:
 1595              		.section	.text.PI_clamp_fixdt_f_Init,"ax",%progbits
 1596              		.align	1
 1597              		.global	PI_clamp_fixdt_f_Init
 1598              		.syntax unified
 1599              		.thumb
 1600              		.thumb_func
 1601              		.fpu softvfp
 1603              	PI_clamp_fixdt_f_Init:
 1604              	.LVL147:
 1605              	.LFB21:
 852:Src/BLDC_controller.c **** 
 853:Src/BLDC_controller.c **** /* System initialize for atomic system: '<S62>/PI_clamp_fixdt' */
ARM GAS  /tmp/ccVzdWer.s 			page 45


 854:Src/BLDC_controller.c **** void PI_clamp_fixdt_f_Init(DW_PI_clamp_fixdt_g *localDW)
 855:Src/BLDC_controller.c **** {
 1606              		.loc 1 855 1 is_stmt 1 view -0
 1607              		.cfi_startproc
 1608              		@ args = 0, pretend = 0, frame = 0
 1609              		@ frame_needed = 0, uses_anonymous_args = 0
 1610              		@ link register save eliminated.
 856:Src/BLDC_controller.c ****   /* InitializeConditions for Delay: '<S72>/Resettable Delay' */
 857:Src/BLDC_controller.c ****   localDW->icLoad = 1U;
 1611              		.loc 1 857 3 view .LVU477
 1612              		.loc 1 857 19 is_stmt 0 view .LVU478
 1613 0000 0123     		movs	r3, #1
 1614 0002 8370     		strb	r3, [r0, #2]
 858:Src/BLDC_controller.c **** }
 1615              		.loc 1 858 1 view .LVU479
 1616 0004 7047     		bx	lr
 1617              		.cfi_endproc
 1618              	.LFE21:
 1620              		.section	.text.PI_clamp_fixdt_g_Reset,"ax",%progbits
 1621              		.align	1
 1622              		.global	PI_clamp_fixdt_g_Reset
 1623              		.syntax unified
 1624              		.thumb
 1625              		.thumb_func
 1626              		.fpu softvfp
 1628              	PI_clamp_fixdt_g_Reset:
 1629              	.LVL148:
 1630              	.LFB22:
 859:Src/BLDC_controller.c **** 
 860:Src/BLDC_controller.c **** /* System reset for atomic system: '<S62>/PI_clamp_fixdt' */
 861:Src/BLDC_controller.c **** void PI_clamp_fixdt_g_Reset(DW_PI_clamp_fixdt_g *localDW)
 862:Src/BLDC_controller.c **** {
 1631              		.loc 1 862 1 is_stmt 1 view -0
 1632              		.cfi_startproc
 1633              		@ args = 0, pretend = 0, frame = 0
 1634              		@ frame_needed = 0, uses_anonymous_args = 0
 1635              		@ link register save eliminated.
 863:Src/BLDC_controller.c ****   /* InitializeConditions for UnitDelay: '<S69>/UnitDelay1' */
 864:Src/BLDC_controller.c ****   localDW->UnitDelay1_DSTATE = false;
 1636              		.loc 1 864 3 view .LVU481
 1637              		.loc 1 864 30 is_stmt 0 view .LVU482
 1638 0000 0023     		movs	r3, #0
 1639 0002 C370     		strb	r3, [r0, #3]
 865:Src/BLDC_controller.c **** 
 866:Src/BLDC_controller.c ****   /* InitializeConditions for Delay: '<S72>/Resettable Delay' */
 867:Src/BLDC_controller.c ****   localDW->icLoad = 1U;
 1640              		.loc 1 867 3 is_stmt 1 view .LVU483
 1641              		.loc 1 867 19 is_stmt 0 view .LVU484
 1642 0004 0123     		movs	r3, #1
 1643 0006 8370     		strb	r3, [r0, #2]
 868:Src/BLDC_controller.c **** }
 1644              		.loc 1 868 1 view .LVU485
 1645 0008 7047     		bx	lr
 1646              		.cfi_endproc
 1647              	.LFE22:
 1649              		.section	.text.PI_clamp_fixdt_k,"ax",%progbits
 1650              		.align	1
ARM GAS  /tmp/ccVzdWer.s 			page 46


 1651              		.global	PI_clamp_fixdt_k
 1652              		.syntax unified
 1653              		.thumb
 1654              		.thumb_func
 1655              		.fpu softvfp
 1657              	PI_clamp_fixdt_k:
 1658              	.LVL149:
 1659              	.LFB23:
 869:Src/BLDC_controller.c **** 
 870:Src/BLDC_controller.c **** /* Output and update for atomic system: '<S62>/PI_clamp_fixdt' */
 871:Src/BLDC_controller.c **** void PI_clamp_fixdt_k(int16_T rtu_err, uint16_T rtu_P, uint16_T rtu_I, int16_T
 872:Src/BLDC_controller.c ****                       rtu_init, int16_T rtu_satMax, int16_T rtu_satMin, int32_T
 873:Src/BLDC_controller.c ****                       rtu_ext_limProt, int16_T *rty_out, DW_PI_clamp_fixdt_g
 874:Src/BLDC_controller.c ****                       *localDW)
 875:Src/BLDC_controller.c **** {
 1660              		.loc 1 875 1 is_stmt 1 view -0
 1661              		.cfi_startproc
 1662              		@ args = 20, pretend = 0, frame = 0
 1663              		@ frame_needed = 0, uses_anonymous_args = 0
 1664              		.loc 1 875 1 is_stmt 0 view .LVU487
 1665 0000 F0B5     		push	{r4, r5, r6, r7, lr}
 1666              	.LCFI15:
 1667              		.cfi_def_cfa_offset 20
 1668              		.cfi_offset 4, -20
 1669              		.cfi_offset 5, -16
 1670              		.cfi_offset 6, -12
 1671              		.cfi_offset 7, -8
 1672              		.cfi_offset 14, -4
 1673 0002 BDF91470 		ldrsh	r7, [sp, #20]
 1674 0006 BDF918C0 		ldrsh	ip, [sp, #24]
 1675 000a 079C     		ldr	r4, [sp, #28]
 1676 000c 089D     		ldr	r5, [sp, #32]
 1677 000e 099E     		ldr	r6, [sp, #36]
 876:Src/BLDC_controller.c ****   boolean_T rtb_LowerRelop1_i3;
 1678              		.loc 1 876 3 is_stmt 1 view .LVU488
 877:Src/BLDC_controller.c ****   boolean_T rtb_UpperRelop_i;
 1679              		.loc 1 877 3 view .LVU489
 878:Src/BLDC_controller.c ****   int16_T rtb_Sum1_bm;
 1680              		.loc 1 878 3 view .LVU490
 879:Src/BLDC_controller.c ****   int16_T tmp;
 1681              		.loc 1 879 3 view .LVU491
 880:Src/BLDC_controller.c ****   int32_T tmp_0;
 1682              		.loc 1 880 3 view .LVU492
 881:Src/BLDC_controller.c ****   int32_T q0;
 1683              		.loc 1 881 3 view .LVU493
 882:Src/BLDC_controller.c **** 
 883:Src/BLDC_controller.c ****   /* Sum: '<S69>/Sum2' incorporates:
 884:Src/BLDC_controller.c ****    *  Product: '<S69>/Divide2'
 885:Src/BLDC_controller.c ****    */
 886:Src/BLDC_controller.c ****   q0 = rtu_err * rtu_I;
 1684              		.loc 1 886 3 view .LVU494
 1685              		.loc 1 886 6 is_stmt 0 view .LVU495
 1686 0010 02FB00F2 		mul	r2, r2, r0
 1687              	.LVL150:
 887:Src/BLDC_controller.c ****   if ((q0 < 0) && (rtu_ext_limProt < MIN_int32_T - q0)) {
 1688              		.loc 1 887 3 is_stmt 1 view .LVU496
 1689              		.loc 1 887 6 is_stmt 0 view .LVU497
ARM GAS  /tmp/ccVzdWer.s 			page 47


 1690 0014 002A     		cmp	r2, #0
 1691 0016 20DB     		blt	.L163
 1692              	.L135:
 888:Src/BLDC_controller.c ****     q0 = MIN_int32_T;
 889:Src/BLDC_controller.c ****   } else if ((q0 > 0) && (rtu_ext_limProt > MAX_int32_T - q0)) {
 1693              		.loc 1 889 10 is_stmt 1 view .LVU498
 1694              		.loc 1 889 13 is_stmt 0 view .LVU499
 1695 0018 002A     		cmp	r2, #0
 1696 001a 05DD     		ble	.L137
 1697              		.loc 1 889 57 discriminator 1 view .LVU500
 1698 001c 6FF0004E 		mvn	lr, #-2147483648
 1699 0020 AEEB020E 		sub	lr, lr, r2
 1700              		.loc 1 889 23 discriminator 1 view .LVU501
 1701 0024 A645     		cmp	lr, r4
 1702 0026 1FDB     		blt	.L150
 1703              	.L137:
 890:Src/BLDC_controller.c ****     q0 = MAX_int32_T;
 891:Src/BLDC_controller.c ****   } else {
 892:Src/BLDC_controller.c ****     q0 += rtu_ext_limProt;
 1704              		.loc 1 892 5 is_stmt 1 view .LVU502
 1705              		.loc 1 892 8 is_stmt 0 view .LVU503
 1706 0028 2244     		add	r2, r2, r4
 1707              	.LVL151:
 1708              	.L136:
 893:Src/BLDC_controller.c ****   }
 894:Src/BLDC_controller.c **** 
 895:Src/BLDC_controller.c ****   /* Delay: '<S72>/Resettable Delay' */
 896:Src/BLDC_controller.c ****   if (localDW->icLoad != 0) {
 1709              		.loc 1 896 3 is_stmt 1 view .LVU504
 1710              		.loc 1 896 14 is_stmt 0 view .LVU505
 1711 002a B478     		ldrb	r4, [r6, #2]	@ zero_extendqisi2
 1712              		.loc 1 896 6 view .LVU506
 1713 002c 04B1     		cbz	r4, .L138
 897:Src/BLDC_controller.c ****     localDW->ResettableDelay_DSTATE = rtu_init;
 1714              		.loc 1 897 5 is_stmt 1 view .LVU507
 1715              		.loc 1 897 37 is_stmt 0 view .LVU508
 1716 002e 3380     		strh	r3, [r6]	@ movhi
 1717              	.L138:
 898:Src/BLDC_controller.c ****   }
 899:Src/BLDC_controller.c **** 
 900:Src/BLDC_controller.c ****   /* Switch: '<S69>/Switch1' incorporates:
 901:Src/BLDC_controller.c ****    *  Constant: '<S69>/Constant'
 902:Src/BLDC_controller.c ****    *  Sum: '<S69>/Sum2'
 903:Src/BLDC_controller.c ****    *  UnitDelay: '<S69>/UnitDelay1'
 904:Src/BLDC_controller.c ****    */
 905:Src/BLDC_controller.c ****   if (localDW->UnitDelay1_DSTATE) {
 1718              		.loc 1 905 3 is_stmt 1 view .LVU509
 1719              		.loc 1 905 14 is_stmt 0 view .LVU510
 1720 0030 F378     		ldrb	r3, [r6, #3]	@ zero_extendqisi2
 1721              	.LVL152:
 1722              		.loc 1 905 6 view .LVU511
 1723 0032 FBB9     		cbnz	r3, .L151
 906:Src/BLDC_controller.c ****     tmp = 0;
 907:Src/BLDC_controller.c ****   } else {
 908:Src/BLDC_controller.c ****     tmp = (int16_T)(((q0 < 0 ? 65535 : 0) + q0) >> 16);
 1724              		.loc 1 908 5 is_stmt 1 view .LVU512
 1725              		.loc 1 908 38 is_stmt 0 view .LVU513
ARM GAS  /tmp/ccVzdWer.s 			page 48


 1726 0034 002A     		cmp	r2, #0
 1727 0036 1ADB     		blt	.L164
 1728 0038 0024     		movs	r4, #0
 1729              	.L140:
 1730              		.loc 1 908 43 discriminator 4 view .LVU514
 1731 003a 1444     		add	r4, r4, r2
 1732              		.loc 1 908 9 discriminator 4 view .LVU515
 1733 003c 2314     		asrs	r3, r4, #16
 1734              	.LVL153:
 1735              	.L139:
 909:Src/BLDC_controller.c ****   }
 910:Src/BLDC_controller.c **** 
 911:Src/BLDC_controller.c ****   /* End of Switch: '<S69>/Switch1' */
 912:Src/BLDC_controller.c **** 
 913:Src/BLDC_controller.c ****   /* Sum: '<S72>/Sum1' incorporates:
 914:Src/BLDC_controller.c ****    *  Delay: '<S72>/Resettable Delay'
 915:Src/BLDC_controller.c ****    */
 916:Src/BLDC_controller.c ****   rtb_Sum1_bm = (int16_T)(tmp + localDW->ResettableDelay_DSTATE);
 1736              		.loc 1 916 3 is_stmt 1 view .LVU516
 1737              		.loc 1 916 40 is_stmt 0 view .LVU517
 1738 003e 3488     		ldrh	r4, [r6]
 1739              		.loc 1 916 31 view .LVU518
 1740 0040 1C44     		add	r4, r4, r3
 1741              		.loc 1 916 15 view .LVU519
 1742 0042 24B2     		sxth	r4, r4
 1743              	.LVL154:
 917:Src/BLDC_controller.c **** 
 918:Src/BLDC_controller.c ****   /* Product: '<S69>/Divide5' */
 919:Src/BLDC_controller.c ****   tmp_0 = (rtu_err * rtu_P) >> 11;
 1744              		.loc 1 919 3 is_stmt 1 view .LVU520
 1745              		.loc 1 919 20 is_stmt 0 view .LVU521
 1746 0044 00FB01F1 		mul	r1, r0, r1
 1747              	.LVL155:
 1748              		.loc 1 919 9 view .LVU522
 1749 0048 CB12     		asrs	r3, r1, #11
 1750              	.LVL156:
 920:Src/BLDC_controller.c ****   if (tmp_0 > 32767) {
 1751              		.loc 1 920 3 is_stmt 1 view .LVU523
 1752              		.loc 1 920 6 is_stmt 0 view .LVU524
 1753 004a B1F1806F 		cmp	r1, #67108864
 1754 004e 13DA     		bge	.L153
 921:Src/BLDC_controller.c ****     tmp_0 = 32767;
 922:Src/BLDC_controller.c ****   } else {
 923:Src/BLDC_controller.c ****     if (tmp_0 < -32768) {
 1755              		.loc 1 923 5 is_stmt 1 view .LVU525
 1756              		.loc 1 923 8 is_stmt 0 view .LVU526
 1757 0050 13F5004F 		cmn	r3, #32768
 1758 0054 12DA     		bge	.L141
 924:Src/BLDC_controller.c ****       tmp_0 = -32768;
 1759              		.loc 1 924 13 view .LVU527
 1760 0056 274B     		ldr	r3, .L166
 1761              	.LVL157:
 1762              		.loc 1 924 13 view .LVU528
 1763 0058 10E0     		b	.L141
 1764              	.LVL158:
 1765              	.L163:
 887:Src/BLDC_controller.c ****     q0 = MIN_int32_T;
ARM GAS  /tmp/ccVzdWer.s 			page 49


 1766              		.loc 1 887 50 discriminator 1 view .LVU529
 1767 005a C2F1004E 		rsb	lr, r2, #-2147483648
 887:Src/BLDC_controller.c ****     q0 = MIN_int32_T;
 1768              		.loc 1 887 16 discriminator 1 view .LVU530
 1769 005e A645     		cmp	lr, r4
 1770 0060 DADD     		ble	.L135
 888:Src/BLDC_controller.c ****   } else if ((q0 > 0) && (rtu_ext_limProt > MAX_int32_T - q0)) {
 1771              		.loc 1 888 8 view .LVU531
 1772 0062 4FF00042 		mov	r2, #-2147483648
 1773              	.LVL159:
 888:Src/BLDC_controller.c ****   } else if ((q0 > 0) && (rtu_ext_limProt > MAX_int32_T - q0)) {
 1774              		.loc 1 888 8 view .LVU532
 1775 0066 E0E7     		b	.L136
 1776              	.LVL160:
 1777              	.L150:
 890:Src/BLDC_controller.c ****   } else {
 1778              		.loc 1 890 8 view .LVU533
 1779 0068 6FF00042 		mvn	r2, #-2147483648
 1780              	.LVL161:
 890:Src/BLDC_controller.c ****   } else {
 1781              		.loc 1 890 8 view .LVU534
 1782 006c DDE7     		b	.L136
 1783              	.LVL162:
 1784              	.L164:
 908:Src/BLDC_controller.c ****   }
 1785              		.loc 1 908 38 view .LVU535
 1786 006e 4FF6FF74 		movw	r4, #65535
 1787 0072 E2E7     		b	.L140
 1788              	.L151:
 906:Src/BLDC_controller.c ****   } else {
 1789              		.loc 1 906 9 view .LVU536
 1790 0074 0023     		movs	r3, #0
 1791 0076 E2E7     		b	.L139
 1792              	.LVL163:
 1793              	.L153:
 921:Src/BLDC_controller.c ****   } else {
 1794              		.loc 1 921 11 view .LVU537
 1795 0078 47F6FF73 		movw	r3, #32767
 1796              	.LVL164:
 1797              	.L141:
 925:Src/BLDC_controller.c ****     }
 926:Src/BLDC_controller.c ****   }
 927:Src/BLDC_controller.c **** 
 928:Src/BLDC_controller.c ****   /* Sum: '<S69>/Sum1' incorporates:
 929:Src/BLDC_controller.c ****    *  Product: '<S69>/Divide5'
 930:Src/BLDC_controller.c ****    */
 931:Src/BLDC_controller.c ****   tmp_0 = ((rtb_Sum1_bm << 1) + tmp_0) >> 1;
 1798              		.loc 1 931 3 is_stmt 1 view .LVU538
 1799              		.loc 1 931 31 is_stmt 0 view .LVU539
 1800 007c 03EB4401 		add	r1, r3, r4, lsl #1
 1801              		.loc 1 931 9 view .LVU540
 1802 0080 4B10     		asrs	r3, r1, #1
 1803              	.LVL165:
 932:Src/BLDC_controller.c ****   if (tmp_0 > 32767) {
 1804              		.loc 1 932 3 is_stmt 1 view .LVU541
 1805              		.loc 1 932 6 is_stmt 0 view .LVU542
 1806 0082 B1F5803F 		cmp	r1, #65536
ARM GAS  /tmp/ccVzdWer.s 			page 50


 1807 0086 04DA     		bge	.L155
 933:Src/BLDC_controller.c ****     tmp_0 = 32767;
 934:Src/BLDC_controller.c ****   } else {
 935:Src/BLDC_controller.c ****     if (tmp_0 < -32768) {
 1808              		.loc 1 935 5 is_stmt 1 view .LVU543
 1809              		.loc 1 935 8 is_stmt 0 view .LVU544
 1810 0088 13F5004F 		cmn	r3, #32768
 1811 008c 03DA     		bge	.L142
 936:Src/BLDC_controller.c ****       tmp_0 = -32768;
 1812              		.loc 1 936 13 view .LVU545
 1813 008e 194B     		ldr	r3, .L166
 1814              	.LVL166:
 1815              		.loc 1 936 13 view .LVU546
 1816 0090 01E0     		b	.L142
 1817              	.LVL167:
 1818              	.L155:
 933:Src/BLDC_controller.c ****     tmp_0 = 32767;
 1819              		.loc 1 933 11 view .LVU547
 1820 0092 47F6FF73 		movw	r3, #32767
 1821              	.LVL168:
 1822              	.L142:
 937:Src/BLDC_controller.c ****     }
 938:Src/BLDC_controller.c ****   }
 939:Src/BLDC_controller.c **** 
 940:Src/BLDC_controller.c ****   /* RelationalOperator: '<S73>/LowerRelop1' incorporates:
 941:Src/BLDC_controller.c ****    *  Sum: '<S69>/Sum1'
 942:Src/BLDC_controller.c ****    */
 943:Src/BLDC_controller.c ****   rtb_LowerRelop1_i3 = ((int16_T)tmp_0 > rtu_satMax);
 1823              		.loc 1 943 3 is_stmt 1 view .LVU548
 1824              		.loc 1 943 25 is_stmt 0 view .LVU549
 1825 0096 1BB2     		sxth	r3, r3
 1826              	.LVL169:
 944:Src/BLDC_controller.c **** 
 945:Src/BLDC_controller.c ****   /* RelationalOperator: '<S73>/UpperRelop' incorporates:
 946:Src/BLDC_controller.c ****    *  Sum: '<S69>/Sum1'
 947:Src/BLDC_controller.c ****    */
 948:Src/BLDC_controller.c ****   rtb_UpperRelop_i = ((int16_T)tmp_0 < rtu_satMin);
 1827              		.loc 1 948 3 is_stmt 1 view .LVU550
 949:Src/BLDC_controller.c **** 
 950:Src/BLDC_controller.c ****   /* Switch: '<S73>/Switch1' incorporates:
 951:Src/BLDC_controller.c ****    *  Sum: '<S69>/Sum1'
 952:Src/BLDC_controller.c ****    *  Switch: '<S73>/Switch3'
 953:Src/BLDC_controller.c ****    */
 954:Src/BLDC_controller.c ****   if (rtb_LowerRelop1_i3) {
 1828              		.loc 1 954 3 view .LVU551
 1829              		.loc 1 954 6 is_stmt 0 view .LVU552
 1830 0098 BB42     		cmp	r3, r7
 1831 009a 14DD     		ble	.L143
 955:Src/BLDC_controller.c ****     *rty_out = rtu_satMax;
 1832              		.loc 1 955 5 is_stmt 1 view .LVU553
 1833              		.loc 1 955 14 is_stmt 0 view .LVU554
 1834 009c 2F80     		strh	r7, [r5]	@ movhi
 1835              	.L144:
 956:Src/BLDC_controller.c ****   } else if (rtb_UpperRelop_i) {
 957:Src/BLDC_controller.c ****     /* Switch: '<S73>/Switch3' */
 958:Src/BLDC_controller.c ****     *rty_out = rtu_satMin;
 959:Src/BLDC_controller.c ****   } else {
ARM GAS  /tmp/ccVzdWer.s 			page 51


 960:Src/BLDC_controller.c ****     *rty_out = (int16_T)tmp_0;
 961:Src/BLDC_controller.c ****   }
 962:Src/BLDC_controller.c **** 
 963:Src/BLDC_controller.c ****   /* End of Switch: '<S73>/Switch1' */
 964:Src/BLDC_controller.c **** 
 965:Src/BLDC_controller.c ****   /* Signum: '<S71>/SignDeltaU2' incorporates:
 966:Src/BLDC_controller.c ****    *  Sum: '<S69>/Sum2'
 967:Src/BLDC_controller.c ****    */
 968:Src/BLDC_controller.c ****   if (q0 < 0) {
 1836              		.loc 1 968 3 is_stmt 1 view .LVU555
 1837              		.loc 1 968 6 is_stmt 0 view .LVU556
 1838 009e 002A     		cmp	r2, #0
 1839 00a0 18DB     		blt	.L157
 969:Src/BLDC_controller.c ****     q0 = -1;
 970:Src/BLDC_controller.c ****   } else {
 971:Src/BLDC_controller.c ****     q0 = (q0 > 0);
 1840              		.loc 1 971 5 is_stmt 1 view .LVU557
 1841              		.loc 1 971 14 is_stmt 0 view .LVU558
 1842 00a2 002A     		cmp	r2, #0
 1843 00a4 D4BF     		ite	le
 1844 00a6 0022     		movle	r2, #0
 1845              	.LVL170:
 1846              		.loc 1 971 14 view .LVU559
 1847 00a8 0122     		movgt	r2, #1
 1848              	.LVL171:
 1849              	.L146:
 972:Src/BLDC_controller.c ****   }
 973:Src/BLDC_controller.c **** 
 974:Src/BLDC_controller.c ****   /* End of Signum: '<S71>/SignDeltaU2' */
 975:Src/BLDC_controller.c **** 
 976:Src/BLDC_controller.c ****   /* Signum: '<S71>/SignDeltaU3' incorporates:
 977:Src/BLDC_controller.c ****    *  Sum: '<S69>/Sum1'
 978:Src/BLDC_controller.c ****    */
 979:Src/BLDC_controller.c ****   if ((int16_T)tmp_0 < 0) {
 1850              		.loc 1 979 3 is_stmt 1 view .LVU560
 1851              		.loc 1 979 6 is_stmt 0 view .LVU561
 1852 00aa 002B     		cmp	r3, #0
 1853 00ac 15DB     		blt	.L158
 980:Src/BLDC_controller.c ****     tmp = -1;
 981:Src/BLDC_controller.c ****   } else {
 982:Src/BLDC_controller.c ****     tmp = (int16_T)((int16_T)tmp_0 > 0);
 1854              		.loc 1 982 5 is_stmt 1 view .LVU562
 1855              		.loc 1 982 9 is_stmt 0 view .LVU563
 1856 00ae 002B     		cmp	r3, #0
 1857 00b0 D4BF     		ite	le
 1858 00b2 0021     		movle	r1, #0
 1859 00b4 0121     		movgt	r1, #1
 1860              	.LVL172:
 1861              	.L147:
 983:Src/BLDC_controller.c ****   }
 984:Src/BLDC_controller.c **** 
 985:Src/BLDC_controller.c ****   /* End of Signum: '<S71>/SignDeltaU3' */
 986:Src/BLDC_controller.c **** 
 987:Src/BLDC_controller.c ****   /* Update for UnitDelay: '<S69>/UnitDelay1' incorporates:
 988:Src/BLDC_controller.c ****    *  DataTypeConversion: '<S71>/DataTypeConv4'
 989:Src/BLDC_controller.c ****    *  Logic: '<S69>/AND1'
 990:Src/BLDC_controller.c ****    *  Logic: '<S71>/AND1'
ARM GAS  /tmp/ccVzdWer.s 			page 52


 991:Src/BLDC_controller.c ****    *  RelationalOperator: '<S71>/Equal1'
 992:Src/BLDC_controller.c ****    */
 993:Src/BLDC_controller.c ****   localDW->UnitDelay1_DSTATE = ((q0 == tmp) && (rtb_LowerRelop1_i3 ||
 1862              		.loc 1 993 3 is_stmt 1 view .LVU564
 1863              		.loc 1 993 45 is_stmt 0 view .LVU565
 1864 00b6 9142     		cmp	r1, r2
 1865 00b8 12D0     		beq	.L165
 1866 00ba 0023     		movs	r3, #0
 1867              	.LVL173:
 1868              	.L148:
 1869              		.loc 1 993 30 discriminator 8 view .LVU566
 1870 00bc F370     		strb	r3, [r6, #3]
 994:Src/BLDC_controller.c ****     rtb_UpperRelop_i));
 995:Src/BLDC_controller.c **** 
 996:Src/BLDC_controller.c ****   /* Update for Delay: '<S72>/Resettable Delay' */
 997:Src/BLDC_controller.c ****   localDW->icLoad = 0U;
 1871              		.loc 1 997 3 is_stmt 1 discriminator 8 view .LVU567
 1872              		.loc 1 997 19 is_stmt 0 discriminator 8 view .LVU568
 1873 00be 0023     		movs	r3, #0
 1874 00c0 B370     		strb	r3, [r6, #2]
 998:Src/BLDC_controller.c ****   localDW->ResettableDelay_DSTATE = rtb_Sum1_bm;
 1875              		.loc 1 998 3 is_stmt 1 discriminator 8 view .LVU569
 1876              		.loc 1 998 35 is_stmt 0 discriminator 8 view .LVU570
 1877 00c2 3480     		strh	r4, [r6]	@ movhi
 999:Src/BLDC_controller.c **** }
 1878              		.loc 1 999 1 discriminator 8 view .LVU571
 1879 00c4 F0BD     		pop	{r4, r5, r6, r7, pc}
 1880              	.LVL174:
 1881              	.L143:
 956:Src/BLDC_controller.c ****     /* Switch: '<S73>/Switch3' */
 1882              		.loc 1 956 10 is_stmt 1 view .LVU572
 956:Src/BLDC_controller.c ****     /* Switch: '<S73>/Switch3' */
 1883              		.loc 1 956 13 is_stmt 0 view .LVU573
 1884 00c6 6345     		cmp	r3, ip
 1885 00c8 02DA     		bge	.L145
 958:Src/BLDC_controller.c ****   } else {
 1886              		.loc 1 958 5 is_stmt 1 view .LVU574
 958:Src/BLDC_controller.c ****   } else {
 1887              		.loc 1 958 14 is_stmt 0 view .LVU575
 1888 00ca A5F800C0 		strh	ip, [r5]	@ movhi
 1889 00ce E6E7     		b	.L144
 1890              	.L145:
 960:Src/BLDC_controller.c ****   }
 1891              		.loc 1 960 5 is_stmt 1 view .LVU576
 960:Src/BLDC_controller.c ****   }
 1892              		.loc 1 960 14 is_stmt 0 view .LVU577
 1893 00d0 2B80     		strh	r3, [r5]	@ movhi
 1894 00d2 E4E7     		b	.L144
 1895              	.L157:
 969:Src/BLDC_controller.c ****   } else {
 1896              		.loc 1 969 8 view .LVU578
 1897 00d4 4FF0FF32 		mov	r2, #-1
 1898              	.LVL175:
 969:Src/BLDC_controller.c ****   } else {
 1899              		.loc 1 969 8 view .LVU579
 1900 00d8 E7E7     		b	.L146
 1901              	.LVL176:
ARM GAS  /tmp/ccVzdWer.s 			page 53


 1902              	.L158:
 980:Src/BLDC_controller.c ****   } else {
 1903              		.loc 1 980 9 view .LVU580
 1904 00da 4FF0FF31 		mov	r1, #-1
 1905 00de EAE7     		b	.L147
 1906              	.LVL177:
 1907              	.L165:
 993:Src/BLDC_controller.c ****     rtb_UpperRelop_i));
 1908              		.loc 1 993 45 discriminator 1 view .LVU581
 1909 00e0 BB42     		cmp	r3, r7
 1910 00e2 03DC     		bgt	.L160
 993:Src/BLDC_controller.c ****     rtb_UpperRelop_i));
 1911              		.loc 1 993 68 discriminator 4 view .LVU582
 1912 00e4 6345     		cmp	r3, ip
 1913 00e6 03DB     		blt	.L161
 993:Src/BLDC_controller.c ****     rtb_UpperRelop_i));
 1914              		.loc 1 993 45 view .LVU583
 1915 00e8 0023     		movs	r3, #0
 1916              	.LVL178:
 993:Src/BLDC_controller.c ****     rtb_UpperRelop_i));
 1917              		.loc 1 993 45 view .LVU584
 1918 00ea E7E7     		b	.L148
 1919              	.LVL179:
 1920              	.L160:
 993:Src/BLDC_controller.c ****     rtb_UpperRelop_i));
 1921              		.loc 1 993 45 view .LVU585
 1922 00ec 0123     		movs	r3, #1
 1923              	.LVL180:
 993:Src/BLDC_controller.c ****     rtb_UpperRelop_i));
 1924              		.loc 1 993 45 view .LVU586
 1925 00ee E5E7     		b	.L148
 1926              	.LVL181:
 1927              	.L161:
 993:Src/BLDC_controller.c ****     rtb_UpperRelop_i));
 1928              		.loc 1 993 45 view .LVU587
 1929 00f0 0123     		movs	r3, #1
 1930              	.LVL182:
 993:Src/BLDC_controller.c ****     rtb_UpperRelop_i));
 1931              		.loc 1 993 45 view .LVU588
 1932 00f2 E3E7     		b	.L148
 1933              	.L167:
 1934              		.align	2
 1935              	.L166:
 1936 00f4 0080FFFF 		.word	-32768
 1937              		.cfi_endproc
 1938              	.LFE23:
 1940              		.section	.text.BLDC_controller_step,"ax",%progbits
 1941              		.align	1
 1942              		.global	BLDC_controller_step
 1943              		.syntax unified
 1944              		.thumb
 1945              		.thumb_func
 1946              		.fpu softvfp
 1948              	BLDC_controller_step:
 1949              	.LVL183:
 1950              	.LFB24:
1000:Src/BLDC_controller.c **** 
ARM GAS  /tmp/ccVzdWer.s 			page 54


1001:Src/BLDC_controller.c **** /* Model step function */
1002:Src/BLDC_controller.c **** void BLDC_controller_step(RT_MODEL *const rtM)
1003:Src/BLDC_controller.c **** {
 1951              		.loc 1 1003 1 is_stmt 1 view -0
 1952              		.cfi_startproc
 1953              		@ args = 0, pretend = 0, frame = 56
 1954              		@ frame_needed = 0, uses_anonymous_args = 0
 1955              		.loc 1 1003 1 is_stmt 0 view .LVU590
 1956 0000 2DE9F04F 		push	{r4, r5, r6, r7, r8, r9, r10, fp, lr}
 1957              	.LCFI16:
 1958              		.cfi_def_cfa_offset 36
 1959              		.cfi_offset 4, -36
 1960              		.cfi_offset 5, -32
 1961              		.cfi_offset 6, -28
 1962              		.cfi_offset 7, -24
 1963              		.cfi_offset 8, -20
 1964              		.cfi_offset 9, -16
 1965              		.cfi_offset 10, -12
 1966              		.cfi_offset 11, -8
 1967              		.cfi_offset 14, -4
 1968 0004 95B0     		sub	sp, sp, #84
 1969              	.LCFI17:
 1970              		.cfi_def_cfa_offset 120
1004:Src/BLDC_controller.c ****   P *rtP = ((P *) rtM->defaultParam);
 1971              		.loc 1 1004 3 is_stmt 1 view .LVU591
 1972              		.loc 1 1004 6 is_stmt 0 view .LVU592
 1973 0006 0568     		ldr	r5, [r0]
 1974              	.LVL184:
1005:Src/BLDC_controller.c ****   DW *rtDW = ((DW *) rtM->dwork);
 1975              		.loc 1 1005 3 is_stmt 1 view .LVU593
 1976              		.loc 1 1005 7 is_stmt 0 view .LVU594
 1977 0008 C468     		ldr	r4, [r0, #12]
 1978              	.LVL185:
1006:Src/BLDC_controller.c ****   ExtU *rtU = (ExtU *) rtM->inputs;
 1979              		.loc 1 1006 3 is_stmt 1 view .LVU595
 1980              		.loc 1 1006 9 is_stmt 0 view .LVU596
 1981 000a 4668     		ldr	r6, [r0, #4]
 1982              	.LVL186:
1007:Src/BLDC_controller.c ****   ExtY *rtY = (ExtY *) rtM->outputs;
 1983              		.loc 1 1007 3 is_stmt 1 view .LVU597
 1984              		.loc 1 1007 9 is_stmt 0 view .LVU598
 1985 000c 8768     		ldr	r7, [r0, #8]
 1986              	.LVL187:
1008:Src/BLDC_controller.c ****   boolean_T rtb_LogicalOperator;
 1987              		.loc 1 1008 3 is_stmt 1 view .LVU599
1009:Src/BLDC_controller.c ****   int8_T rtb_Sum2_h;
 1988              		.loc 1 1009 3 view .LVU600
1010:Src/BLDC_controller.c ****   boolean_T rtb_RelationalOperator4_d;
 1989              		.loc 1 1010 3 view .LVU601
1011:Src/BLDC_controller.c ****   boolean_T rtb_UnitDelay5_e;
 1990              		.loc 1 1011 3 view .LVU602
1012:Src/BLDC_controller.c ****   uint8_T rtb_a_elecAngle_XA_g;
 1991              		.loc 1 1012 3 view .LVU603
1013:Src/BLDC_controller.c ****   boolean_T rtb_LogicalOperator1_j;
 1992              		.loc 1 1013 3 view .LVU604
1014:Src/BLDC_controller.c ****   boolean_T rtb_LogicalOperator2_p;
 1993              		.loc 1 1014 3 view .LVU605
ARM GAS  /tmp/ccVzdWer.s 			page 55


1015:Src/BLDC_controller.c ****   boolean_T rtb_RelationalOperator1_mv;
 1994              		.loc 1 1015 3 view .LVU606
1016:Src/BLDC_controller.c ****   int16_T rtb_Switch1_l;
 1995              		.loc 1 1016 3 view .LVU607
1017:Src/BLDC_controller.c ****   int16_T rtb_Saturation;
 1996              		.loc 1 1017 3 view .LVU608
1018:Src/BLDC_controller.c ****   int16_T rtb_Saturation1;
 1997              		.loc 1 1018 3 view .LVU609
1019:Src/BLDC_controller.c ****   int32_T rtb_Sum1_jt;
 1998              		.loc 1 1019 3 view .LVU610
1020:Src/BLDC_controller.c ****   int16_T rtb_Merge_m;
 1999              		.loc 1 1020 3 view .LVU611
1021:Src/BLDC_controller.c ****   int16_T rtb_Merge1;
 2000              		.loc 1 1021 3 view .LVU612
1022:Src/BLDC_controller.c ****   int16_T rtb_TmpSignalConversionAtLow_Pa[2];
 2001              		.loc 1 1022 3 view .LVU613
1023:Src/BLDC_controller.c ****   int32_T rtb_Switch1;
 2002              		.loc 1 1023 3 view .LVU614
1024:Src/BLDC_controller.c ****   int32_T rtb_Sum1;
 2003              		.loc 1 1024 3 view .LVU615
1025:Src/BLDC_controller.c ****   int32_T rtb_Gain3;
 2004              		.loc 1 1025 3 view .LVU616
1026:Src/BLDC_controller.c ****   uint8_T Sum;
 2005              		.loc 1 1026 3 view .LVU617
1027:Src/BLDC_controller.c ****   int16_T Switch2;
 2006              		.loc 1 1027 3 view .LVU618
1028:Src/BLDC_controller.c ****   int16_T Abs5;
 2007              		.loc 1 1028 3 view .LVU619
1029:Src/BLDC_controller.c ****   int16_T DataTypeConversion2;
 2008              		.loc 1 1029 3 view .LVU620
1030:Src/BLDC_controller.c ****   int16_T tmp[4];
 2009              		.loc 1 1030 3 view .LVU621
1031:Src/BLDC_controller.c ****   int8_T UnitDelay3;
 2010              		.loc 1 1031 3 view .LVU622
1032:Src/BLDC_controller.c **** 
1033:Src/BLDC_controller.c ****   /* Outputs for Atomic SubSystem: '<Root>/BLDC_controller' */
1034:Src/BLDC_controller.c ****   /* Sum: '<S11>/Sum' incorporates:
1035:Src/BLDC_controller.c ****    *  Gain: '<S11>/g_Ha'
1036:Src/BLDC_controller.c ****    *  Gain: '<S11>/g_Hb'
1037:Src/BLDC_controller.c ****    *  Inport: '<Root>/b_hallA '
1038:Src/BLDC_controller.c ****    *  Inport: '<Root>/b_hallB'
1039:Src/BLDC_controller.c ****    *  Inport: '<Root>/b_hallC'
1040:Src/BLDC_controller.c ****    */
1041:Src/BLDC_controller.c ****   Sum = (uint8_T)((uint32_T)(uint8_T)((uint32_T)(uint8_T)(rtU->b_hallA << 2) +
 2011              		.loc 1 1041 3 view .LVU623
 2012              		.loc 1 1041 62 is_stmt 0 view .LVU624
 2013 000e 3379     		ldrb	r3, [r6, #4]	@ zero_extendqisi2
 2014              		.loc 1 1041 49 view .LVU625
 2015 0010 9900     		lsls	r1, r3, #2
 2016 0012 C9B2     		uxtb	r1, r1
1042:Src/BLDC_controller.c ****     (uint8_T)(rtU->b_hallB << 1)) + rtU->b_hallC);
 2017              		.loc 1 1042 18 view .LVU626
 2018 0014 7279     		ldrb	r2, [r6, #5]	@ zero_extendqisi2
 2019              		.loc 1 1042 5 view .LVU627
 2020 0016 5000     		lsls	r0, r2, #1
 2021              	.LVL188:
 2022              		.loc 1 1042 5 view .LVU628
ARM GAS  /tmp/ccVzdWer.s 			page 56


 2023 0018 C0B2     		uxtb	r0, r0
1041:Src/BLDC_controller.c ****     (uint8_T)(rtU->b_hallB << 1)) + rtU->b_hallC);
 2024              		.loc 1 1041 29 view .LVU629
 2025 001a 0144     		add	r1, r1, r0
 2026 001c C9B2     		uxtb	r1, r1
 2027              		.loc 1 1042 40 view .LVU630
 2028 001e B079     		ldrb	r0, [r6, #6]	@ zero_extendqisi2
1041:Src/BLDC_controller.c ****     (uint8_T)(rtU->b_hallB << 1)) + rtU->b_hallC);
 2029              		.loc 1 1041 7 view .LVU631
 2030 0020 0144     		add	r1, r1, r0
 2031 0022 C9B2     		uxtb	r1, r1
 2032 0024 0991     		str	r1, [sp, #36]
 2033              	.LVL189:
1043:Src/BLDC_controller.c **** 
1044:Src/BLDC_controller.c ****   /* Logic: '<S10>/Logical Operator' incorporates:
1045:Src/BLDC_controller.c ****    *  Inport: '<Root>/b_hallA '
1046:Src/BLDC_controller.c ****    *  Inport: '<Root>/b_hallB'
1047:Src/BLDC_controller.c ****    *  Inport: '<Root>/b_hallC'
1048:Src/BLDC_controller.c ****    *  UnitDelay: '<S10>/UnitDelay1'
1049:Src/BLDC_controller.c ****    *  UnitDelay: '<S10>/UnitDelay2'
1050:Src/BLDC_controller.c ****    *  UnitDelay: '<S10>/UnitDelay3'
1051:Src/BLDC_controller.c ****    */
1052:Src/BLDC_controller.c ****   rtb_LogicalOperator = (boolean_T)((rtU->b_hallA != 0) ^ (rtU->b_hallB != 0) ^
 2034              		.loc 1 1052 3 is_stmt 1 view .LVU632
 2035              		.loc 1 1052 73 is_stmt 0 view .LVU633
 2036 0026 003A     		subs	r2, r2, #0
 2037 0028 18BF     		it	ne
 2038 002a 0122     		movne	r2, #1
1053:Src/BLDC_controller.c ****     (rtU->b_hallC != 0) ^ (rtDW->UnitDelay3_DSTATE_fy != 0) ^
 2039              		.loc 1 1053 32 view .LVU634
 2040 002c 94F89AC0 		ldrb	ip, [r4, #154]	@ zero_extendqisi2
1054:Src/BLDC_controller.c ****     (rtDW->UnitDelay1_DSTATE != 0)) ^ (rtDW->UnitDelay2_DSTATE_f != 0);
 2041              		.loc 1 1054 10 view .LVU635
 2042 0030 94F89B10 		ldrb	r1, [r4, #155]	@ zero_extendqisi2
 2043 0034 002B     		cmp	r3, #0
 2044 0036 0CBF     		ite	eq
 2045 0038 1346     		moveq	r3, r2
 2046 003a 82F00103 		eorne	r3, r2, #1
 2047 003e 0028     		cmp	r0, #0
 2048 0040 18BF     		it	ne
 2049 0042 83F00103 		eorne	r3, r3, #1
 2050 0046 BCF1000F 		cmp	ip, #0
 2051 004a 18BF     		it	ne
 2052 004c 83F00103 		eorne	r3, r3, #1
 2053 0050 0029     		cmp	r1, #0
 2054 0052 18BF     		it	ne
 2055 0054 83F00103 		eorne	r3, r3, #1
 2056              		.loc 1 1054 44 view .LVU636
 2057 0058 94F89C10 		ldrb	r1, [r4, #156]	@ zero_extendqisi2
 2058              		.loc 1 1054 66 view .LVU637
 2059 005c 0039     		subs	r1, r1, #0
 2060 005e 18BF     		it	ne
 2061 0060 0121     		movne	r1, #1
1052:Src/BLDC_controller.c ****     (rtU->b_hallC != 0) ^ (rtDW->UnitDelay3_DSTATE_fy != 0) ^
 2062              		.loc 1 1052 23 view .LVU638
 2063 0062 81EA0302 		eor	r2, r1, r3
 2064              	.LVL190:
ARM GAS  /tmp/ccVzdWer.s 			page 57


1055:Src/BLDC_controller.c **** 
1056:Src/BLDC_controller.c ****   /* If: '<S13>/If2' incorporates:
1057:Src/BLDC_controller.c ****    *  If: '<S3>/If2'
1058:Src/BLDC_controller.c ****    *  Inport: '<S17>/z_counterRawPrev'
1059:Src/BLDC_controller.c ****    *  UnitDelay: '<S13>/UnitDelay3'
1060:Src/BLDC_controller.c ****    */
1061:Src/BLDC_controller.c ****   if (rtb_LogicalOperator) {
 2065              		.loc 1 1061 3 is_stmt 1 view .LVU639
 2066              		.loc 1 1061 6 is_stmt 0 view .LVU640
 2067 0066 9942     		cmp	r1, r3
 2068 0068 56D0     		beq	.L169
1062:Src/BLDC_controller.c ****     /* Outputs for IfAction SubSystem: '<S3>/F01_03_Direction_Detection' incorporates:
1063:Src/BLDC_controller.c ****      *  ActionPort: '<S12>/Action Port'
1064:Src/BLDC_controller.c ****      */
1065:Src/BLDC_controller.c ****     /* UnitDelay: '<S12>/UnitDelay3' */
1066:Src/BLDC_controller.c ****     UnitDelay3 = rtDW->Switch2_e;
 2069              		.loc 1 1066 5 is_stmt 1 view .LVU641
 2070              		.loc 1 1066 16 is_stmt 0 view .LVU642
 2071 006a 94F98EE0 		ldrsb	lr, [r4, #142]
 2072              	.LVL191:
1067:Src/BLDC_controller.c **** 
1068:Src/BLDC_controller.c ****     /* Sum: '<S12>/Sum2' incorporates:
1069:Src/BLDC_controller.c ****      *  Constant: '<S11>/vec_hallToPos'
1070:Src/BLDC_controller.c ****      *  Selector: '<S11>/Selector'
1071:Src/BLDC_controller.c ****      *  UnitDelay: '<S12>/UnitDelay2'
1072:Src/BLDC_controller.c ****      */
1073:Src/BLDC_controller.c ****     rtb_Sum2_h = (int8_T)(rtConstP.vec_hallToPos_Value[Sum] -
 2073              		.loc 1 1073 5 is_stmt 1 view .LVU643
 2074              		.loc 1 1073 55 is_stmt 0 view .LVU644
 2075 006e BE4B     		ldr	r3, .L467
 2076 0070 0999     		ldr	r1, [sp, #36]
 2077 0072 0B44     		add	r3, r3, r1
 2078 0074 93F98817 		ldrsb	r1, [r3, #1928]
 2079 0078 CBB2     		uxtb	r3, r1
1074:Src/BLDC_controller.c ****                           rtDW->UnitDelay2_DSTATE_b);
 2080              		.loc 1 1074 31 view .LVU645
 2081 007a 94F88F00 		ldrb	r0, [r4, #143]	@ zero_extendqisi2
1073:Src/BLDC_controller.c ****                           rtDW->UnitDelay2_DSTATE_b);
 2082              		.loc 1 1073 61 view .LVU646
 2083 007e 1B1A     		subs	r3, r3, r0
1073:Src/BLDC_controller.c ****                           rtDW->UnitDelay2_DSTATE_b);
 2084              		.loc 1 1073 16 view .LVU647
 2085 0080 5BB2     		sxtb	r3, r3
 2086              	.LVL192:
1075:Src/BLDC_controller.c **** 
1076:Src/BLDC_controller.c ****     /* Switch: '<S12>/Switch2' incorporates:
1077:Src/BLDC_controller.c ****      *  Constant: '<S12>/Constant20'
1078:Src/BLDC_controller.c ****      *  Constant: '<S12>/Constant23'
1079:Src/BLDC_controller.c ****      *  Constant: '<S12>/Constant24'
1080:Src/BLDC_controller.c ****      *  Constant: '<S12>/Constant8'
1081:Src/BLDC_controller.c ****      *  Logic: '<S12>/Logical Operator3'
1082:Src/BLDC_controller.c ****      *  RelationalOperator: '<S12>/Relational Operator1'
1083:Src/BLDC_controller.c ****      *  RelationalOperator: '<S12>/Relational Operator6'
1084:Src/BLDC_controller.c ****      */
1085:Src/BLDC_controller.c ****     if ((rtb_Sum2_h == 1) || (rtb_Sum2_h == -5)) {
 2087              		.loc 1 1085 5 is_stmt 1 view .LVU648
 2088              		.loc 1 1085 8 is_stmt 0 view .LVU649
ARM GAS  /tmp/ccVzdWer.s 			page 58


 2089 0082 012B     		cmp	r3, #1
 2090 0084 06D0     		beq	.L170
 2091              		.loc 1 1085 27 discriminator 1 view .LVU650
 2092 0086 13F1050F 		cmn	r3, #5
 2093 008a 03D0     		beq	.L170
1086:Src/BLDC_controller.c ****       rtDW->Switch2_e = 1;
1087:Src/BLDC_controller.c ****     } else {
1088:Src/BLDC_controller.c ****       rtDW->Switch2_e = -1;
 2094              		.loc 1 1088 7 is_stmt 1 view .LVU651
 2095              		.loc 1 1088 23 is_stmt 0 view .LVU652
 2096 008c FF23     		movs	r3, #255
 2097              	.LVL193:
 2098              		.loc 1 1088 23 view .LVU653
 2099 008e 84F88E30 		strb	r3, [r4, #142]
 2100 0092 02E0     		b	.L172
 2101              	.LVL194:
 2102              	.L170:
1086:Src/BLDC_controller.c ****       rtDW->Switch2_e = 1;
 2103              		.loc 1 1086 7 is_stmt 1 view .LVU654
1086:Src/BLDC_controller.c ****       rtDW->Switch2_e = 1;
 2104              		.loc 1 1086 23 is_stmt 0 view .LVU655
 2105 0094 0123     		movs	r3, #1
 2106              	.LVL195:
1086:Src/BLDC_controller.c ****       rtDW->Switch2_e = 1;
 2107              		.loc 1 1086 23 view .LVU656
 2108 0096 84F88E30 		strb	r3, [r4, #142]
 2109              	.L172:
1089:Src/BLDC_controller.c ****     }
1090:Src/BLDC_controller.c **** 
1091:Src/BLDC_controller.c ****     /* End of Switch: '<S12>/Switch2' */
1092:Src/BLDC_controller.c **** 
1093:Src/BLDC_controller.c ****     /* Update for UnitDelay: '<S12>/UnitDelay2' incorporates:
1094:Src/BLDC_controller.c ****      *  Constant: '<S11>/vec_hallToPos'
1095:Src/BLDC_controller.c ****      *  Selector: '<S11>/Selector'
1096:Src/BLDC_controller.c ****      */
1097:Src/BLDC_controller.c ****     rtDW->UnitDelay2_DSTATE_b = rtConstP.vec_hallToPos_Value[Sum];
 2110              		.loc 1 1097 5 is_stmt 1 view .LVU657
 2111              		.loc 1 1097 31 is_stmt 0 view .LVU658
 2112 009a 84F88F10 		strb	r1, [r4, #143]
1098:Src/BLDC_controller.c **** 
1099:Src/BLDC_controller.c ****     /* End of Outputs for SubSystem: '<S3>/F01_03_Direction_Detection' */
1100:Src/BLDC_controller.c **** 
1101:Src/BLDC_controller.c ****     /* Outputs for IfAction SubSystem: '<S13>/Raw_Motor_Speed_Estimation' incorporates:
1102:Src/BLDC_controller.c ****      *  ActionPort: '<S17>/Action Port'
1103:Src/BLDC_controller.c ****      */
1104:Src/BLDC_controller.c ****     rtDW->z_counterRawPrev = rtDW->UnitDelay3_DSTATE;
 2113              		.loc 1 1104 5 is_stmt 1 view .LVU659
 2114              		.loc 1 1104 34 is_stmt 0 view .LVU660
 2115 009e B4F98000 		ldrsh	r0, [r4, #128]
 2116              	.LVL196:
 2117              		.loc 1 1104 28 view .LVU661
 2118 00a2 A4F85600 		strh	r0, [r4, #86]	@ movhi
1105:Src/BLDC_controller.c **** 
1106:Src/BLDC_controller.c ****     /* Sum: '<S17>/Sum7' incorporates:
1107:Src/BLDC_controller.c ****      *  Inport: '<S17>/z_counterRawPrev'
1108:Src/BLDC_controller.c ****      *  UnitDelay: '<S13>/UnitDelay3'
1109:Src/BLDC_controller.c ****      *  UnitDelay: '<S17>/UnitDelay4'
ARM GAS  /tmp/ccVzdWer.s 			page 59


1110:Src/BLDC_controller.c ****      */
1111:Src/BLDC_controller.c ****     Switch2 = (int16_T)(rtDW->z_counterRawPrev - rtDW->UnitDelay4_DSTATE);
 2119              		.loc 1 1111 5 is_stmt 1 view .LVU662
 2120              		.loc 1 1111 29 is_stmt 0 view .LVU663
 2121 00a6 1FFA80F8 		uxth	r8, r0
 2122              		.loc 1 1111 54 view .LVU664
 2123 00aa B4F88210 		ldrh	r1, [r4, #130]
 2124              		.loc 1 1111 48 view .LVU665
 2125 00ae A8EB0103 		sub	r3, r8, r1
 2126              		.loc 1 1111 13 view .LVU666
 2127 00b2 1BB2     		sxth	r3, r3
 2128              	.LVL197:
1112:Src/BLDC_controller.c **** 
1113:Src/BLDC_controller.c ****     /* Abs: '<S17>/Abs2' */
1114:Src/BLDC_controller.c ****     if (Switch2 < 0) {
 2129              		.loc 1 1114 5 is_stmt 1 view .LVU667
 2130              		.loc 1 1114 8 is_stmt 0 view .LVU668
 2131 00b4 002B     		cmp	r3, #0
 2132 00b6 43DB     		blt	.L433
 2133              	.LVL198:
 2134              	.L173:
1115:Src/BLDC_controller.c ****       rtb_Switch1_l = (int16_T)-Switch2;
1116:Src/BLDC_controller.c ****     } else {
1117:Src/BLDC_controller.c ****       rtb_Switch1_l = Switch2;
1118:Src/BLDC_controller.c ****     }
1119:Src/BLDC_controller.c **** 
1120:Src/BLDC_controller.c ****     /* End of Abs: '<S17>/Abs2' */
1121:Src/BLDC_controller.c **** 
1122:Src/BLDC_controller.c ****     /* Relay: '<S17>/dz_cntTrnsDet' */
1123:Src/BLDC_controller.c ****     if (rtb_Switch1_l >= rtP->dz_cntTrnsDetHi) {
 2135              		.loc 1 1123 5 is_stmt 1 view .LVU669
 2136              		.loc 1 1123 29 is_stmt 0 view .LVU670
 2137 00b8 B5F90410 		ldrsh	r1, [r5, #4]
 2138              	.LVL199:
 2139              		.loc 1 1123 8 view .LVU671
 2140 00bc 9942     		cmp	r1, r3
 2141 00be 43DC     		bgt	.L174
1124:Src/BLDC_controller.c ****       rtDW->dz_cntTrnsDet_Mode = true;
 2142              		.loc 1 1124 7 is_stmt 1 view .LVU672
 2143              		.loc 1 1124 32 is_stmt 0 view .LVU673
 2144 00c0 0123     		movs	r3, #1
 2145              	.LVL200:
 2146              		.loc 1 1124 32 view .LVU674
 2147 00c2 84F8A930 		strb	r3, [r4, #169]
 2148              	.L175:
1125:Src/BLDC_controller.c ****     } else {
1126:Src/BLDC_controller.c ****       if (rtb_Switch1_l <= rtP->dz_cntTrnsDetLo) {
1127:Src/BLDC_controller.c ****         rtDW->dz_cntTrnsDet_Mode = false;
1128:Src/BLDC_controller.c ****       }
1129:Src/BLDC_controller.c ****     }
1130:Src/BLDC_controller.c **** 
1131:Src/BLDC_controller.c ****     rtDW->dz_cntTrnsDet = rtDW->dz_cntTrnsDet_Mode;
 2149              		.loc 1 1131 5 is_stmt 1 view .LVU675
 2150              		.loc 1 1131 31 is_stmt 0 view .LVU676
 2151 00c6 94F8A910 		ldrb	r1, [r4, #169]	@ zero_extendqisi2
 2152              		.loc 1 1131 25 view .LVU677
 2153 00ca 84F8A210 		strb	r1, [r4, #162]
ARM GAS  /tmp/ccVzdWer.s 			page 60


1132:Src/BLDC_controller.c **** 
1133:Src/BLDC_controller.c ****     /* End of Relay: '<S17>/dz_cntTrnsDet' */
1134:Src/BLDC_controller.c **** 
1135:Src/BLDC_controller.c ****     /* RelationalOperator: '<S17>/Relational Operator4' */
1136:Src/BLDC_controller.c ****     rtb_RelationalOperator4_d = (rtDW->Switch2_e != UnitDelay3);
 2154              		.loc 1 1136 5 is_stmt 1 view .LVU678
 2155              		.loc 1 1136 38 is_stmt 0 view .LVU679
 2156 00ce 94F98E30 		ldrsb	r3, [r4, #142]
 2157              		.loc 1 1136 50 view .LVU680
 2158 00d2 7345     		cmp	r3, lr
 2159 00d4 14BF     		ite	ne
 2160 00d6 4FF0010C 		movne	ip, #1
 2161 00da 4FF0000C 		moveq	ip, #0
 2162              	.LVL201:
1137:Src/BLDC_controller.c **** 
1138:Src/BLDC_controller.c ****     /* Switch: '<S17>/Switch3' incorporates:
1139:Src/BLDC_controller.c ****      *  Constant: '<S17>/Constant4'
1140:Src/BLDC_controller.c ****      *  Logic: '<S17>/Logical Operator1'
1141:Src/BLDC_controller.c ****      *  Switch: '<S17>/Switch1'
1142:Src/BLDC_controller.c ****      *  Switch: '<S17>/Switch2'
1143:Src/BLDC_controller.c ****      *  UnitDelay: '<S17>/UnitDelay1'
1144:Src/BLDC_controller.c ****      */
1145:Src/BLDC_controller.c ****     if (rtb_RelationalOperator4_d && rtDW->UnitDelay1_DSTATE_n) {
 2163              		.loc 1 1145 5 is_stmt 1 view .LVU681
 2164              		.loc 1 1145 8 is_stmt 0 view .LVU682
 2165 00de 04D0     		beq	.L176
 2166              		.loc 1 1145 42 discriminator 1 view .LVU683
 2167 00e0 94F8A790 		ldrb	r9, [r4, #167]	@ zero_extendqisi2
 2168              		.loc 1 1145 35 discriminator 1 view .LVU684
 2169 00e4 B9F1000F 		cmp	r9, #0
 2170 00e8 54D1     		bne	.L346
 2171              	.L176:
1146:Src/BLDC_controller.c ****       rtb_Switch1_l = 0;
1147:Src/BLDC_controller.c ****     } else if (rtb_RelationalOperator4_d) {
 2172              		.loc 1 1147 12 is_stmt 1 view .LVU685
 2173              		.loc 1 1147 15 is_stmt 0 view .LVU686
 2174 00ea 7345     		cmp	r3, lr
 2175 00ec 34D0     		beq	.L178
1148:Src/BLDC_controller.c ****       /* Switch: '<S17>/Switch2' incorporates:
1149:Src/BLDC_controller.c ****        *  UnitDelay: '<S13>/UnitDelay4'
1150:Src/BLDC_controller.c ****        */
1151:Src/BLDC_controller.c ****       rtb_Switch1_l = rtDW->UnitDelay4_DSTATE_e;
 2176              		.loc 1 1151 7 is_stmt 1 view .LVU687
 2177              		.loc 1 1151 21 is_stmt 0 view .LVU688
 2178 00ee B4F98A10 		ldrsh	r1, [r4, #138]
 2179              	.LVL202:
 2180              	.L177:
1152:Src/BLDC_controller.c ****     } else if (rtDW->dz_cntTrnsDet) {
1153:Src/BLDC_controller.c ****       /* Switch: '<S17>/Switch1' incorporates:
1154:Src/BLDC_controller.c ****        *  Constant: '<S17>/cf_speedCoef'
1155:Src/BLDC_controller.c ****        *  Product: '<S17>/Divide14'
1156:Src/BLDC_controller.c ****        *  Switch: '<S17>/Switch2'
1157:Src/BLDC_controller.c ****        */
1158:Src/BLDC_controller.c ****       rtb_Switch1_l = (int16_T)((rtP->cf_speedCoef << 4) /
1159:Src/BLDC_controller.c ****         rtDW->z_counterRawPrev);
1160:Src/BLDC_controller.c ****     } else {
1161:Src/BLDC_controller.c ****       /* Switch: '<S17>/Switch1' incorporates:
ARM GAS  /tmp/ccVzdWer.s 			page 61


1162:Src/BLDC_controller.c ****        *  Constant: '<S17>/cf_speedCoef'
1163:Src/BLDC_controller.c ****        *  Gain: '<S17>/g_Ha'
1164:Src/BLDC_controller.c ****        *  Product: '<S17>/Divide13'
1165:Src/BLDC_controller.c ****        *  Sum: '<S17>/Sum13'
1166:Src/BLDC_controller.c ****        *  Switch: '<S17>/Switch2'
1167:Src/BLDC_controller.c ****        *  UnitDelay: '<S17>/UnitDelay2'
1168:Src/BLDC_controller.c ****        *  UnitDelay: '<S17>/UnitDelay3'
1169:Src/BLDC_controller.c ****        *  UnitDelay: '<S17>/UnitDelay5'
1170:Src/BLDC_controller.c ****        */
1171:Src/BLDC_controller.c ****       rtb_Switch1_l = (int16_T)(((uint16_T)(rtP->cf_speedCoef << 2) << 4) /
1172:Src/BLDC_controller.c ****         (int16_T)(((rtDW->UnitDelay2_DSTATE + rtDW->UnitDelay3_DSTATE_o) +
1173:Src/BLDC_controller.c ****                    rtDW->UnitDelay5_DSTATE) + rtDW->z_counterRawPrev));
1174:Src/BLDC_controller.c ****     }
1175:Src/BLDC_controller.c **** 
1176:Src/BLDC_controller.c ****     /* End of Switch: '<S17>/Switch3' */
1177:Src/BLDC_controller.c **** 
1178:Src/BLDC_controller.c ****     /* Product: '<S17>/Divide11' */
1179:Src/BLDC_controller.c ****     rtDW->Divide11 = (int16_T)(rtb_Switch1_l * rtDW->Switch2_e);
 2181              		.loc 1 1179 5 is_stmt 1 view .LVU689
 2182              		.loc 1 1179 52 is_stmt 0 view .LVU690
 2183 00f2 9BB2     		uxth	r3, r3
 2184              		.loc 1 1179 46 view .LVU691
 2185 00f4 01FB03F3 		mul	r3, r1, r3
 2186              		.loc 1 1179 20 view .LVU692
 2187 00f8 A4F87A30 		strh	r3, [r4, #122]	@ movhi
1180:Src/BLDC_controller.c **** 
1181:Src/BLDC_controller.c ****     /* Update for UnitDelay: '<S17>/UnitDelay4' */
1182:Src/BLDC_controller.c ****     rtDW->UnitDelay4_DSTATE = rtDW->z_counterRawPrev;
 2188              		.loc 1 1182 5 is_stmt 1 view .LVU693
 2189              		.loc 1 1182 29 is_stmt 0 view .LVU694
 2190 00fc A4F88200 		strh	r0, [r4, #130]	@ movhi
 2191              	.LVL203:
1183:Src/BLDC_controller.c **** 
1184:Src/BLDC_controller.c ****     /* Update for UnitDelay: '<S17>/UnitDelay2' incorporates:
1185:Src/BLDC_controller.c ****      *  UnitDelay: '<S17>/UnitDelay3'
1186:Src/BLDC_controller.c ****      */
1187:Src/BLDC_controller.c ****     rtDW->UnitDelay2_DSTATE = rtDW->UnitDelay3_DSTATE_o;
 2192              		.loc 1 1187 5 is_stmt 1 view .LVU695
 2193              		.loc 1 1187 35 is_stmt 0 view .LVU696
 2194 0100 B4F98630 		ldrsh	r3, [r4, #134]
 2195              		.loc 1 1187 29 view .LVU697
 2196 0104 A4F88430 		strh	r3, [r4, #132]	@ movhi
1188:Src/BLDC_controller.c **** 
1189:Src/BLDC_controller.c ****     /* Update for UnitDelay: '<S17>/UnitDelay3' incorporates:
1190:Src/BLDC_controller.c ****      *  UnitDelay: '<S17>/UnitDelay5'
1191:Src/BLDC_controller.c ****      */
1192:Src/BLDC_controller.c ****     rtDW->UnitDelay3_DSTATE_o = rtDW->UnitDelay5_DSTATE;
 2197              		.loc 1 1192 5 is_stmt 1 view .LVU698
 2198              		.loc 1 1192 37 is_stmt 0 view .LVU699
 2199 0108 B4F98830 		ldrsh	r3, [r4, #136]
 2200              		.loc 1 1192 31 view .LVU700
 2201 010c A4F88630 		strh	r3, [r4, #134]	@ movhi
1193:Src/BLDC_controller.c **** 
1194:Src/BLDC_controller.c ****     /* Update for UnitDelay: '<S17>/UnitDelay5' */
1195:Src/BLDC_controller.c ****     rtDW->UnitDelay5_DSTATE = rtDW->z_counterRawPrev;
 2202              		.loc 1 1195 5 is_stmt 1 view .LVU701
 2203              		.loc 1 1195 29 is_stmt 0 view .LVU702
ARM GAS  /tmp/ccVzdWer.s 			page 62


 2204 0110 A4F88800 		strh	r0, [r4, #136]	@ movhi
1196:Src/BLDC_controller.c **** 
1197:Src/BLDC_controller.c ****     /* Update for UnitDelay: '<S17>/UnitDelay1' */
1198:Src/BLDC_controller.c ****     rtDW->UnitDelay1_DSTATE_n = rtb_RelationalOperator4_d;
 2205              		.loc 1 1198 5 is_stmt 1 view .LVU703
 2206              		.loc 1 1198 31 is_stmt 0 view .LVU704
 2207 0114 84F8A7C0 		strb	ip, [r4, #167]
 2208              	.LVL204:
 2209              	.L169:
1199:Src/BLDC_controller.c **** 
1200:Src/BLDC_controller.c ****     /* End of Outputs for SubSystem: '<S13>/Raw_Motor_Speed_Estimation' */
1201:Src/BLDC_controller.c ****   }
1202:Src/BLDC_controller.c **** 
1203:Src/BLDC_controller.c ****   /* End of If: '<S13>/If2' */
1204:Src/BLDC_controller.c **** 
1205:Src/BLDC_controller.c ****   /* Outputs for Atomic SubSystem: '<S13>/Counter' */
1206:Src/BLDC_controller.c **** 
1207:Src/BLDC_controller.c ****   /* Constant: '<S13>/Constant6' incorporates:
1208:Src/BLDC_controller.c ****    *  Constant: '<S13>/z_maxCntRst2'
1209:Src/BLDC_controller.c ****    */
1210:Src/BLDC_controller.c ****   rtb_Switch1_l = (int16_T) Counter(1, rtP->z_maxCntRst, rtb_LogicalOperator,
 2210              		.loc 1 1210 3 is_stmt 1 view .LVU705
 2211              		.loc 1 1210 29 is_stmt 0 view .LVU706
 2212 0118 04F14003 		add	r3, r4, #64
 2213 011c B5F90A10 		ldrsh	r1, [r5, #10]
 2214 0120 0120     		movs	r0, #1
 2215 0122 FFF7FEFF 		bl	Counter
 2216              	.LVL205:
 2217              		.loc 1 1210 29 view .LVU707
 2218 0126 0C90     		str	r0, [sp, #48]
 2219              	.LVL206:
1211:Src/BLDC_controller.c ****     &rtDW->Counter_e);
1212:Src/BLDC_controller.c **** 
1213:Src/BLDC_controller.c ****   /* End of Outputs for SubSystem: '<S13>/Counter' */
1214:Src/BLDC_controller.c **** 
1215:Src/BLDC_controller.c ****   /* Switch: '<S13>/Switch2' incorporates:
1216:Src/BLDC_controller.c ****    *  Constant: '<S13>/Constant4'
1217:Src/BLDC_controller.c ****    *  Constant: '<S13>/z_maxCntRst'
1218:Src/BLDC_controller.c ****    *  RelationalOperator: '<S13>/Relational Operator2'
1219:Src/BLDC_controller.c ****    */
1220:Src/BLDC_controller.c ****   if (rtb_Switch1_l > rtP->z_maxCntRst) {
 2220              		.loc 1 1220 3 is_stmt 1 view .LVU708
 2221              		.loc 1 1220 26 is_stmt 0 view .LVU709
 2222 0128 B5F90A30 		ldrsh	r3, [r5, #10]
 2223              		.loc 1 1220 6 view .LVU710
 2224 012c 8342     		cmp	r3, r0
 2225 012e 37DB     		blt	.L347
1221:Src/BLDC_controller.c ****     Switch2 = 0;
1222:Src/BLDC_controller.c ****   } else {
1223:Src/BLDC_controller.c ****     Switch2 = rtDW->Divide11;
 2226              		.loc 1 1223 5 is_stmt 1 view .LVU711
 2227              		.loc 1 1223 13 is_stmt 0 view .LVU712
 2228 0130 B4F97A30 		ldrsh	r3, [r4, #122]
 2229 0134 0B93     		str	r3, [sp, #44]
 2230              	.LVL207:
1224:Src/BLDC_controller.c ****   }
1225:Src/BLDC_controller.c **** 
ARM GAS  /tmp/ccVzdWer.s 			page 63


1226:Src/BLDC_controller.c ****   /* End of Switch: '<S13>/Switch2' */
1227:Src/BLDC_controller.c **** 
1228:Src/BLDC_controller.c ****   /* Abs: '<S13>/Abs5' */
1229:Src/BLDC_controller.c ****   if (Switch2 < 0) {
 2231              		.loc 1 1229 3 is_stmt 1 view .LVU713
 2232              		.loc 1 1229 6 is_stmt 0 view .LVU714
 2233 0136 002B     		cmp	r3, #0
 2234 0138 2EDB     		blt	.L434
1223:Src/BLDC_controller.c ****   }
 2235              		.loc 1 1223 13 view .LVU715
 2236 013a 0B9B     		ldr	r3, [sp, #44]
1223:Src/BLDC_controller.c ****   }
 2237              		.loc 1 1223 13 view .LVU716
 2238 013c 0793     		str	r3, [sp, #28]
 2239 013e 32E0     		b	.L180
 2240              	.LVL208:
 2241              	.L433:
1115:Src/BLDC_controller.c ****     } else {
 2242              		.loc 1 1115 7 is_stmt 1 view .LVU717
1115:Src/BLDC_controller.c ****     } else {
 2243              		.loc 1 1115 23 is_stmt 0 view .LVU718
 2244 0140 A1EB0803 		sub	r3, r1, r8
 2245              	.LVL209:
1115:Src/BLDC_controller.c ****     } else {
 2246              		.loc 1 1115 21 view .LVU719
 2247 0144 1BB2     		sxth	r3, r3
 2248              	.LVL210:
1115:Src/BLDC_controller.c ****     } else {
 2249              		.loc 1 1115 21 view .LVU720
 2250 0146 B7E7     		b	.L173
 2251              	.LVL211:
 2252              	.L174:
1126:Src/BLDC_controller.c ****         rtDW->dz_cntTrnsDet_Mode = false;
 2253              		.loc 1 1126 7 is_stmt 1 view .LVU721
1126:Src/BLDC_controller.c ****         rtDW->dz_cntTrnsDet_Mode = false;
 2254              		.loc 1 1126 31 is_stmt 0 view .LVU722
 2255 0148 B5F90610 		ldrsh	r1, [r5, #6]
1126:Src/BLDC_controller.c ****         rtDW->dz_cntTrnsDet_Mode = false;
 2256              		.loc 1 1126 10 view .LVU723
 2257 014c 9942     		cmp	r1, r3
 2258 014e BADB     		blt	.L175
1127:Src/BLDC_controller.c ****       }
 2259              		.loc 1 1127 9 is_stmt 1 view .LVU724
1127:Src/BLDC_controller.c ****       }
 2260              		.loc 1 1127 34 is_stmt 0 view .LVU725
 2261 0150 0023     		movs	r3, #0
 2262              	.LVL212:
1127:Src/BLDC_controller.c ****       }
 2263              		.loc 1 1127 34 view .LVU726
 2264 0152 84F8A930 		strb	r3, [r4, #169]
 2265 0156 B6E7     		b	.L175
 2266              	.LVL213:
 2267              	.L178:
1152:Src/BLDC_controller.c ****       /* Switch: '<S17>/Switch1' incorporates:
 2268              		.loc 1 1152 12 is_stmt 1 view .LVU727
1152:Src/BLDC_controller.c ****       /* Switch: '<S17>/Switch1' incorporates:
 2269              		.loc 1 1152 15 is_stmt 0 view .LVU728
ARM GAS  /tmp/ccVzdWer.s 			page 64


 2270 0158 29B1     		cbz	r1, .L179
1158:Src/BLDC_controller.c ****         rtDW->z_counterRawPrev);
 2271              		.loc 1 1158 7 is_stmt 1 view .LVU729
1158:Src/BLDC_controller.c ****         rtDW->z_counterRawPrev);
 2272              		.loc 1 1158 37 is_stmt 0 view .LVU730
 2273 015a A989     		ldrh	r1, [r5, #12]
1158:Src/BLDC_controller.c ****         rtDW->z_counterRawPrev);
 2274              		.loc 1 1158 52 view .LVU731
 2275 015c 0901     		lsls	r1, r1, #4
1158:Src/BLDC_controller.c ****         rtDW->z_counterRawPrev);
 2276              		.loc 1 1158 58 view .LVU732
 2277 015e 91FBF0F1 		sdiv	r1, r1, r0
1158:Src/BLDC_controller.c ****         rtDW->z_counterRawPrev);
 2278              		.loc 1 1158 21 view .LVU733
 2279 0162 09B2     		sxth	r1, r1
 2280              	.LVL214:
1158:Src/BLDC_controller.c ****         rtDW->z_counterRawPrev);
 2281              		.loc 1 1158 21 view .LVU734
 2282 0164 C5E7     		b	.L177
 2283              	.LVL215:
 2284              	.L179:
1171:Src/BLDC_controller.c ****         (int16_T)(((rtDW->UnitDelay2_DSTATE + rtDW->UnitDelay3_DSTATE_o) +
 2285              		.loc 1 1171 7 is_stmt 1 view .LVU735
1171:Src/BLDC_controller.c ****         (int16_T)(((rtDW->UnitDelay2_DSTATE + rtDW->UnitDelay3_DSTATE_o) +
 2286              		.loc 1 1171 48 is_stmt 0 view .LVU736
 2287 0166 A989     		ldrh	r1, [r5, #12]
1171:Src/BLDC_controller.c ****         (int16_T)(((rtDW->UnitDelay2_DSTATE + rtDW->UnitDelay3_DSTATE_o) +
 2288              		.loc 1 1171 34 view .LVU737
 2289 0168 8900     		lsls	r1, r1, #2
 2290 016a 89B2     		uxth	r1, r1
1171:Src/BLDC_controller.c ****         (int16_T)(((rtDW->UnitDelay2_DSTATE + rtDW->UnitDelay3_DSTATE_o) +
 2291              		.loc 1 1171 69 view .LVU738
 2292 016c 0901     		lsls	r1, r1, #4
1172:Src/BLDC_controller.c ****                    rtDW->UnitDelay5_DSTATE) + rtDW->z_counterRawPrev));
 2293              		.loc 1 1172 25 view .LVU739
 2294 016e B4F884E0 		ldrh	lr, [r4, #132]
 2295              	.LVL216:
1172:Src/BLDC_controller.c ****                    rtDW->UnitDelay5_DSTATE) + rtDW->z_counterRawPrev));
 2296              		.loc 1 1172 51 view .LVU740
 2297 0172 B4F88690 		ldrh	r9, [r4, #134]
1172:Src/BLDC_controller.c ****                    rtDW->UnitDelay5_DSTATE) + rtDW->z_counterRawPrev));
 2298              		.loc 1 1172 45 view .LVU741
 2299 0176 CE44     		add	lr, lr, r9
 2300 0178 1FFA8EFE 		uxth	lr, lr
1173:Src/BLDC_controller.c ****     }
 2301              		.loc 1 1173 24 view .LVU742
 2302 017c B4F88890 		ldrh	r9, [r4, #136]
1172:Src/BLDC_controller.c ****                    rtDW->UnitDelay5_DSTATE) + rtDW->z_counterRawPrev));
 2303              		.loc 1 1172 74 view .LVU743
 2304 0180 CE44     		add	lr, lr, r9
 2305 0182 1FFA8EFE 		uxth	lr, lr
1173:Src/BLDC_controller.c ****     }
 2306              		.loc 1 1173 45 view .LVU744
 2307 0186 F044     		add	r8, r8, lr
 2308              	.LVL217:
1172:Src/BLDC_controller.c ****                    rtDW->UnitDelay5_DSTATE) + rtDW->z_counterRawPrev));
 2309              		.loc 1 1172 9 view .LVU745
ARM GAS  /tmp/ccVzdWer.s 			page 65


 2310 0188 0FFA88F8 		sxth	r8, r8
1171:Src/BLDC_controller.c ****         (int16_T)(((rtDW->UnitDelay2_DSTATE + rtDW->UnitDelay3_DSTATE_o) +
 2311              		.loc 1 1171 75 view .LVU746
 2312 018c 91FBF8F1 		sdiv	r1, r1, r8
1171:Src/BLDC_controller.c ****         (int16_T)(((rtDW->UnitDelay2_DSTATE + rtDW->UnitDelay3_DSTATE_o) +
 2313              		.loc 1 1171 21 view .LVU747
 2314 0190 09B2     		sxth	r1, r1
 2315              	.LVL218:
1171:Src/BLDC_controller.c ****         (int16_T)(((rtDW->UnitDelay2_DSTATE + rtDW->UnitDelay3_DSTATE_o) +
 2316              		.loc 1 1171 21 view .LVU748
 2317 0192 AEE7     		b	.L177
 2318              	.LVL219:
 2319              	.L346:
1146:Src/BLDC_controller.c ****     } else if (rtb_RelationalOperator4_d) {
 2320              		.loc 1 1146 21 view .LVU749
 2321 0194 0021     		movs	r1, #0
 2322 0196 ACE7     		b	.L177
 2323              	.LVL220:
 2324              	.L434:
1230:Src/BLDC_controller.c ****     Abs5 = (int16_T)-Switch2;
 2325              		.loc 1 1230 5 is_stmt 1 view .LVU750
 2326              		.loc 1 1230 12 is_stmt 0 view .LVU751
 2327 0198 5B42     		rsbs	r3, r3, #0
 2328              	.LVL221:
 2329              		.loc 1 1230 10 view .LVU752
 2330 019a 1BB2     		sxth	r3, r3
 2331 019c 0793     		str	r3, [sp, #28]
 2332              	.LVL222:
 2333              		.loc 1 1230 10 view .LVU753
 2334 019e 02E0     		b	.L180
 2335              	.LVL223:
 2336              	.L347:
1221:Src/BLDC_controller.c ****   } else {
 2337              		.loc 1 1221 13 view .LVU754
 2338 01a0 0023     		movs	r3, #0
 2339 01a2 0B93     		str	r3, [sp, #44]
 2340 01a4 0793     		str	r3, [sp, #28]
 2341              	.L180:
 2342              	.LVL224:
1231:Src/BLDC_controller.c ****   } else {
1232:Src/BLDC_controller.c ****     Abs5 = Switch2;
1233:Src/BLDC_controller.c ****   }
1234:Src/BLDC_controller.c **** 
1235:Src/BLDC_controller.c ****   /* End of Abs: '<S13>/Abs5' */
1236:Src/BLDC_controller.c **** 
1237:Src/BLDC_controller.c ****   /* Relay: '<S13>/n_commDeacv' */
1238:Src/BLDC_controller.c ****   if (Abs5 >= rtP->n_commDeacvHi) {
 2343              		.loc 1 1238 3 is_stmt 1 view .LVU755
 2344              		.loc 1 1238 18 is_stmt 0 view .LVU756
 2345 01a6 B5F9D430 		ldrsh	r3, [r5, #212]
 2346              		.loc 1 1238 6 view .LVU757
 2347 01aa 079A     		ldr	r2, [sp, #28]
 2348 01ac 9342     		cmp	r3, r2
 2349 01ae 0DDC     		bgt	.L181
1239:Src/BLDC_controller.c ****     rtDW->n_commDeacv_Mode = true;
 2350              		.loc 1 1239 5 is_stmt 1 view .LVU758
 2351              		.loc 1 1239 28 is_stmt 0 view .LVU759
ARM GAS  /tmp/ccVzdWer.s 			page 66


 2352 01b0 0123     		movs	r3, #1
 2353 01b2 84F8A830 		strb	r3, [r4, #168]
 2354              	.L182:
1240:Src/BLDC_controller.c ****   } else {
1241:Src/BLDC_controller.c ****     if (Abs5 <= rtP->n_commAcvLo) {
1242:Src/BLDC_controller.c ****       rtDW->n_commDeacv_Mode = false;
1243:Src/BLDC_controller.c ****     }
1244:Src/BLDC_controller.c ****   }
1245:Src/BLDC_controller.c **** 
1246:Src/BLDC_controller.c ****   /* Logic: '<S13>/Logical Operator3' incorporates:
1247:Src/BLDC_controller.c ****    *  Constant: '<S13>/b_angleMeasEna'
1248:Src/BLDC_controller.c ****    *  Logic: '<S13>/Logical Operator1'
1249:Src/BLDC_controller.c ****    *  Logic: '<S13>/Logical Operator2'
1250:Src/BLDC_controller.c ****    *  Relay: '<S13>/n_commDeacv'
1251:Src/BLDC_controller.c ****    */
1252:Src/BLDC_controller.c ****   rtb_LogicalOperator = (rtP->b_angleMeasEna || (rtDW->n_commDeacv_Mode &&
 2355              		.loc 1 1252 3 is_stmt 1 view .LVU760
 2356              		.loc 1 1252 29 is_stmt 0 view .LVU761
 2357 01b6 95F8FB30 		ldrb	r3, [r5, #251]	@ zero_extendqisi2
 2358              		.loc 1 1252 46 view .LVU762
 2359 01ba 83B9     		cbnz	r3, .L349
 2360              		.loc 1 1252 54 discriminator 2 view .LVU763
 2361 01bc 94F8A820 		ldrb	r2, [r4, #168]	@ zero_extendqisi2
 2362              		.loc 1 1252 46 discriminator 2 view .LVU764
 2363 01c0 62B3     		cbz	r2, .L350
1253:Src/BLDC_controller.c ****     (!rtDW->dz_cntTrnsDet)));
 2364              		.loc 1 1253 11 discriminator 3 view .LVU765
 2365 01c2 94F8A220 		ldrb	r2, [r4, #162]	@ zero_extendqisi2
1252:Src/BLDC_controller.c ****     (!rtDW->dz_cntTrnsDet)));
 2366              		.loc 1 1252 73 discriminator 3 view .LVU766
 2367 01c6 5AB3     		cbz	r2, .L351
1252:Src/BLDC_controller.c ****     (!rtDW->dz_cntTrnsDet)));
 2368              		.loc 1 1252 46 view .LVU767
 2369 01c8 0022     		movs	r2, #0
 2370 01ca 09E0     		b	.L183
 2371              	.L181:
1241:Src/BLDC_controller.c ****       rtDW->n_commDeacv_Mode = false;
 2372              		.loc 1 1241 5 is_stmt 1 view .LVU768
1241:Src/BLDC_controller.c ****       rtDW->n_commDeacv_Mode = false;
 2373              		.loc 1 1241 20 is_stmt 0 view .LVU769
 2374 01cc B5F9D230 		ldrsh	r3, [r5, #210]
1241:Src/BLDC_controller.c ****       rtDW->n_commDeacv_Mode = false;
 2375              		.loc 1 1241 8 view .LVU770
 2376 01d0 079A     		ldr	r2, [sp, #28]
 2377 01d2 9342     		cmp	r3, r2
 2378 01d4 EFDB     		blt	.L182
1242:Src/BLDC_controller.c ****     }
 2379              		.loc 1 1242 7 is_stmt 1 view .LVU771
1242:Src/BLDC_controller.c ****     }
 2380              		.loc 1 1242 30 is_stmt 0 view .LVU772
 2381 01d6 0023     		movs	r3, #0
 2382 01d8 84F8A830 		strb	r3, [r4, #168]
 2383 01dc EBE7     		b	.L182
 2384              	.L349:
1252:Src/BLDC_controller.c ****     (!rtDW->dz_cntTrnsDet)));
 2385              		.loc 1 1252 46 view .LVU773
 2386 01de 0122     		movs	r2, #1
ARM GAS  /tmp/ccVzdWer.s 			page 67


 2387              	.L183:
1252:Src/BLDC_controller.c ****     (!rtDW->dz_cntTrnsDet)));
 2388              		.loc 1 1252 23 discriminator 8 view .LVU774
 2389 01e0 D2B2     		uxtb	r2, r2
 2390 01e2 0892     		str	r2, [sp, #32]
 2391              	.LVL225:
1254:Src/BLDC_controller.c **** 
1255:Src/BLDC_controller.c ****   /* UnitDelay: '<S2>/UnitDelay2' */
1256:Src/BLDC_controller.c ****   rtb_RelationalOperator4_d = rtDW->UnitDelay2_DSTATE_c;
 2392              		.loc 1 1256 3 is_stmt 1 discriminator 8 view .LVU775
 2393              		.loc 1 1256 29 is_stmt 0 discriminator 8 view .LVU776
 2394 01e4 94F8A320 		ldrb	r2, [r4, #163]	@ zero_extendqisi2
 2395 01e8 0D92     		str	r2, [sp, #52]
 2396              	.LVL226:
1257:Src/BLDC_controller.c **** 
1258:Src/BLDC_controller.c ****   /* UnitDelay: '<S2>/UnitDelay5' */
1259:Src/BLDC_controller.c ****   rtb_UnitDelay5_e = rtDW->UnitDelay5_DSTATE_m;
 2397              		.loc 1 1259 3 is_stmt 1 discriminator 8 view .LVU777
 2398              		.loc 1 1259 20 is_stmt 0 discriminator 8 view .LVU778
 2399 01ea 94F8A420 		ldrb	r2, [r4, #164]	@ zero_extendqisi2
 2400 01ee 0E92     		str	r2, [sp, #56]
 2401              	.LVL227:
1260:Src/BLDC_controller.c **** 
1261:Src/BLDC_controller.c ****   /* DataTypeConversion: '<S1>/Data Type Conversion2' incorporates:
1262:Src/BLDC_controller.c ****    *  Inport: '<Root>/r_inpTgt'
1263:Src/BLDC_controller.c ****    */
1264:Src/BLDC_controller.c ****   DataTypeConversion2 = (int16_T)(rtU->r_inpTgt << 4);
 2402              		.loc 1 1264 3 is_stmt 1 discriminator 8 view .LVU779
 2403              		.loc 1 1264 38 is_stmt 0 discriminator 8 view .LVU780
 2404 01f0 B6F902B0 		ldrsh	fp, [r6, #2]
 2405              		.loc 1 1264 49 discriminator 8 view .LVU781
 2406 01f4 4FEA0B12 		lsl	r2, fp, #4
 2407 01f8 0F92     		str	r2, [sp, #60]
 2408              		.loc 1 1264 23 discriminator 8 view .LVU782
 2409 01fa 0FFA82FB 		sxth	fp, r2
 2410              	.LVL228:
1265:Src/BLDC_controller.c **** 
1266:Src/BLDC_controller.c ****   /* Saturate: '<S1>/Saturation' incorporates:
1267:Src/BLDC_controller.c ****    *  Inport: '<Root>/i_phaAB'
1268:Src/BLDC_controller.c ****    */
1269:Src/BLDC_controller.c ****   rtb_Gain3 = rtU->i_phaAB << 4;
 2411              		.loc 1 1269 3 is_stmt 1 discriminator 8 view .LVU783
 2412              		.loc 1 1269 18 is_stmt 0 discriminator 8 view .LVU784
 2413 01fe B6F90820 		ldrsh	r2, [r6, #8]
 2414              		.loc 1 1269 13 discriminator 8 view .LVU785
 2415 0202 4FEA021A 		lsl	r10, r2, #4
 2416              	.LVL229:
1270:Src/BLDC_controller.c ****   if (rtb_Gain3 >= 27200) {
 2417              		.loc 1 1270 3 is_stmt 1 discriminator 8 view .LVU786
 2418              		.loc 1 1270 6 is_stmt 0 discriminator 8 view .LVU787
 2419 0206 46F63F21 		movw	r1, #27199
 2420 020a B1EB021F 		cmp	r1, r2, lsl #4
 2421 020e 09DB     		blt	.L352
1271:Src/BLDC_controller.c ****     rtb_Saturation = 27200;
1272:Src/BLDC_controller.c ****   } else if (rtb_Gain3 <= -27200) {
 2422              		.loc 1 1272 10 is_stmt 1 view .LVU788
 2423              		.loc 1 1272 13 is_stmt 0 view .LVU789
ARM GAS  /tmp/ccVzdWer.s 			page 68


 2424 0210 564A     		ldr	r2, .L467+4
 2425 0212 9245     		cmp	r10, r2
 2426 0214 17DB     		blt	.L353
1273:Src/BLDC_controller.c ****     rtb_Saturation = -27200;
1274:Src/BLDC_controller.c ****   } else {
1275:Src/BLDC_controller.c ****     rtb_Saturation = (int16_T)(rtU->i_phaAB << 4);
 2427              		.loc 1 1275 5 is_stmt 1 view .LVU790
 2428              		.loc 1 1275 20 is_stmt 0 view .LVU791
 2429 0216 0FFA8AFA 		sxth	r10, r10
 2430              	.LVL230:
 2431              		.loc 1 1275 20 view .LVU792
 2432 021a 05E0     		b	.L184
 2433              	.LVL231:
 2434              	.L350:
1252:Src/BLDC_controller.c ****     (!rtDW->dz_cntTrnsDet)));
 2435              		.loc 1 1252 46 view .LVU793
 2436 021c 0022     		movs	r2, #0
 2437 021e DFE7     		b	.L183
 2438              	.L351:
 2439 0220 0122     		movs	r2, #1
 2440 0222 DDE7     		b	.L183
 2441              	.LVL232:
 2442              	.L352:
1271:Src/BLDC_controller.c ****     rtb_Saturation = 27200;
 2443              		.loc 1 1271 20 view .LVU794
 2444 0224 46F6402A 		movw	r10, #27200
 2445              	.LVL233:
 2446              	.L184:
1276:Src/BLDC_controller.c ****   }
1277:Src/BLDC_controller.c **** 
1278:Src/BLDC_controller.c ****   /* End of Saturate: '<S1>/Saturation' */
1279:Src/BLDC_controller.c **** 
1280:Src/BLDC_controller.c ****   /* Saturate: '<S1>/Saturation1' incorporates:
1281:Src/BLDC_controller.c ****    *  Inport: '<Root>/i_phaBC'
1282:Src/BLDC_controller.c ****    */
1283:Src/BLDC_controller.c ****   rtb_Gain3 = rtU->i_phaBC << 4;
 2447              		.loc 1 1283 3 is_stmt 1 view .LVU795
 2448              		.loc 1 1283 18 is_stmt 0 view .LVU796
 2449 0228 B6F90A20 		ldrsh	r2, [r6, #10]
 2450              		.loc 1 1283 13 view .LVU797
 2451 022c 4FEA0218 		lsl	r8, r2, #4
 2452              	.LVL234:
1284:Src/BLDC_controller.c ****   if (rtb_Gain3 >= 27200) {
 2453              		.loc 1 1284 3 is_stmt 1 view .LVU798
 2454              		.loc 1 1284 6 is_stmt 0 view .LVU799
 2455 0230 46F63F21 		movw	r1, #27199
 2456 0234 B1EB021F 		cmp	r1, r2, lsl #4
 2457 0238 08DB     		blt	.L354
1285:Src/BLDC_controller.c ****     rtb_Saturation1 = 27200;
1286:Src/BLDC_controller.c ****   } else if (rtb_Gain3 <= -27200) {
 2458              		.loc 1 1286 10 is_stmt 1 view .LVU800
 2459              		.loc 1 1286 13 is_stmt 0 view .LVU801
 2460 023a 4C4A     		ldr	r2, .L467+4
 2461 023c 9045     		cmp	r8, r2
 2462 023e 72DB     		blt	.L355
1287:Src/BLDC_controller.c ****     rtb_Saturation1 = -27200;
1288:Src/BLDC_controller.c ****   } else {
ARM GAS  /tmp/ccVzdWer.s 			page 69


1289:Src/BLDC_controller.c ****     rtb_Saturation1 = (int16_T)(rtU->i_phaBC << 4);
 2463              		.loc 1 1289 5 is_stmt 1 view .LVU802
 2464              		.loc 1 1289 21 is_stmt 0 view .LVU803
 2465 0240 0FFA88F8 		sxth	r8, r8
 2466              	.LVL235:
 2467              		.loc 1 1289 21 view .LVU804
 2468 0244 04E0     		b	.L185
 2469              	.LVL236:
 2470              	.L353:
1273:Src/BLDC_controller.c ****   } else {
 2471              		.loc 1 1273 20 view .LVU805
 2472 0246 DFF82CA1 		ldr	r10, .L467+12
 2473              	.LVL237:
1273:Src/BLDC_controller.c ****   } else {
 2474              		.loc 1 1273 20 view .LVU806
 2475 024a EDE7     		b	.L184
 2476              	.LVL238:
 2477              	.L354:
1285:Src/BLDC_controller.c ****     rtb_Saturation1 = 27200;
 2478              		.loc 1 1285 21 view .LVU807
 2479 024c 46F64028 		movw	r8, #27200
 2480              	.LVL239:
 2481              	.L185:
1290:Src/BLDC_controller.c ****   }
1291:Src/BLDC_controller.c **** 
1292:Src/BLDC_controller.c ****   /* End of Saturate: '<S1>/Saturation1' */
1293:Src/BLDC_controller.c **** 
1294:Src/BLDC_controller.c ****   /* If: '<S3>/If1' incorporates:
1295:Src/BLDC_controller.c ****    *  Constant: '<S3>/b_angleMeasEna'
1296:Src/BLDC_controller.c ****    */
1297:Src/BLDC_controller.c ****   if (!rtP->b_angleMeasEna) {
 2482              		.loc 1 1297 3 is_stmt 1 view .LVU808
 2483              		.loc 1 1297 6 is_stmt 0 view .LVU809
 2484 0250 002B     		cmp	r3, #0
 2485 0252 40F09180 		bne	.L186
1298:Src/BLDC_controller.c ****     /* Outputs for IfAction SubSystem: '<S3>/F01_05_Electrical_Angle_Estimation' incorporates:
1299:Src/BLDC_controller.c ****      *  ActionPort: '<S14>/Action Port'
1300:Src/BLDC_controller.c ****      */
1301:Src/BLDC_controller.c ****     /* Switch: '<S14>/Switch2' incorporates:
1302:Src/BLDC_controller.c ****      *  Constant: '<S14>/Constant16'
1303:Src/BLDC_controller.c ****      *  Product: '<S14>/Divide1'
1304:Src/BLDC_controller.c ****      *  Product: '<S14>/Divide3'
1305:Src/BLDC_controller.c ****      *  RelationalOperator: '<S14>/Relational Operator7'
1306:Src/BLDC_controller.c ****      *  Sum: '<S14>/Sum3'
1307:Src/BLDC_controller.c ****      *  Switch: '<S14>/Switch3'
1308:Src/BLDC_controller.c ****      */
1309:Src/BLDC_controller.c ****     if (rtb_LogicalOperator) {
 2486              		.loc 1 1309 5 is_stmt 1 view .LVU810
 2487              		.loc 1 1309 8 is_stmt 0 view .LVU811
 2488 0256 089B     		ldr	r3, [sp, #32]
 2489 0258 002B     		cmp	r3, #0
 2490 025a 6ED0     		beq	.L187
1310:Src/BLDC_controller.c ****       /* MinMax: '<S14>/MinMax' */
1311:Src/BLDC_controller.c ****       rtb_Merge_m = rtb_Switch1_l;
 2491              		.loc 1 1311 7 is_stmt 1 view .LVU812
 2492              	.LVL240:
1312:Src/BLDC_controller.c ****       if (!(rtb_Merge_m < rtDW->z_counterRawPrev)) {
ARM GAS  /tmp/ccVzdWer.s 			page 70


 2493              		.loc 1 1312 7 view .LVU813
 2494              		.loc 1 1312 31 is_stmt 0 view .LVU814
 2495 025c B4F95610 		ldrsh	r1, [r4, #86]
 2496              		.loc 1 1312 10 view .LVU815
 2497 0260 0C9B     		ldr	r3, [sp, #48]
 2498 0262 9942     		cmp	r1, r3
 2499 0264 00DC     		bgt	.L188
1313:Src/BLDC_controller.c ****         rtb_Merge_m = rtDW->z_counterRawPrev;
 2500              		.loc 1 1313 21 view .LVU816
 2501 0266 0B46     		mov	r3, r1
 2502              	.L188:
 2503              	.LVL241:
1314:Src/BLDC_controller.c ****       }
1315:Src/BLDC_controller.c **** 
1316:Src/BLDC_controller.c ****       /* End of MinMax: '<S14>/MinMax' */
1317:Src/BLDC_controller.c **** 
1318:Src/BLDC_controller.c ****       /* Switch: '<S14>/Switch3' incorporates:
1319:Src/BLDC_controller.c ****        *  Constant: '<S11>/vec_hallToPos'
1320:Src/BLDC_controller.c ****        *  Constant: '<S14>/Constant16'
1321:Src/BLDC_controller.c ****        *  RelationalOperator: '<S14>/Relational Operator7'
1322:Src/BLDC_controller.c ****        *  Selector: '<S11>/Selector'
1323:Src/BLDC_controller.c ****        *  Sum: '<S14>/Sum1'
1324:Src/BLDC_controller.c ****        */
1325:Src/BLDC_controller.c ****       if (rtDW->Switch2_e == 1) {
 2504              		.loc 1 1325 7 is_stmt 1 view .LVU817
 2505              		.loc 1 1325 15 is_stmt 0 view .LVU818
 2506 0268 94F98E20 		ldrsb	r2, [r4, #142]
 2507              		.loc 1 1325 10 view .LVU819
 2508 026c 012A     		cmp	r2, #1
 2509 026e 5DD0     		beq	.L435
1326:Src/BLDC_controller.c ****         rtb_Sum2_h = rtConstP.vec_hallToPos_Value[Sum];
1327:Src/BLDC_controller.c ****       } else {
1328:Src/BLDC_controller.c ****         rtb_Sum2_h = (int8_T)(rtConstP.vec_hallToPos_Value[Sum] + 1);
 2510              		.loc 1 1328 9 is_stmt 1 view .LVU820
 2511              		.loc 1 1328 59 is_stmt 0 view .LVU821
 2512 0270 DFF8F4C0 		ldr	ip, .L467
 2513 0274 0998     		ldr	r0, [sp, #36]
 2514              	.LVL242:
 2515              		.loc 1 1328 59 view .LVU822
 2516 0276 6044     		add	r0, r0, ip
 2517 0278 90F88807 		ldrb	r0, [r0, #1928]	@ zero_extendqisi2
 2518              		.loc 1 1328 65 view .LVU823
 2519 027c 0130     		adds	r0, r0, #1
 2520              		.loc 1 1328 20 view .LVU824
 2521 027e 40B2     		sxtb	r0, r0
 2522              	.LVL243:
 2523              	.L190:
1329:Src/BLDC_controller.c ****       }
1330:Src/BLDC_controller.c **** 
1331:Src/BLDC_controller.c ****       rtb_Merge_m = (int16_T)(((int16_T)((int16_T)((rtb_Merge_m << 14) /
 2524              		.loc 1 1331 7 is_stmt 1 view .LVU825
 2525              		.loc 1 1331 65 is_stmt 0 view .LVU826
 2526 0280 9B03     		lsls	r3, r3, #14
 2527              	.LVL244:
 2528              		.loc 1 1331 72 view .LVU827
 2529 0282 93FBF1F3 		sdiv	r3, r3, r1
 2530              		.loc 1 1331 42 view .LVU828
ARM GAS  /tmp/ccVzdWer.s 			page 71


 2531 0286 99B2     		uxth	r1, r3
1332:Src/BLDC_controller.c ****         rtDW->z_counterRawPrev) * rtDW->Switch2_e) + (rtb_Sum2_h << 14)) >> 2);
 2532              		.loc 1 1332 39 view .LVU829
 2533 0288 93B2     		uxth	r3, r2
 2534              		.loc 1 1332 33 view .LVU830
 2535 028a 03FB01F3 		mul	r3, r3, r1
1331:Src/BLDC_controller.c ****         rtDW->z_counterRawPrev) * rtDW->Switch2_e) + (rtb_Sum2_h << 14)) >> 2);
 2536              		.loc 1 1331 32 view .LVU831
 2537 028e 1BB2     		sxth	r3, r3
 2538              		.loc 1 1332 52 view .LVU832
 2539 0290 03EB8033 		add	r3, r3, r0, lsl #14
1331:Src/BLDC_controller.c ****         rtDW->z_counterRawPrev) * rtDW->Switch2_e) + (rtb_Sum2_h << 14)) >> 2);
 2540              		.loc 1 1331 19 view .LVU833
 2541 0294 43F38F03 		sbfx	r3, r3, #2, #16
 2542              	.LVL245:
 2543              	.L191:
1333:Src/BLDC_controller.c ****     } else {
1334:Src/BLDC_controller.c ****       if (rtDW->Switch2_e == 1) {
1335:Src/BLDC_controller.c ****         /* Switch: '<S14>/Switch3' incorporates:
1336:Src/BLDC_controller.c ****          *  Constant: '<S11>/vec_hallToPos'
1337:Src/BLDC_controller.c ****          *  Selector: '<S11>/Selector'
1338:Src/BLDC_controller.c ****          */
1339:Src/BLDC_controller.c ****         rtb_Sum2_h = rtConstP.vec_hallToPos_Value[Sum];
1340:Src/BLDC_controller.c ****       } else {
1341:Src/BLDC_controller.c ****         /* Switch: '<S14>/Switch3' incorporates:
1342:Src/BLDC_controller.c ****          *  Constant: '<S11>/vec_hallToPos'
1343:Src/BLDC_controller.c ****          *  Selector: '<S11>/Selector'
1344:Src/BLDC_controller.c ****          *  Sum: '<S14>/Sum1'
1345:Src/BLDC_controller.c ****          */
1346:Src/BLDC_controller.c ****         rtb_Sum2_h = (int8_T)(rtConstP.vec_hallToPos_Value[Sum] + 1);
1347:Src/BLDC_controller.c ****       }
1348:Src/BLDC_controller.c **** 
1349:Src/BLDC_controller.c ****       rtb_Merge_m = (int16_T)(rtb_Sum2_h << 12);
1350:Src/BLDC_controller.c ****     }
1351:Src/BLDC_controller.c **** 
1352:Src/BLDC_controller.c ****     /* End of Switch: '<S14>/Switch2' */
1353:Src/BLDC_controller.c **** 
1354:Src/BLDC_controller.c ****     /* MinMax: '<S14>/MinMax1' incorporates:
1355:Src/BLDC_controller.c ****      *  Constant: '<S14>/Constant1'
1356:Src/BLDC_controller.c ****      */
1357:Src/BLDC_controller.c ****     if (!(rtb_Merge_m > 0)) {
 2544              		.loc 1 1357 5 is_stmt 1 view .LVU834
 2545              		.loc 1 1357 8 is_stmt 0 view .LVU835
 2546 0298 002B     		cmp	r3, #0
 2547 029a 62DD     		ble	.L436
 2548              	.LVL246:
 2549              	.L194:
1358:Src/BLDC_controller.c ****       rtb_Merge_m = 0;
1359:Src/BLDC_controller.c ****     }
1360:Src/BLDC_controller.c **** 
1361:Src/BLDC_controller.c ****     /* End of MinMax: '<S14>/MinMax1' */
1362:Src/BLDC_controller.c **** 
1363:Src/BLDC_controller.c ****     /* SignalConversion: '<S14>/Signal Conversion2' incorporates:
1364:Src/BLDC_controller.c ****      *  Product: '<S14>/Divide2'
1365:Src/BLDC_controller.c ****      */
1366:Src/BLDC_controller.c ****     rtb_Merge_m = (int16_T)((15 * rtb_Merge_m) >> 4);
 2550              		.loc 1 1366 5 is_stmt 1 view .LVU836
ARM GAS  /tmp/ccVzdWer.s 			page 72


 2551              		.loc 1 1366 33 is_stmt 0 view .LVU837
 2552 029c C3EB0313 		rsb	r3, r3, r3, lsl #4
 2553              	.LVL247:
 2554              		.loc 1 1366 17 view .LVU838
 2555 02a0 43F30F13 		sbfx	r3, r3, #4, #16
 2556 02a4 0A93     		str	r3, [sp, #40]
 2557              	.LVL248:
 2558              	.L195:
1367:Src/BLDC_controller.c **** 
1368:Src/BLDC_controller.c ****     /* End of Outputs for SubSystem: '<S3>/F01_05_Electrical_Angle_Estimation' */
1369:Src/BLDC_controller.c ****   } else {
1370:Src/BLDC_controller.c ****     /* Outputs for IfAction SubSystem: '<S3>/F01_06_Electrical_Angle_Measurement' incorporates:
1371:Src/BLDC_controller.c ****      *  ActionPort: '<S15>/Action Port'
1372:Src/BLDC_controller.c ****      */
1373:Src/BLDC_controller.c ****     /* Sum: '<S15>/Sum1' incorporates:
1374:Src/BLDC_controller.c ****      *  Constant: '<S15>/Constant2'
1375:Src/BLDC_controller.c ****      *  Constant: '<S15>/n_polePairs'
1376:Src/BLDC_controller.c ****      *  Inport: '<Root>/a_mechAngle'
1377:Src/BLDC_controller.c ****      *  Product: '<S15>/Divide'
1378:Src/BLDC_controller.c ****      */
1379:Src/BLDC_controller.c ****     rtb_Sum1_jt = rtU->a_mechAngle * rtP->n_polePairs - 480;
1380:Src/BLDC_controller.c **** 
1381:Src/BLDC_controller.c ****     /* DataTypeConversion: '<S15>/Data Type Conversion20' incorporates:
1382:Src/BLDC_controller.c ****      *  Constant: '<S15>/a_elecPeriod'
1383:Src/BLDC_controller.c ****      *  Product: '<S19>/Divide2'
1384:Src/BLDC_controller.c ****      *  Product: '<S19>/Divide3'
1385:Src/BLDC_controller.c ****      *  Sum: '<S19>/Sum3'
1386:Src/BLDC_controller.c ****      */
1387:Src/BLDC_controller.c ****     rtb_Merge_m = (int16_T)((int16_T)(rtb_Sum1_jt - ((int16_T)((int16_T)
1388:Src/BLDC_controller.c ****       div_nde_s32_floor(rtb_Sum1_jt, 5760) * 360) << 4)) << 2);
1389:Src/BLDC_controller.c **** 
1390:Src/BLDC_controller.c ****     /* End of Outputs for SubSystem: '<S3>/F01_06_Electrical_Angle_Measurement' */
1391:Src/BLDC_controller.c ****   }
1392:Src/BLDC_controller.c **** 
1393:Src/BLDC_controller.c ****   /* End of If: '<S3>/If1' */
1394:Src/BLDC_controller.c **** 
1395:Src/BLDC_controller.c ****   /* If: '<S7>/If1' incorporates:
1396:Src/BLDC_controller.c ****    *  Constant: '<S1>/z_ctrlTypSel'
1397:Src/BLDC_controller.c ****    */
1398:Src/BLDC_controller.c ****   rtb_Sum2_h = rtDW->If1_ActiveSubsystem;
 2559              		.loc 1 1398 3 is_stmt 1 view .LVU839
 2560              		.loc 1 1398 14 is_stmt 0 view .LVU840
 2561 02a6 94F99030 		ldrsb	r3, [r4, #144]
 2562              	.LVL249:
1399:Src/BLDC_controller.c ****   UnitDelay3 = -1;
 2563              		.loc 1 1399 3 is_stmt 1 view .LVU841
1400:Src/BLDC_controller.c ****   if (rtP->z_ctrlTypSel == 2) {
 2564              		.loc 1 1400 3 view .LVU842
 2565              		.loc 1 1400 10 is_stmt 0 view .LVU843
 2566 02aa 95F8F920 		ldrb	r2, [r5, #249]	@ zero_extendqisi2
 2567              		.loc 1 1400 6 view .LVU844
 2568 02ae 022A     		cmp	r2, #2
 2569 02b0 00F08280 		beq	.L358
1399:Src/BLDC_controller.c ****   UnitDelay3 = -1;
 2570              		.loc 1 1399 14 view .LVU845
 2571 02b4 4FF0FF39 		mov	r9, #-1
 2572              	.L196:
ARM GAS  /tmp/ccVzdWer.s 			page 73


 2573              	.LVL250:
1401:Src/BLDC_controller.c ****     UnitDelay3 = 0;
1402:Src/BLDC_controller.c ****   }
1403:Src/BLDC_controller.c **** 
1404:Src/BLDC_controller.c ****   rtDW->If1_ActiveSubsystem = UnitDelay3;
 2574              		.loc 1 1404 3 is_stmt 1 view .LVU846
 2575              		.loc 1 1404 29 is_stmt 0 view .LVU847
 2576 02b8 84F89090 		strb	r9, [r4, #144]
1405:Src/BLDC_controller.c ****   if ((rtb_Sum2_h != UnitDelay3) && (rtb_Sum2_h == 0)) {
 2577              		.loc 1 1405 3 is_stmt 1 view .LVU848
 2578              		.loc 1 1405 6 is_stmt 0 view .LVU849
 2579 02bc 9945     		cmp	r9, r3
 2580 02be 0ED0     		beq	.L197
 2581              		.loc 1 1405 34 discriminator 1 view .LVU850
 2582 02c0 6BB9     		cbnz	r3, .L197
1406:Src/BLDC_controller.c ****     /* Disable for If: '<S45>/If2' */
1407:Src/BLDC_controller.c ****     if (rtDW->If2_ActiveSubsystem_a == 0) {
 2583              		.loc 1 1407 5 is_stmt 1 view .LVU851
1408:Src/BLDC_controller.c ****       /* Disable for Outport: '<S50>/iq' */
1409:Src/BLDC_controller.c ****       rtDW->DataTypeConversion[0] = 0;
1410:Src/BLDC_controller.c **** 
1411:Src/BLDC_controller.c ****       /* Disable for Outport: '<S50>/iqAbs' */
1412:Src/BLDC_controller.c ****       rtDW->Abs5_h = 0;
1413:Src/BLDC_controller.c **** 
1414:Src/BLDC_controller.c ****       /* Disable for Outport: '<S50>/id' */
1415:Src/BLDC_controller.c ****       rtDW->DataTypeConversion[1] = 0;
1416:Src/BLDC_controller.c ****     }
1417:Src/BLDC_controller.c **** 
1418:Src/BLDC_controller.c ****     rtDW->If2_ActiveSubsystem_a = -1;
 2584              		.loc 1 1418 5 view .LVU852
 2585              		.loc 1 1418 33 is_stmt 0 view .LVU853
 2586 02c2 FF23     		movs	r3, #255
 2587              	.LVL251:
 2588              		.loc 1 1418 33 view .LVU854
 2589 02c4 84F89830 		strb	r3, [r4, #152]
1419:Src/BLDC_controller.c **** 
1420:Src/BLDC_controller.c ****     /* End of Disable for If: '<S45>/If2' */
1421:Src/BLDC_controller.c **** 
1422:Src/BLDC_controller.c ****     /* Disable for Outport: '<S45>/r_sin' */
1423:Src/BLDC_controller.c ****     rtDW->r_sin_M1 = 0;
 2590              		.loc 1 1423 5 is_stmt 1 view .LVU855
 2591              		.loc 1 1423 20 is_stmt 0 view .LVU856
 2592 02c8 0023     		movs	r3, #0
 2593 02ca A4F87C30 		strh	r3, [r4, #124]	@ movhi
1424:Src/BLDC_controller.c **** 
1425:Src/BLDC_controller.c ****     /* Disable for Outport: '<S45>/r_cos' */
1426:Src/BLDC_controller.c ****     rtDW->r_cos_M1 = 0;
 2594              		.loc 1 1426 5 is_stmt 1 view .LVU857
 2595              		.loc 1 1426 20 is_stmt 0 view .LVU858
 2596 02ce A4F87E30 		strh	r3, [r4, #126]	@ movhi
1427:Src/BLDC_controller.c **** 
1428:Src/BLDC_controller.c ****     /* Disable for Outport: '<S45>/iq' */
1429:Src/BLDC_controller.c ****     rtDW->DataTypeConversion[0] = 0;
 2597              		.loc 1 1429 5 is_stmt 1 view .LVU859
 2598              		.loc 1 1429 33 is_stmt 0 view .LVU860
 2599 02d2 A4F85230 		strh	r3, [r4, #82]	@ movhi
1430:Src/BLDC_controller.c **** 
ARM GAS  /tmp/ccVzdWer.s 			page 74


1431:Src/BLDC_controller.c ****     /* Disable for Outport: '<S45>/id' */
1432:Src/BLDC_controller.c ****     rtDW->DataTypeConversion[1] = 0;
 2600              		.loc 1 1432 5 is_stmt 1 view .LVU861
 2601              		.loc 1 1432 33 is_stmt 0 view .LVU862
 2602 02d6 A4F85430 		strh	r3, [r4, #84]	@ movhi
1433:Src/BLDC_controller.c **** 
1434:Src/BLDC_controller.c ****     /* Disable for Outport: '<S45>/iqAbs' */
1435:Src/BLDC_controller.c ****     rtDW->Abs5_h = 0;
 2603              		.loc 1 1435 5 is_stmt 1 view .LVU863
 2604              		.loc 1 1435 18 is_stmt 0 view .LVU864
 2605 02da A4F87830 		strh	r3, [r4, #120]	@ movhi
 2606              	.L197:
1436:Src/BLDC_controller.c ****   }
1437:Src/BLDC_controller.c **** 
1438:Src/BLDC_controller.c ****   if (UnitDelay3 == 0) {
 2607              		.loc 1 1438 3 is_stmt 1 view .LVU865
 2608              		.loc 1 1438 6 is_stmt 0 view .LVU866
 2609 02de B9F1000F 		cmp	r9, #0
 2610 02e2 40F03E81 		bne	.L198
1439:Src/BLDC_controller.c ****     /* Outputs for IfAction SubSystem: '<S7>/Clarke_Park_Transform_Forward' incorporates:
1440:Src/BLDC_controller.c ****      *  ActionPort: '<S45>/Action Port'
1441:Src/BLDC_controller.c ****      */
1442:Src/BLDC_controller.c ****     /* If: '<S49>/If1' incorporates:
1443:Src/BLDC_controller.c ****      *  Constant: '<S49>/z_selPhaCurMeasABC'
1444:Src/BLDC_controller.c ****      */
1445:Src/BLDC_controller.c ****     if (rtP->z_selPhaCurMeasABC == 0) {
 2611              		.loc 1 1445 5 is_stmt 1 view .LVU867
 2612              		.loc 1 1445 12 is_stmt 0 view .LVU868
 2613 02e6 95F8FA30 		ldrb	r3, [r5, #250]	@ zero_extendqisi2
 2614              		.loc 1 1445 8 view .LVU869
 2615 02ea 002B     		cmp	r3, #0
 2616 02ec 40F0B480 		bne	.L199
1446:Src/BLDC_controller.c ****       /* Outputs for IfAction SubSystem: '<S49>/Clarke_PhasesAB' incorporates:
1447:Src/BLDC_controller.c ****        *  ActionPort: '<S53>/Action Port'
1448:Src/BLDC_controller.c ****        */
1449:Src/BLDC_controller.c ****       /* Gain: '<S53>/Gain4' */
1450:Src/BLDC_controller.c ****       rtb_Gain3 = 18919 * rtb_Saturation;
 2617              		.loc 1 1450 7 is_stmt 1 view .LVU870
 2618              		.loc 1 1450 17 is_stmt 0 view .LVU871
 2619 02f0 44F6E712 		movw	r2, #18919
 2620 02f4 02FB0AF1 		mul	r1, r2, r10
 2621              	.LVL252:
1451:Src/BLDC_controller.c **** 
1452:Src/BLDC_controller.c ****       /* Gain: '<S53>/Gain2' */
1453:Src/BLDC_controller.c ****       rtb_Sum1_jt = 18919 * rtb_Saturation1;
 2622              		.loc 1 1453 7 is_stmt 1 view .LVU872
 2623              		.loc 1 1453 19 is_stmt 0 view .LVU873
 2624 02f8 02FB08F8 		mul	r8, r2, r8
 2625              	.LVL253:
1454:Src/BLDC_controller.c **** 
1455:Src/BLDC_controller.c ****       /* Sum: '<S53>/Sum1' incorporates:
1456:Src/BLDC_controller.c ****        *  Gain: '<S53>/Gain2'
1457:Src/BLDC_controller.c ****        *  Gain: '<S53>/Gain4'
1458:Src/BLDC_controller.c ****        */
1459:Src/BLDC_controller.c ****       rtb_Gain3 = (((rtb_Gain3 < 0 ? 32767 : 0) + rtb_Gain3) >> 15) + (int16_T)
 2626              		.loc 1 1459 7 is_stmt 1 view .LVU874
 2627              		.loc 1 1459 44 is_stmt 0 view .LVU875
ARM GAS  /tmp/ccVzdWer.s 			page 75


 2628 02fc 0029     		cmp	r1, #0
 2629 02fe 5EDB     		blt	.L437
 2630 0300 0023     		movs	r3, #0
 2631              	.L200:
 2632              		.loc 1 1459 49 discriminator 4 view .LVU876
 2633 0302 0B44     		add	r3, r3, r1
 2634              		.loc 1 1459 62 discriminator 4 view .LVU877
 2635 0304 DB13     		asrs	r3, r3, #15
1460:Src/BLDC_controller.c ****         (((rtb_Sum1_jt < 0 ? 16383 : 0) + rtb_Sum1_jt) >> 14);
 2636              		.loc 1 1460 36 discriminator 4 view .LVU878
 2637 0306 B8F1000F 		cmp	r8, #0
 2638 030a 5BDB     		blt	.L438
 2639              		.loc 1 1460 36 view .LVU879
 2640 030c 0022     		movs	r2, #0
 2641              	.L201:
 2642              		.loc 1 1460 41 discriminator 4 view .LVU880
 2643 030e 9044     		add	r8, r8, r2
 2644              	.LVL254:
1459:Src/BLDC_controller.c ****         (((rtb_Sum1_jt < 0 ? 16383 : 0) + rtb_Sum1_jt) >> 14);
 2645              		.loc 1 1459 71 discriminator 4 view .LVU881
 2646 0310 48F38F38 		sbfx	r8, r8, #14, #16
1459:Src/BLDC_controller.c ****         (((rtb_Sum1_jt < 0 ? 16383 : 0) + rtb_Sum1_jt) >> 14);
 2647              		.loc 1 1459 17 discriminator 4 view .LVU882
 2648 0314 4344     		add	r3, r3, r8
 2649              	.LVL255:
1461:Src/BLDC_controller.c ****       if (rtb_Gain3 > 32767) {
 2650              		.loc 1 1461 7 is_stmt 1 discriminator 4 view .LVU883
 2651              		.loc 1 1461 10 is_stmt 0 discriminator 4 view .LVU884
 2652 0316 B3F5004F 		cmp	r3, #32768
 2653 031a 56DA     		bge	.L361
1462:Src/BLDC_controller.c ****         rtb_Gain3 = 32767;
1463:Src/BLDC_controller.c ****       } else {
1464:Src/BLDC_controller.c ****         if (rtb_Gain3 < -32768) {
 2654              		.loc 1 1464 9 is_stmt 1 view .LVU885
 2655              		.loc 1 1464 12 is_stmt 0 view .LVU886
 2656 031c 13F5004F 		cmn	r3, #32768
 2657 0320 55DA     		bge	.L202
1465:Src/BLDC_controller.c ****           rtb_Gain3 = -32768;
 2658              		.loc 1 1465 21 view .LVU887
 2659 0322 134B     		ldr	r3, .L467+8
 2660              	.LVL256:
 2661              		.loc 1 1465 21 view .LVU888
 2662 0324 53E0     		b	.L202
 2663              	.LVL257:
 2664              	.L355:
1287:Src/BLDC_controller.c ****   } else {
 2665              		.loc 1 1287 21 view .LVU889
 2666 0326 DFF84C80 		ldr	r8, .L467+12
 2667              	.LVL258:
1287:Src/BLDC_controller.c ****   } else {
 2668              		.loc 1 1287 21 view .LVU890
 2669 032a 91E7     		b	.L185
 2670              	.LVL259:
 2671              	.L435:
1326:Src/BLDC_controller.c ****       } else {
 2672              		.loc 1 1326 9 is_stmt 1 view .LVU891
1326:Src/BLDC_controller.c ****       } else {
ARM GAS  /tmp/ccVzdWer.s 			page 76


 2673              		.loc 1 1326 20 is_stmt 0 view .LVU892
 2674 032c DFF838C0 		ldr	ip, .L467
 2675 0330 0998     		ldr	r0, [sp, #36]
 2676              	.LVL260:
1326:Src/BLDC_controller.c ****       } else {
 2677              		.loc 1 1326 20 view .LVU893
 2678 0332 6044     		add	r0, r0, ip
 2679 0334 90F98807 		ldrsb	r0, [r0, #1928]
 2680              	.LVL261:
1326:Src/BLDC_controller.c ****       } else {
 2681              		.loc 1 1326 20 view .LVU894
 2682 0338 A2E7     		b	.L190
 2683              	.LVL262:
 2684              	.L187:
1334:Src/BLDC_controller.c ****         /* Switch: '<S14>/Switch3' incorporates:
 2685              		.loc 1 1334 7 is_stmt 1 view .LVU895
1334:Src/BLDC_controller.c ****         /* Switch: '<S14>/Switch3' incorporates:
 2686              		.loc 1 1334 15 is_stmt 0 view .LVU896
 2687 033a 94F98E30 		ldrsb	r3, [r4, #142]
1334:Src/BLDC_controller.c ****         /* Switch: '<S14>/Switch3' incorporates:
 2688              		.loc 1 1334 10 view .LVU897
 2689 033e 012B     		cmp	r3, #1
 2690 0340 09D0     		beq	.L439
1346:Src/BLDC_controller.c ****       }
 2691              		.loc 1 1346 9 is_stmt 1 view .LVU898
1346:Src/BLDC_controller.c ****       }
 2692              		.loc 1 1346 59 is_stmt 0 view .LVU899
 2693 0342 094B     		ldr	r3, .L467
 2694 0344 099A     		ldr	r2, [sp, #36]
 2695 0346 1344     		add	r3, r3, r2
 2696 0348 93F88837 		ldrb	r3, [r3, #1928]	@ zero_extendqisi2
1346:Src/BLDC_controller.c ****       }
 2697              		.loc 1 1346 65 view .LVU900
 2698 034c 0133     		adds	r3, r3, #1
1346:Src/BLDC_controller.c ****       }
 2699              		.loc 1 1346 20 view .LVU901
 2700 034e 5BB2     		sxtb	r3, r3
 2701              	.LVL263:
 2702              	.L193:
1349:Src/BLDC_controller.c ****     }
 2703              		.loc 1 1349 7 is_stmt 1 view .LVU902
1349:Src/BLDC_controller.c ****     }
 2704              		.loc 1 1349 42 is_stmt 0 view .LVU903
 2705 0350 1B03     		lsls	r3, r3, #12
 2706              	.LVL264:
1349:Src/BLDC_controller.c ****     }
 2707              		.loc 1 1349 19 view .LVU904
 2708 0352 1BB2     		sxth	r3, r3
 2709              	.LVL265:
1349:Src/BLDC_controller.c ****     }
 2710              		.loc 1 1349 19 view .LVU905
 2711 0354 A0E7     		b	.L191
 2712              	.LVL266:
 2713              	.L439:
1339:Src/BLDC_controller.c ****       } else {
 2714              		.loc 1 1339 9 is_stmt 1 view .LVU906
1339:Src/BLDC_controller.c ****       } else {
ARM GAS  /tmp/ccVzdWer.s 			page 77


 2715              		.loc 1 1339 20 is_stmt 0 view .LVU907
 2716 0356 044B     		ldr	r3, .L467
 2717 0358 099A     		ldr	r2, [sp, #36]
 2718 035a 1344     		add	r3, r3, r2
 2719 035c 93F98837 		ldrsb	r3, [r3, #1928]
 2720              	.LVL267:
1339:Src/BLDC_controller.c ****       } else {
 2721              		.loc 1 1339 20 view .LVU908
 2722 0360 F6E7     		b	.L193
 2723              	.LVL268:
 2724              	.L436:
1358:Src/BLDC_controller.c ****     }
 2725              		.loc 1 1358 19 view .LVU909
 2726 0362 0023     		movs	r3, #0
 2727              	.LVL269:
1358:Src/BLDC_controller.c ****     }
 2728              		.loc 1 1358 19 view .LVU910
 2729 0364 9AE7     		b	.L194
 2730              	.L468:
 2731 0366 00BF     		.align	2
 2732              	.L467:
 2733 0368 00000000 		.word	rtConstP
 2734 036c C195FFFF 		.word	-27199
 2735 0370 0080FFFF 		.word	-32768
 2736 0374 C095FFFF 		.word	-27200
 2737              	.LVL270:
 2738              	.L186:
1379:Src/BLDC_controller.c **** 
 2739              		.loc 1 1379 5 is_stmt 1 view .LVU911
1379:Src/BLDC_controller.c **** 
 2740              		.loc 1 1379 22 is_stmt 0 view .LVU912
 2741 0378 B6F90E30 		ldrsh	r3, [r6, #14]
1379:Src/BLDC_controller.c **** 
 2742              		.loc 1 1379 41 view .LVU913
 2743 037c 95F8F890 		ldrb	r9, [r5, #248]	@ zero_extendqisi2
1379:Src/BLDC_controller.c **** 
 2744              		.loc 1 1379 36 view .LVU914
 2745 0380 09FB03F9 		mul	r9, r9, r3
1379:Src/BLDC_controller.c **** 
 2746              		.loc 1 1379 17 view .LVU915
 2747 0384 A9F5F079 		sub	r9, r9, #480
 2748              	.LVL271:
1387:Src/BLDC_controller.c ****       div_nde_s32_floor(rtb_Sum1_jt, 5760) * 360) << 4)) << 2);
 2749              		.loc 1 1387 5 is_stmt 1 view .LVU916
1388:Src/BLDC_controller.c **** 
 2750              		.loc 1 1388 7 is_stmt 0 view .LVU917
 2751 0388 4FF4B451 		mov	r1, #5760
 2752 038c 4846     		mov	r0, r9
 2753              	.LVL272:
1388:Src/BLDC_controller.c **** 
 2754              		.loc 1 1388 7 view .LVU918
 2755 038e FFF7FEFF 		bl	div_nde_s32_floor
 2756              	.LVL273:
1387:Src/BLDC_controller.c ****       div_nde_s32_floor(rtb_Sum1_jt, 5760) * 360) << 4)) << 2);
 2757              		.loc 1 1387 64 view .LVU919
 2758 0392 80B2     		uxth	r0, r0
1388:Src/BLDC_controller.c **** 
ARM GAS  /tmp/ccVzdWer.s 			page 78


 2759              		.loc 1 1388 44 view .LVU920
 2760 0394 00EB4000 		add	r0, r0, r0, lsl #1
 2761 0398 C0EB0013 		rsb	r3, r0, r0, lsl #4
 2762 039c DB00     		lsls	r3, r3, #3
 2763 039e 9BB2     		uxth	r3, r3
1388:Src/BLDC_controller.c **** 
 2764              		.loc 1 1388 51 view .LVU921
 2765 03a0 1B01     		lsls	r3, r3, #4
 2766 03a2 9BB2     		uxth	r3, r3
1387:Src/BLDC_controller.c ****       div_nde_s32_floor(rtb_Sum1_jt, 5760) * 360) << 4)) << 2);
 2767              		.loc 1 1387 51 view .LVU922
 2768 03a4 A9EB0309 		sub	r9, r9, r3
 2769              	.LVL274:
1387:Src/BLDC_controller.c ****       div_nde_s32_floor(rtb_Sum1_jt, 5760) * 360) << 4)) << 2);
 2770              		.loc 1 1387 29 view .LVU923
 2771 03a8 0FFA89F9 		sxth	r9, r9
1388:Src/BLDC_controller.c **** 
 2772              		.loc 1 1388 58 view .LVU924
 2773 03ac 4FEA8909 		lsl	r9, r9, #2
1387:Src/BLDC_controller.c ****       div_nde_s32_floor(rtb_Sum1_jt, 5760) * 360) << 4)) << 2);
 2774              		.loc 1 1387 17 view .LVU925
 2775 03b0 0FFA89F3 		sxth	r3, r9
 2776 03b4 0A93     		str	r3, [sp, #40]
 2777              	.LVL275:
1387:Src/BLDC_controller.c ****       div_nde_s32_floor(rtb_Sum1_jt, 5760) * 360) << 4)) << 2);
 2778              		.loc 1 1387 17 view .LVU926
 2779 03b6 76E7     		b	.L195
 2780              	.LVL276:
 2781              	.L358:
1401:Src/BLDC_controller.c ****   }
 2782              		.loc 1 1401 16 view .LVU927
 2783 03b8 4FF00009 		mov	r9, #0
 2784 03bc 7CE7     		b	.L196
 2785              	.LVL277:
 2786              	.L437:
1459:Src/BLDC_controller.c ****         (((rtb_Sum1_jt < 0 ? 16383 : 0) + rtb_Sum1_jt) >> 14);
 2787              		.loc 1 1459 44 view .LVU928
 2788 03be 47F6FF73 		movw	r3, #32767
 2789 03c2 9EE7     		b	.L200
 2790              	.L438:
1460:Src/BLDC_controller.c ****       if (rtb_Gain3 > 32767) {
 2791              		.loc 1 1460 36 view .LVU929
 2792 03c4 43F6FF72 		movw	r2, #16383
 2793 03c8 A1E7     		b	.L201
 2794              	.LVL278:
 2795              	.L361:
1462:Src/BLDC_controller.c ****       } else {
 2796              		.loc 1 1462 19 view .LVU930
 2797 03ca 47F6FF73 		movw	r3, #32767
 2798              	.LVL279:
 2799              	.L202:
1466:Src/BLDC_controller.c ****         }
1467:Src/BLDC_controller.c ****       }
1468:Src/BLDC_controller.c **** 
1469:Src/BLDC_controller.c ****       rtb_Merge1 = (int16_T)rtb_Gain3;
 2800              		.loc 1 1469 7 is_stmt 1 view .LVU931
 2801              		.loc 1 1469 18 is_stmt 0 view .LVU932
ARM GAS  /tmp/ccVzdWer.s 			page 79


 2802 03ce 0FFA83F8 		sxth	r8, r3
 2803              	.LVL280:
 2804              	.L203:
1470:Src/BLDC_controller.c **** 
1471:Src/BLDC_controller.c ****       /* End of Sum: '<S53>/Sum1' */
1472:Src/BLDC_controller.c ****       /* End of Outputs for SubSystem: '<S49>/Clarke_PhasesAB' */
1473:Src/BLDC_controller.c ****     } else if (rtP->z_selPhaCurMeasABC == 1) {
1474:Src/BLDC_controller.c ****       /* Outputs for IfAction SubSystem: '<S49>/Clarke_PhasesBC' incorporates:
1475:Src/BLDC_controller.c ****        *  ActionPort: '<S55>/Action Port'
1476:Src/BLDC_controller.c ****        */
1477:Src/BLDC_controller.c ****       /* Sum: '<S55>/Sum3' */
1478:Src/BLDC_controller.c ****       rtb_Gain3 = rtb_Saturation - rtb_Saturation1;
1479:Src/BLDC_controller.c ****       if (rtb_Gain3 > 32767) {
1480:Src/BLDC_controller.c ****         rtb_Gain3 = 32767;
1481:Src/BLDC_controller.c ****       } else {
1482:Src/BLDC_controller.c ****         if (rtb_Gain3 < -32768) {
1483:Src/BLDC_controller.c ****           rtb_Gain3 = -32768;
1484:Src/BLDC_controller.c ****         }
1485:Src/BLDC_controller.c ****       }
1486:Src/BLDC_controller.c **** 
1487:Src/BLDC_controller.c ****       /* Gain: '<S55>/Gain2' incorporates:
1488:Src/BLDC_controller.c ****        *  Sum: '<S55>/Sum3'
1489:Src/BLDC_controller.c ****        */
1490:Src/BLDC_controller.c ****       rtb_Gain3 *= 18919;
1491:Src/BLDC_controller.c ****       rtb_Merge1 = (int16_T)(((rtb_Gain3 < 0 ? 32767 : 0) + rtb_Gain3) >> 15);
1492:Src/BLDC_controller.c **** 
1493:Src/BLDC_controller.c ****       /* Sum: '<S55>/Sum1' */
1494:Src/BLDC_controller.c ****       rtb_Gain3 = -rtb_Saturation - rtb_Saturation1;
1495:Src/BLDC_controller.c ****       if (rtb_Gain3 > 32767) {
1496:Src/BLDC_controller.c ****         rtb_Gain3 = 32767;
1497:Src/BLDC_controller.c ****       } else {
1498:Src/BLDC_controller.c ****         if (rtb_Gain3 < -32768) {
1499:Src/BLDC_controller.c ****           rtb_Gain3 = -32768;
1500:Src/BLDC_controller.c ****         }
1501:Src/BLDC_controller.c ****       }
1502:Src/BLDC_controller.c **** 
1503:Src/BLDC_controller.c ****       rtb_Saturation = (int16_T)rtb_Gain3;
1504:Src/BLDC_controller.c **** 
1505:Src/BLDC_controller.c ****       /* End of Sum: '<S55>/Sum1' */
1506:Src/BLDC_controller.c ****       /* End of Outputs for SubSystem: '<S49>/Clarke_PhasesBC' */
1507:Src/BLDC_controller.c ****     } else {
1508:Src/BLDC_controller.c ****       /* Outputs for IfAction SubSystem: '<S49>/Clarke_PhasesAC' incorporates:
1509:Src/BLDC_controller.c ****        *  ActionPort: '<S54>/Action Port'
1510:Src/BLDC_controller.c ****        */
1511:Src/BLDC_controller.c ****       /* Gain: '<S54>/Gain4' */
1512:Src/BLDC_controller.c ****       rtb_Gain3 = 18919 * rtb_Saturation;
1513:Src/BLDC_controller.c **** 
1514:Src/BLDC_controller.c ****       /* Gain: '<S54>/Gain2' */
1515:Src/BLDC_controller.c ****       rtb_Sum1_jt = 18919 * rtb_Saturation1;
1516:Src/BLDC_controller.c **** 
1517:Src/BLDC_controller.c ****       /* Sum: '<S54>/Sum1' incorporates:
1518:Src/BLDC_controller.c ****        *  Gain: '<S54>/Gain2'
1519:Src/BLDC_controller.c ****        *  Gain: '<S54>/Gain4'
1520:Src/BLDC_controller.c ****        */
1521:Src/BLDC_controller.c ****       rtb_Gain3 = -(((rtb_Gain3 < 0 ? 32767 : 0) + rtb_Gain3) >> 15) - (int16_T)
1522:Src/BLDC_controller.c ****         (((rtb_Sum1_jt < 0 ? 16383 : 0) + rtb_Sum1_jt) >> 14);
1523:Src/BLDC_controller.c ****       if (rtb_Gain3 > 32767) {
ARM GAS  /tmp/ccVzdWer.s 			page 80


1524:Src/BLDC_controller.c ****         rtb_Gain3 = 32767;
1525:Src/BLDC_controller.c ****       } else {
1526:Src/BLDC_controller.c ****         if (rtb_Gain3 < -32768) {
1527:Src/BLDC_controller.c ****           rtb_Gain3 = -32768;
1528:Src/BLDC_controller.c ****         }
1529:Src/BLDC_controller.c ****       }
1530:Src/BLDC_controller.c **** 
1531:Src/BLDC_controller.c ****       rtb_Merge1 = (int16_T)rtb_Gain3;
1532:Src/BLDC_controller.c **** 
1533:Src/BLDC_controller.c ****       /* End of Sum: '<S54>/Sum1' */
1534:Src/BLDC_controller.c ****       /* End of Outputs for SubSystem: '<S49>/Clarke_PhasesAC' */
1535:Src/BLDC_controller.c ****     }
1536:Src/BLDC_controller.c **** 
1537:Src/BLDC_controller.c ****     /* End of If: '<S49>/If1' */
1538:Src/BLDC_controller.c **** 
1539:Src/BLDC_controller.c ****     /* PreLookup: '<S52>/a_elecAngle_XA' */
1540:Src/BLDC_controller.c ****     rtb_a_elecAngle_XA_g = plook_u8s16_evencka(rtb_Merge_m, 0, 128U, 180U);
 2805              		.loc 1 1540 5 is_stmt 1 view .LVU933
 2806              		.loc 1 1540 28 is_stmt 0 view .LVU934
 2807 03d2 B423     		movs	r3, #180
 2808 03d4 8022     		movs	r2, #128
 2809 03d6 0021     		movs	r1, #0
 2810 03d8 0A98     		ldr	r0, [sp, #40]
 2811 03da FFF7FEFF 		bl	plook_u8s16_evencka
 2812              	.LVL281:
1541:Src/BLDC_controller.c **** 
1542:Src/BLDC_controller.c ****     /* Interpolation_n-D: '<S52>/r_sin_M1' */
1543:Src/BLDC_controller.c ****     rtDW->r_sin_M1 = rtConstP.r_sin_M1_Table[rtb_a_elecAngle_XA_g];
 2813              		.loc 1 1543 5 is_stmt 1 view .LVU935
 2814              		.loc 1 1543 45 is_stmt 0 view .LVU936
 2815 03de B74B     		ldr	r3, .L469
 2816 03e0 33F91020 		ldrsh	r2, [r3, r0, lsl #1]
 2817              		.loc 1 1543 20 view .LVU937
 2818 03e4 A4F87C20 		strh	r2, [r4, #124]	@ movhi
1544:Src/BLDC_controller.c **** 
1545:Src/BLDC_controller.c ****     /* Interpolation_n-D: '<S52>/r_cos_M1' */
1546:Src/BLDC_controller.c ****     rtDW->r_cos_M1 = rtConstP.r_cos_M1_Table[rtb_a_elecAngle_XA_g];
 2819              		.loc 1 1546 5 is_stmt 1 view .LVU938
 2820              		.loc 1 1546 45 is_stmt 0 view .LVU939
 2821 03e8 B430     		adds	r0, r0, #180
 2822              	.LVL282:
 2823              		.loc 1 1546 45 view .LVU940
 2824 03ea 03EB4000 		add	r0, r3, r0, lsl #1
 2825 03ee B0F90230 		ldrsh	r3, [r0, #2]
 2826              		.loc 1 1546 20 view .LVU941
 2827 03f2 A4F87E30 		strh	r3, [r4, #126]	@ movhi
1547:Src/BLDC_controller.c **** 
1548:Src/BLDC_controller.c ****     /* If: '<S45>/If2' incorporates:
1549:Src/BLDC_controller.c ****      *  Constant: '<S50>/cf_currFilt'
1550:Src/BLDC_controller.c ****      *  Inport: '<Root>/b_motEna'
1551:Src/BLDC_controller.c ****      */
1552:Src/BLDC_controller.c ****     rtb_Sum2_h = rtDW->If2_ActiveSubsystem_a;
 2828              		.loc 1 1552 5 is_stmt 1 view .LVU942
 2829              		.loc 1 1552 16 is_stmt 0 view .LVU943
 2830 03f6 94F99830 		ldrsb	r3, [r4, #152]
 2831              	.LVL283:
1553:Src/BLDC_controller.c ****     UnitDelay3 = -1;
ARM GAS  /tmp/ccVzdWer.s 			page 81


 2832              		.loc 1 1553 5 is_stmt 1 view .LVU944
1554:Src/BLDC_controller.c ****     if (rtU->b_motEna) {
 2833              		.loc 1 1554 5 view .LVU945
 2834              		.loc 1 1554 12 is_stmt 0 view .LVU946
 2835 03fa 3278     		ldrb	r2, [r6]	@ zero_extendqisi2
 2836              		.loc 1 1554 8 view .LVU947
 2837 03fc 0AB9     		cbnz	r2, .L211
1553:Src/BLDC_controller.c ****     UnitDelay3 = -1;
 2838              		.loc 1 1553 16 view .LVU948
 2839 03fe 4FF0FF39 		mov	r9, #-1
 2840              	.L211:
 2841              	.LVL284:
1555:Src/BLDC_controller.c ****       UnitDelay3 = 0;
1556:Src/BLDC_controller.c ****     }
1557:Src/BLDC_controller.c **** 
1558:Src/BLDC_controller.c ****     rtDW->If2_ActiveSubsystem_a = UnitDelay3;
 2842              		.loc 1 1558 5 is_stmt 1 view .LVU949
 2843              		.loc 1 1558 33 is_stmt 0 view .LVU950
 2844 0402 84F89890 		strb	r9, [r4, #152]
1559:Src/BLDC_controller.c ****     if ((rtb_Sum2_h != UnitDelay3) && (rtb_Sum2_h == 0)) {
 2845              		.loc 1 1559 5 is_stmt 1 view .LVU951
 2846              		.loc 1 1559 8 is_stmt 0 view .LVU952
 2847 0406 9945     		cmp	r9, r3
 2848 0408 07D0     		beq	.L212
 2849              		.loc 1 1559 36 discriminator 1 view .LVU953
 2850 040a 33B9     		cbnz	r3, .L212
1560:Src/BLDC_controller.c ****       /* Disable for Outport: '<S50>/iq' */
1561:Src/BLDC_controller.c ****       rtDW->DataTypeConversion[0] = 0;
 2851              		.loc 1 1561 7 is_stmt 1 view .LVU954
 2852              		.loc 1 1561 35 is_stmt 0 view .LVU955
 2853 040c 0022     		movs	r2, #0
 2854 040e A4F85220 		strh	r2, [r4, #82]	@ movhi
1562:Src/BLDC_controller.c **** 
1563:Src/BLDC_controller.c ****       /* Disable for Outport: '<S50>/iqAbs' */
1564:Src/BLDC_controller.c ****       rtDW->Abs5_h = 0;
 2855              		.loc 1 1564 7 is_stmt 1 view .LVU956
 2856              		.loc 1 1564 20 is_stmt 0 view .LVU957
 2857 0412 A4F87820 		strh	r2, [r4, #120]	@ movhi
1565:Src/BLDC_controller.c **** 
1566:Src/BLDC_controller.c ****       /* Disable for Outport: '<S50>/id' */
1567:Src/BLDC_controller.c ****       rtDW->DataTypeConversion[1] = 0;
 2858              		.loc 1 1567 7 is_stmt 1 view .LVU958
 2859              		.loc 1 1567 35 is_stmt 0 view .LVU959
 2860 0416 A4F85420 		strh	r2, [r4, #84]	@ movhi
 2861              	.L212:
1568:Src/BLDC_controller.c ****     }
1569:Src/BLDC_controller.c **** 
1570:Src/BLDC_controller.c ****     if (UnitDelay3 == 0) {
 2862              		.loc 1 1570 5 is_stmt 1 view .LVU960
 2863              		.loc 1 1570 8 is_stmt 0 view .LVU961
 2864 041a B9F1000F 		cmp	r9, #0
 2865 041e 40F0A080 		bne	.L198
1571:Src/BLDC_controller.c ****       if (0 != rtb_Sum2_h) {
 2866              		.loc 1 1571 7 is_stmt 1 view .LVU962
 2867              		.loc 1 1571 10 is_stmt 0 view .LVU963
 2868 0422 002B     		cmp	r3, #0
 2869 0424 70D1     		bne	.L440
ARM GAS  /tmp/ccVzdWer.s 			page 82


 2870              	.LVL285:
 2871              	.L213:
1572:Src/BLDC_controller.c ****         /* SystemReset for IfAction SubSystem: '<S45>/Current_Filtering' incorporates:
1573:Src/BLDC_controller.c ****          *  ActionPort: '<S50>/Action Port'
1574:Src/BLDC_controller.c ****          */
1575:Src/BLDC_controller.c **** 
1576:Src/BLDC_controller.c ****         /* SystemReset for Atomic SubSystem: '<S50>/Low_Pass_Filter' */
1577:Src/BLDC_controller.c **** 
1578:Src/BLDC_controller.c ****         /* SystemReset for If: '<S45>/If2' */
1579:Src/BLDC_controller.c ****         Low_Pass_Filter_Reset(&rtDW->Low_Pass_Filter_m);
1580:Src/BLDC_controller.c **** 
1581:Src/BLDC_controller.c ****         /* End of SystemReset for SubSystem: '<S50>/Low_Pass_Filter' */
1582:Src/BLDC_controller.c **** 
1583:Src/BLDC_controller.c ****         /* End of SystemReset for SubSystem: '<S45>/Current_Filtering' */
1584:Src/BLDC_controller.c ****       }
1585:Src/BLDC_controller.c **** 
1586:Src/BLDC_controller.c ****       /* Sum: '<S51>/Sum6' incorporates:
1587:Src/BLDC_controller.c ****        *  Product: '<S51>/Divide1'
1588:Src/BLDC_controller.c ****        *  Product: '<S51>/Divide4'
1589:Src/BLDC_controller.c ****        */
1590:Src/BLDC_controller.c ****       rtb_Gain3 = (int16_T)((rtb_Merge1 * rtDW->r_cos_M1) >> 14) - (int16_T)
 2872              		.loc 1 1590 7 is_stmt 1 view .LVU964
 2873              		.loc 1 1590 41 is_stmt 0 view .LVU965
 2874 0426 4046     		mov	r0, r8
 2875              		.loc 1 1590 47 view .LVU966
 2876 0428 B4F97E10 		ldrsh	r1, [r4, #126]
 2877              		.loc 1 1590 41 view .LVU967
 2878 042c 01FB08F8 		mul	r8, r1, r8
 2879              	.LVL286:
 2880              		.loc 1 1590 19 view .LVU968
 2881 0430 48F38F38 		sbfx	r8, r8, #14, #16
1591:Src/BLDC_controller.c ****         ((rtb_Saturation * rtDW->r_sin_M1) >> 14);
 2882              		.loc 1 1591 26 view .LVU969
 2883 0434 5346     		mov	r3, r10
 2884              		.loc 1 1591 32 view .LVU970
 2885 0436 B4F97C20 		ldrsh	r2, [r4, #124]
 2886              		.loc 1 1591 26 view .LVU971
 2887 043a 02FB0AFA 		mul	r10, r2, r10
 2888              	.LVL287:
1590:Src/BLDC_controller.c ****         ((rtb_Saturation * rtDW->r_sin_M1) >> 14);
 2889              		.loc 1 1590 68 view .LVU972
 2890 043e 4AF38F3A 		sbfx	r10, r10, #14, #16
1590:Src/BLDC_controller.c ****         ((rtb_Saturation * rtDW->r_sin_M1) >> 14);
 2891              		.loc 1 1590 17 view .LVU973
 2892 0442 A8EB0A0A 		sub	r10, r8, r10
 2893              	.LVL288:
1592:Src/BLDC_controller.c ****       if (rtb_Gain3 > 32767) {
 2894              		.loc 1 1592 7 is_stmt 1 view .LVU974
 2895              		.loc 1 1592 10 is_stmt 0 view .LVU975
 2896 0446 BAF5004F 		cmp	r10, #32768
 2897 044a 62DA     		bge	.L372
1593:Src/BLDC_controller.c ****         rtb_Gain3 = 32767;
1594:Src/BLDC_controller.c ****       } else {
1595:Src/BLDC_controller.c ****         if (rtb_Gain3 < -32768) {
 2898              		.loc 1 1595 9 is_stmt 1 view .LVU976
 2899              		.loc 1 1595 12 is_stmt 0 view .LVU977
 2900 044c 1AF5004F 		cmn	r10, #32768
ARM GAS  /tmp/ccVzdWer.s 			page 83


 2901 0450 61DA     		bge	.L214
1596:Src/BLDC_controller.c ****           rtb_Gain3 = -32768;
 2902              		.loc 1 1596 21 view .LVU978
 2903 0452 DFF86CA2 		ldr	r10, .L469+4
 2904              	.LVL289:
 2905              		.loc 1 1596 21 view .LVU979
 2906 0456 5EE0     		b	.L214
 2907              	.LVL290:
 2908              	.L199:
1473:Src/BLDC_controller.c ****       /* Outputs for IfAction SubSystem: '<S49>/Clarke_PhasesBC' incorporates:
 2909              		.loc 1 1473 12 is_stmt 1 view .LVU980
1473:Src/BLDC_controller.c ****       /* Outputs for IfAction SubSystem: '<S49>/Clarke_PhasesBC' incorporates:
 2910              		.loc 1 1473 15 is_stmt 0 view .LVU981
 2911 0458 012B     		cmp	r3, #1
 2912 045a 1CD0     		beq	.L441
1512:Src/BLDC_controller.c **** 
 2913              		.loc 1 1512 7 is_stmt 1 view .LVU982
1512:Src/BLDC_controller.c **** 
 2914              		.loc 1 1512 17 is_stmt 0 view .LVU983
 2915 045c 44F6E712 		movw	r2, #18919
 2916 0460 02FB0AF1 		mul	r1, r2, r10
 2917              	.LVL291:
1515:Src/BLDC_controller.c **** 
 2918              		.loc 1 1515 7 is_stmt 1 view .LVU984
1515:Src/BLDC_controller.c **** 
 2919              		.loc 1 1515 19 is_stmt 0 view .LVU985
 2920 0464 02FB08F2 		mul	r2, r2, r8
 2921              	.LVL292:
1521:Src/BLDC_controller.c ****         (((rtb_Sum1_jt < 0 ? 16383 : 0) + rtb_Sum1_jt) >> 14);
 2922              		.loc 1 1521 7 is_stmt 1 view .LVU986
1521:Src/BLDC_controller.c ****         (((rtb_Sum1_jt < 0 ? 16383 : 0) + rtb_Sum1_jt) >> 14);
 2923              		.loc 1 1521 45 is_stmt 0 view .LVU987
 2924 0468 0029     		cmp	r1, #0
 2925 046a 42DB     		blt	.L442
 2926 046c 0023     		movs	r3, #0
 2927              	.L208:
1521:Src/BLDC_controller.c ****         (((rtb_Sum1_jt < 0 ? 16383 : 0) + rtb_Sum1_jt) >> 14);
 2928              		.loc 1 1521 50 discriminator 4 view .LVU988
 2929 046e 0B44     		add	r3, r3, r1
1521:Src/BLDC_controller.c ****         (((rtb_Sum1_jt < 0 ? 16383 : 0) + rtb_Sum1_jt) >> 14);
 2930              		.loc 1 1521 63 discriminator 4 view .LVU989
 2931 0470 DB13     		asrs	r3, r3, #15
1521:Src/BLDC_controller.c ****         (((rtb_Sum1_jt < 0 ? 16383 : 0) + rtb_Sum1_jt) >> 14);
 2932              		.loc 1 1521 19 discriminator 4 view .LVU990
 2933 0472 5B42     		rsbs	r3, r3, #0
1522:Src/BLDC_controller.c ****       if (rtb_Gain3 > 32767) {
 2934              		.loc 1 1522 36 discriminator 4 view .LVU991
 2935 0474 002A     		cmp	r2, #0
 2936 0476 3FDB     		blt	.L443
1522:Src/BLDC_controller.c ****       if (rtb_Gain3 > 32767) {
 2937              		.loc 1 1522 36 view .LVU992
 2938 0478 4FF00008 		mov	r8, #0
 2939              	.LVL293:
 2940              	.L209:
1522:Src/BLDC_controller.c ****       if (rtb_Gain3 > 32767) {
 2941              		.loc 1 1522 41 discriminator 4 view .LVU993
 2942 047c 9044     		add	r8, r8, r2
ARM GAS  /tmp/ccVzdWer.s 			page 84


1521:Src/BLDC_controller.c ****         (((rtb_Sum1_jt < 0 ? 16383 : 0) + rtb_Sum1_jt) >> 14);
 2943              		.loc 1 1521 72 discriminator 4 view .LVU994
 2944 047e 48F38F38 		sbfx	r8, r8, #14, #16
1521:Src/BLDC_controller.c ****         (((rtb_Sum1_jt < 0 ? 16383 : 0) + rtb_Sum1_jt) >> 14);
 2945              		.loc 1 1521 17 discriminator 4 view .LVU995
 2946 0482 A3EB0803 		sub	r3, r3, r8
 2947              	.LVL294:
1523:Src/BLDC_controller.c ****         rtb_Gain3 = 32767;
 2948              		.loc 1 1523 7 is_stmt 1 discriminator 4 view .LVU996
1523:Src/BLDC_controller.c ****         rtb_Gain3 = 32767;
 2949              		.loc 1 1523 10 is_stmt 0 discriminator 4 view .LVU997
 2950 0486 B3F5004F 		cmp	r3, #32768
 2951 048a 38DA     		bge	.L370
1526:Src/BLDC_controller.c ****           rtb_Gain3 = -32768;
 2952              		.loc 1 1526 9 is_stmt 1 view .LVU998
1526:Src/BLDC_controller.c ****           rtb_Gain3 = -32768;
 2953              		.loc 1 1526 12 is_stmt 0 view .LVU999
 2954 048c 13F5004F 		cmn	r3, #32768
 2955 0490 37DA     		bge	.L210
1527:Src/BLDC_controller.c ****         }
 2956              		.loc 1 1527 21 view .LVU1000
 2957 0492 8B4B     		ldr	r3, .L469+4
 2958              	.LVL295:
1527:Src/BLDC_controller.c ****         }
 2959              		.loc 1 1527 21 view .LVU1001
 2960 0494 35E0     		b	.L210
 2961              	.LVL296:
 2962              	.L441:
1478:Src/BLDC_controller.c ****       if (rtb_Gain3 > 32767) {
 2963              		.loc 1 1478 7 is_stmt 1 view .LVU1002
1478:Src/BLDC_controller.c ****       if (rtb_Gain3 > 32767) {
 2964              		.loc 1 1478 34 is_stmt 0 view .LVU1003
 2965 0496 5346     		mov	r3, r10
 2966 0498 4146     		mov	r1, r8
1478:Src/BLDC_controller.c ****       if (rtb_Gain3 > 32767) {
 2967              		.loc 1 1478 17 view .LVU1004
 2968 049a AAEB0802 		sub	r2, r10, r8
 2969              	.LVL297:
1479:Src/BLDC_controller.c ****         rtb_Gain3 = 32767;
 2970              		.loc 1 1479 7 is_stmt 1 view .LVU1005
1479:Src/BLDC_controller.c ****         rtb_Gain3 = 32767;
 2971              		.loc 1 1479 10 is_stmt 0 view .LVU1006
 2972 049e B2F5004F 		cmp	r2, #32768
 2973 04a2 04DA     		bge	.L363
1482:Src/BLDC_controller.c ****           rtb_Gain3 = -32768;
 2974              		.loc 1 1482 9 is_stmt 1 view .LVU1007
1482:Src/BLDC_controller.c ****           rtb_Gain3 = -32768;
 2975              		.loc 1 1482 12 is_stmt 0 view .LVU1008
 2976 04a4 12F5004F 		cmn	r2, #32768
 2977 04a8 03DA     		bge	.L205
1483:Src/BLDC_controller.c ****         }
 2978              		.loc 1 1483 21 view .LVU1009
 2979 04aa 854A     		ldr	r2, .L469+4
 2980              	.LVL298:
1483:Src/BLDC_controller.c ****         }
 2981              		.loc 1 1483 21 view .LVU1010
 2982 04ac 01E0     		b	.L205
ARM GAS  /tmp/ccVzdWer.s 			page 85


 2983              	.LVL299:
 2984              	.L363:
1480:Src/BLDC_controller.c ****       } else {
 2985              		.loc 1 1480 19 view .LVU1011
 2986 04ae 47F6FF72 		movw	r2, #32767
 2987              	.LVL300:
 2988              	.L205:
1490:Src/BLDC_controller.c ****       rtb_Merge1 = (int16_T)(((rtb_Gain3 < 0 ? 32767 : 0) + rtb_Gain3) >> 15);
 2989              		.loc 1 1490 7 is_stmt 1 view .LVU1012
1490:Src/BLDC_controller.c ****       rtb_Merge1 = (int16_T)(((rtb_Gain3 < 0 ? 32767 : 0) + rtb_Gain3) >> 15);
 2990              		.loc 1 1490 17 is_stmt 0 view .LVU1013
 2991 04b2 44F6E718 		movw	r8, #18919
 2992              	.LVL301:
1490:Src/BLDC_controller.c ****       rtb_Merge1 = (int16_T)(((rtb_Gain3 < 0 ? 32767 : 0) + rtb_Gain3) >> 15);
 2993              		.loc 1 1490 17 view .LVU1014
 2994 04b6 08FB02F8 		mul	r8, r8, r2
 2995              	.LVL302:
1491:Src/BLDC_controller.c **** 
 2996              		.loc 1 1491 7 is_stmt 1 view .LVU1015
1491:Src/BLDC_controller.c **** 
 2997              		.loc 1 1491 54 is_stmt 0 view .LVU1016
 2998 04ba B8F1000F 		cmp	r8, #0
 2999 04be 10DB     		blt	.L444
 3000 04c0 4FF0000A 		mov	r10, #0
 3001              	.LVL303:
 3002              	.L206:
1491:Src/BLDC_controller.c **** 
 3003              		.loc 1 1491 59 discriminator 4 view .LVU1017
 3004 04c4 D044     		add	r8, r8, r10
 3005              	.LVL304:
1491:Src/BLDC_controller.c **** 
 3006              		.loc 1 1491 18 discriminator 4 view .LVU1018
 3007 04c6 48F3CF38 		sbfx	r8, r8, #15, #16
 3008              	.LVL305:
1494:Src/BLDC_controller.c ****       if (rtb_Gain3 > 32767) {
 3009              		.loc 1 1494 7 is_stmt 1 discriminator 4 view .LVU1019
1494:Src/BLDC_controller.c ****       if (rtb_Gain3 > 32767) {
 3010              		.loc 1 1494 19 is_stmt 0 discriminator 4 view .LVU1020
 3011 04ca C3F1000A 		rsb	r10, r3, #0
1494:Src/BLDC_controller.c ****       if (rtb_Gain3 > 32767) {
 3012              		.loc 1 1494 17 discriminator 4 view .LVU1021
 3013 04ce AAEB0101 		sub	r1, r10, r1
 3014              	.LVL306:
1495:Src/BLDC_controller.c ****         rtb_Gain3 = 32767;
 3015              		.loc 1 1495 7 is_stmt 1 discriminator 4 view .LVU1022
1495:Src/BLDC_controller.c ****         rtb_Gain3 = 32767;
 3016              		.loc 1 1495 10 is_stmt 0 discriminator 4 view .LVU1023
 3017 04d2 B1F5004F 		cmp	r1, #32768
 3018 04d6 07DA     		bge	.L366
1498:Src/BLDC_controller.c ****           rtb_Gain3 = -32768;
 3019              		.loc 1 1498 9 is_stmt 1 view .LVU1024
1498:Src/BLDC_controller.c ****           rtb_Gain3 = -32768;
 3020              		.loc 1 1498 12 is_stmt 0 view .LVU1025
 3021 04d8 11F5004F 		cmn	r1, #32768
 3022 04dc 06DA     		bge	.L207
1499:Src/BLDC_controller.c ****         }
 3023              		.loc 1 1499 21 view .LVU1026
ARM GAS  /tmp/ccVzdWer.s 			page 86


 3024 04de 7849     		ldr	r1, .L469+4
 3025              	.LVL307:
1499:Src/BLDC_controller.c ****         }
 3026              		.loc 1 1499 21 view .LVU1027
 3027 04e0 04E0     		b	.L207
 3028              	.LVL308:
 3029              	.L444:
1491:Src/BLDC_controller.c **** 
 3030              		.loc 1 1491 54 view .LVU1028
 3031 04e2 47F6FF7A 		movw	r10, #32767
 3032              	.LVL309:
1491:Src/BLDC_controller.c **** 
 3033              		.loc 1 1491 54 view .LVU1029
 3034 04e6 EDE7     		b	.L206
 3035              	.LVL310:
 3036              	.L366:
1496:Src/BLDC_controller.c ****       } else {
 3037              		.loc 1 1496 19 view .LVU1030
 3038 04e8 47F6FF71 		movw	r1, #32767
 3039              	.LVL311:
 3040              	.L207:
1503:Src/BLDC_controller.c **** 
 3041              		.loc 1 1503 7 is_stmt 1 view .LVU1031
1503:Src/BLDC_controller.c **** 
 3042              		.loc 1 1503 22 is_stmt 0 view .LVU1032
 3043 04ec 0FFA81FA 		sxth	r10, r1
 3044              	.LVL312:
1503:Src/BLDC_controller.c **** 
 3045              		.loc 1 1503 22 view .LVU1033
 3046 04f0 6FE7     		b	.L203
 3047              	.LVL313:
 3048              	.L442:
1521:Src/BLDC_controller.c ****         (((rtb_Sum1_jt < 0 ? 16383 : 0) + rtb_Sum1_jt) >> 14);
 3049              		.loc 1 1521 45 view .LVU1034
 3050 04f2 47F6FF73 		movw	r3, #32767
 3051 04f6 BAE7     		b	.L208
 3052              	.L443:
1522:Src/BLDC_controller.c ****       if (rtb_Gain3 > 32767) {
 3053              		.loc 1 1522 36 view .LVU1035
 3054 04f8 43F6FF78 		movw	r8, #16383
 3055              	.LVL314:
1522:Src/BLDC_controller.c ****       if (rtb_Gain3 > 32767) {
 3056              		.loc 1 1522 36 view .LVU1036
 3057 04fc BEE7     		b	.L209
 3058              	.LVL315:
 3059              	.L370:
1524:Src/BLDC_controller.c ****       } else {
 3060              		.loc 1 1524 19 view .LVU1037
 3061 04fe 47F6FF73 		movw	r3, #32767
 3062              	.LVL316:
 3063              	.L210:
1531:Src/BLDC_controller.c **** 
 3064              		.loc 1 1531 7 is_stmt 1 view .LVU1038
1531:Src/BLDC_controller.c **** 
 3065              		.loc 1 1531 18 is_stmt 0 view .LVU1039
 3066 0502 0FFA83F8 		sxth	r8, r3
 3067              	.LVL317:
ARM GAS  /tmp/ccVzdWer.s 			page 87


1531:Src/BLDC_controller.c **** 
 3068              		.loc 1 1531 18 view .LVU1040
 3069 0506 64E7     		b	.L203
 3070              	.LVL318:
 3071              	.L440:
1579:Src/BLDC_controller.c **** 
 3072              		.loc 1 1579 9 is_stmt 1 view .LVU1041
 3073 0508 04F13800 		add	r0, r4, #56
 3074 050c FFF7FEFF 		bl	Low_Pass_Filter_Reset
 3075              	.LVL319:
1579:Src/BLDC_controller.c **** 
 3076              		.loc 1 1579 9 is_stmt 0 view .LVU1042
 3077 0510 89E7     		b	.L213
 3078              	.LVL320:
 3079              	.L372:
1593:Src/BLDC_controller.c ****       } else {
 3080              		.loc 1 1593 19 view .LVU1043
 3081 0512 47F6FF7A 		movw	r10, #32767
 3082              	.LVL321:
 3083              	.L214:
1597:Src/BLDC_controller.c ****         }
1598:Src/BLDC_controller.c ****       }
1599:Src/BLDC_controller.c **** 
1600:Src/BLDC_controller.c ****       /* Outputs for IfAction SubSystem: '<S45>/Current_Filtering' incorporates:
1601:Src/BLDC_controller.c ****        *  ActionPort: '<S50>/Action Port'
1602:Src/BLDC_controller.c ****        */
1603:Src/BLDC_controller.c ****       /* SignalConversion: '<S50>/TmpSignal ConversionAtLow_Pass_FilterInport1' incorporates:
1604:Src/BLDC_controller.c ****        *  Sum: '<S51>/Sum6'
1605:Src/BLDC_controller.c ****        */
1606:Src/BLDC_controller.c ****       rtb_TmpSignalConversionAtLow_Pa[0] = (int16_T)rtb_Gain3;
 3084              		.loc 1 1606 7 is_stmt 1 view .LVU1044
 3085              		.loc 1 1606 42 is_stmt 0 view .LVU1045
 3086 0516 ADF848A0 		strh	r10, [sp, #72]	@ movhi
1607:Src/BLDC_controller.c **** 
1608:Src/BLDC_controller.c ****       /* End of Outputs for SubSystem: '<S45>/Current_Filtering' */
1609:Src/BLDC_controller.c **** 
1610:Src/BLDC_controller.c ****       /* Sum: '<S51>/Sum1' incorporates:
1611:Src/BLDC_controller.c ****        *  Product: '<S51>/Divide2'
1612:Src/BLDC_controller.c ****        *  Product: '<S51>/Divide3'
1613:Src/BLDC_controller.c ****        */
1614:Src/BLDC_controller.c ****       rtb_Gain3 = (int16_T)((rtb_Saturation * rtDW->r_cos_M1) >> 14) + (int16_T)
 3087              		.loc 1 1614 7 is_stmt 1 view .LVU1046
 3088              		.loc 1 1614 45 is_stmt 0 view .LVU1047
 3089 051a 03FB01F3 		mul	r3, r3, r1
 3090              		.loc 1 1614 19 view .LVU1048
 3091 051e 43F38F33 		sbfx	r3, r3, #14, #16
1615:Src/BLDC_controller.c ****         ((rtb_Merge1 * rtDW->r_sin_M1) >> 14);
 3092              		.loc 1 1615 22 view .LVU1049
 3093 0522 02FB00F2 		mul	r2, r2, r0
1614:Src/BLDC_controller.c ****         ((rtb_Merge1 * rtDW->r_sin_M1) >> 14);
 3094              		.loc 1 1614 72 view .LVU1050
 3095 0526 42F38F32 		sbfx	r2, r2, #14, #16
1614:Src/BLDC_controller.c ****         ((rtb_Merge1 * rtDW->r_sin_M1) >> 14);
 3096              		.loc 1 1614 17 view .LVU1051
 3097 052a 1344     		add	r3, r3, r2
 3098              	.LVL322:
1616:Src/BLDC_controller.c ****       if (rtb_Gain3 > 32767) {
ARM GAS  /tmp/ccVzdWer.s 			page 88


 3099              		.loc 1 1616 7 is_stmt 1 view .LVU1052
 3100              		.loc 1 1616 10 is_stmt 0 view .LVU1053
 3101 052c B3F5004F 		cmp	r3, #32768
 3102 0530 04DA     		bge	.L374
1617:Src/BLDC_controller.c ****         rtb_Gain3 = 32767;
1618:Src/BLDC_controller.c ****       } else {
1619:Src/BLDC_controller.c ****         if (rtb_Gain3 < -32768) {
 3103              		.loc 1 1619 9 is_stmt 1 view .LVU1054
 3104              		.loc 1 1619 12 is_stmt 0 view .LVU1055
 3105 0532 13F5004F 		cmn	r3, #32768
 3106 0536 03DA     		bge	.L215
1620:Src/BLDC_controller.c ****           rtb_Gain3 = -32768;
 3107              		.loc 1 1620 21 view .LVU1056
 3108 0538 614B     		ldr	r3, .L469+4
 3109              	.LVL323:
 3110              		.loc 1 1620 21 view .LVU1057
 3111 053a 01E0     		b	.L215
 3112              	.LVL324:
 3113              	.L374:
1617:Src/BLDC_controller.c ****         rtb_Gain3 = 32767;
 3114              		.loc 1 1617 19 view .LVU1058
 3115 053c 47F6FF73 		movw	r3, #32767
 3116              	.LVL325:
 3117              	.L215:
1621:Src/BLDC_controller.c ****         }
1622:Src/BLDC_controller.c ****       }
1623:Src/BLDC_controller.c **** 
1624:Src/BLDC_controller.c ****       /* Outputs for IfAction SubSystem: '<S45>/Current_Filtering' incorporates:
1625:Src/BLDC_controller.c ****        *  ActionPort: '<S50>/Action Port'
1626:Src/BLDC_controller.c ****        */
1627:Src/BLDC_controller.c ****       /* SignalConversion: '<S50>/TmpSignal ConversionAtLow_Pass_FilterInport1' incorporates:
1628:Src/BLDC_controller.c ****        *  Sum: '<S51>/Sum1'
1629:Src/BLDC_controller.c ****        */
1630:Src/BLDC_controller.c ****       rtb_TmpSignalConversionAtLow_Pa[1] = (int16_T)rtb_Gain3;
 3118              		.loc 1 1630 7 is_stmt 1 view .LVU1059
