ARM GAS  /tmp/cc7JzmKx.s 			page 1


   1              		.cpu cortex-m3
   2              		.eabi_attribute 20, 1
   3              		.eabi_attribute 21, 1
   4              		.eabi_attribute 23, 3
   5              		.eabi_attribute 24, 1
   6              		.eabi_attribute 25, 1
   7              		.eabi_attribute 26, 1
   8              		.eabi_attribute 30, 1
   9              		.eabi_attribute 34, 1
  10              		.eabi_attribute 18, 4
  11              		.file	"pcf8574.c"
  12              		.text
  13              	.Ltext0:
  14              		.cfi_sections	.debug_frame
  15              		.section	.text.PCF8574_Init,"ax",%progbits
  16              		.align	1
  17              		.global	PCF8574_Init
  18              		.arch armv7-m
  19              		.syntax unified
  20              		.thumb
  21              		.thumb_func
  22              		.fpu softvfp
  24              	PCF8574_Init:
  25              	.LVL0:
  26              	.LFB66:
  27              		.file 1 "Src/pcf8574.c"
   1:Src/pcf8574.c **** /*
   2:Src/pcf8574.c ****  * pcf8574.c
   3:Src/pcf8574.c ****  *
   4:Src/pcf8574.c ****  *  Created on: Dec 30, 2014
   5:Src/pcf8574.c ****  *      Author: peter
   6:Src/pcf8574.c ****  */
   7:Src/pcf8574.c **** 
   8:Src/pcf8574.c **** #include "pcf8574.h"
   9:Src/pcf8574.c **** 
  10:Src/pcf8574.c **** PCF8574_RESULT PCF8574_Init(PCF8574_HandleTypeDef* handle) {
  28              		.loc 1 10 60 view -0
  29              		.cfi_startproc
  30              		@ args = 0, pretend = 0, frame = 0
  31              		@ frame_needed = 0, uses_anonymous_args = 0
  32              		@ link register save eliminated.
  11:Src/pcf8574.c **** 
  12:Src/pcf8574.c **** 	handle->PCF_I2C_ADDRESS &= 0x07;
  33              		.loc 1 12 2 view .LVU1
  34              		.loc 1 12 26 is_stmt 0 view .LVU2
  35 0000 0378     		ldrb	r3, [r0]	@ zero_extendqisi2
  36 0002 03F00703 		and	r3, r3, #7
  37 0006 0370     		strb	r3, [r0]
  13:Src/pcf8574.c **** 
  14:Src/pcf8574.c **** 	/*if (handle->i2c.State == HAL_I2C_STATE_RESET) {
  15:Src/pcf8574.c **** 		handle->i2c.Init.AddressingMode = I2C_ADDRESSINGMODE_7BIT;
  16:Src/pcf8574.c **** 		handle->i2c.Init.DualAddressMode = I2C_DUALADDRESS_DISABLED;
  17:Src/pcf8574.c **** 		handle->i2c.Init.DutyCycle = I2C_DUTYCYCLE_2;
  18:Src/pcf8574.c **** 		handle->i2c.Init.NoStretchMode = I2C_NOSTRETCH_DISABLED;
  19:Src/pcf8574.c **** 		handle->i2c.Init.OwnAddress1 = 0xFE;
  20:Src/pcf8574.c **** 		if (HAL_I2C_Init(&handle->i2c) != HAL_OK) {
  21:Src/pcf8574.c **** 			handle->errorCallback(PCF8574_ERROR);
ARM GAS  /tmp/cc7JzmKx.s 			page 2


  22:Src/pcf8574.c **** 			return PCF8574_ERROR;
  23:Src/pcf8574.c **** 		}
  24:Src/pcf8574.c **** 	}*/
  25:Src/pcf8574.c **** 	return PCF8574_OK;
  38              		.loc 1 25 2 is_stmt 1 view .LVU3
  26:Src/pcf8574.c **** }
  39              		.loc 1 26 1 is_stmt 0 view .LVU4
  40 0008 0020     		movs	r0, #0
  41              	.LVL1:
  42              		.loc 1 26 1 view .LVU5
  43 000a 7047     		bx	lr
  44              		.cfi_endproc
  45              	.LFE66:
  47              		.section	.text.PCF8574_DeInit,"ax",%progbits
  48              		.align	1
  49              		.global	PCF8574_DeInit
  50              		.syntax unified
  51              		.thumb
  52              		.thumb_func
  53              		.fpu softvfp
  55              	PCF8574_DeInit:
  56              	.LVL2:
  57              	.LFB67:
  27:Src/pcf8574.c **** 
  28:Src/pcf8574.c **** PCF8574_RESULT PCF8574_DeInit(PCF8574_HandleTypeDef* handle) {
  58              		.loc 1 28 62 is_stmt 1 view -0
  59              		.cfi_startproc
  60              		@ args = 0, pretend = 0, frame = 0
  61              		@ frame_needed = 0, uses_anonymous_args = 0
  62              		.loc 1 28 62 is_stmt 0 view .LVU7
  63 0000 08B5     		push	{r3, lr}
  64              	.LCFI0:
  65              		.cfi_def_cfa_offset 8
  66              		.cfi_offset 3, -8
  67              		.cfi_offset 14, -4
  29:Src/pcf8574.c **** 	HAL_I2C_DeInit(&handle->i2c);
  68              		.loc 1 29 2 is_stmt 1 view .LVU8
  69 0002 0830     		adds	r0, r0, #8
  70              	.LVL3:
  71              		.loc 1 29 2 is_stmt 0 view .LVU9
  72 0004 FFF7FEFF 		bl	HAL_I2C_DeInit
  73              	.LVL4:
  30:Src/pcf8574.c **** 	return PCF8574_OK;
  74              		.loc 1 30 2 is_stmt 1 view .LVU10
  31:Src/pcf8574.c **** }
  75              		.loc 1 31 1 is_stmt 0 view .LVU11
  76 0008 0020     		movs	r0, #0
  77 000a 08BD     		pop	{r3, pc}
  78              		.cfi_endproc
  79              	.LFE67:
  81              		.section	.text.PCF8574_Write,"ax",%progbits
  82              		.align	1
  83              		.global	PCF8574_Write
  84              		.syntax unified
  85              		.thumb
  86              		.thumb_func
  87              		.fpu softvfp
ARM GAS  /tmp/cc7JzmKx.s 			page 3


  89              	PCF8574_Write:
  90              	.LVL5:
  91              	.LFB68:
  32:Src/pcf8574.c **** 
  33:Src/pcf8574.c **** PCF8574_RESULT PCF8574_Write(PCF8574_HandleTypeDef* handle, uint8_t val) {
  92              		.loc 1 33 74 is_stmt 1 view -0
  93              		.cfi_startproc
  94              		@ args = 0, pretend = 0, frame = 8
  95              		@ frame_needed = 0, uses_anonymous_args = 0
  96              		.loc 1 33 74 is_stmt 0 view .LVU13
  97 0000 00B5     		push	{lr}
  98              	.LCFI1:
  99              		.cfi_def_cfa_offset 4
 100              		.cfi_offset 14, -4
 101 0002 85B0     		sub	sp, sp, #20
 102              	.LCFI2:
 103              		.cfi_def_cfa_offset 24
 104 0004 0346     		mov	r3, r0
 105 0006 8DF80F10 		strb	r1, [sp, #15]
  34:Src/pcf8574.c **** 	if (HAL_I2C_Master_Transmit(&handle->i2c,
 106              		.loc 1 34 2 is_stmt 1 view .LVU14
  35:Src/pcf8574.c **** 			(handle->PCF_I2C_ADDRESS << 1) | PCF8574_I2C_ADDRESS_MASK, &val, 1,
 107              		.loc 1 35 11 is_stmt 0 view .LVU15
 108 000a 10F8081B 		ldrb	r1, [r0], #8	@ zero_extendqisi2
 109              	.LVL6:
 110              		.loc 1 35 29 view .LVU16
 111 000e 4900     		lsls	r1, r1, #1
  34:Src/pcf8574.c **** 	if (HAL_I2C_Master_Transmit(&handle->i2c,
 112              		.loc 1 34 6 view .LVU17
 113 0010 5B68     		ldr	r3, [r3, #4]
 114              	.LVL7:
  34:Src/pcf8574.c **** 	if (HAL_I2C_Master_Transmit(&handle->i2c,
 115              		.loc 1 34 6 view .LVU18
 116 0012 0093     		str	r3, [sp]
 117 0014 0123     		movs	r3, #1
 118 0016 0DF10F02 		add	r2, sp, #15
 119              	.LVL8:
  34:Src/pcf8574.c **** 	if (HAL_I2C_Master_Transmit(&handle->i2c,
 120              		.loc 1 34 6 view .LVU19
 121 001a 41F04001 		orr	r1, r1, #64
 122 001e FFF7FEFF 		bl	HAL_I2C_Master_Transmit
 123              	.LVL9:
  34:Src/pcf8574.c **** 	if (HAL_I2C_Master_Transmit(&handle->i2c,
 124              		.loc 1 34 5 view .LVU20
 125 0022 10B9     		cbnz	r0, .L8
 126              	.L5:
  36:Src/pcf8574.c **** 			handle->PCF_I2C_TIMEOUT) != HAL_OK) {
  37:Src/pcf8574.c **** 		//handle->errorCallback(PCF8574_ERROR);
  38:Src/pcf8574.c **** 		return PCF8574_ERROR;
  39:Src/pcf8574.c **** 	}
  40:Src/pcf8574.c **** 
  41:Src/pcf8574.c **** 	/*if (HAL_I2C_Master_Transmit_DMA(&handle->i2c,
  42:Src/pcf8574.c **** 			(handle->PCF_I2C_ADDRESS << 1) | PCF8574_I2C_ADDRESS_MASK, &val, 1) != HAL_OK) {
  43:Src/pcf8574.c **** 		handle->errorCallback(PCF8574_ERROR);
  44:Src/pcf8574.c **** 		//<return PCF8574_ERROR;
  45:Src/pcf8574.c **** 	}*/
  46:Src/pcf8574.c **** 
ARM GAS  /tmp/cc7JzmKx.s 			page 4


  47:Src/pcf8574.c **** 	//HAL_I2C_Master_Transmit_DMA(&hi2c2, 0xA4, (uint8_t*)ai2cBuffer, 2);
  48:Src/pcf8574.c **** 	return PCF8574_OK;
  49:Src/pcf8574.c **** }
 127              		.loc 1 49 1 view .LVU21
 128 0024 05B0     		add	sp, sp, #20
 129              	.LCFI3:
 130              		.cfi_remember_state
 131              		.cfi_def_cfa_offset 4
 132              		@ sp needed
 133 0026 5DF804FB 		ldr	pc, [sp], #4
 134              	.L8:
 135              	.LCFI4:
 136              		.cfi_restore_state
  38:Src/pcf8574.c **** 	}
 137              		.loc 1 38 10 view .LVU22
 138 002a 0120     		movs	r0, #1
 139 002c FAE7     		b	.L5
 140              		.cfi_endproc
 141              	.LFE68:
 143              		.section	.text.PCF8574_Read,"ax",%progbits
 144              		.align	1
 145              		.global	PCF8574_Read
 146              		.syntax unified
 147              		.thumb
 148              		.thumb_func
 149              		.fpu softvfp
 151              	PCF8574_Read:
 152              	.LVL10:
 153              	.LFB69:
  50:Src/pcf8574.c **** 
  51:Src/pcf8574.c **** PCF8574_RESULT PCF8574_Read(PCF8574_HandleTypeDef* handle, uint8_t* val) {
 154              		.loc 1 51 74 is_stmt 1 view -0
 155              		.cfi_startproc
 156              		@ args = 0, pretend = 0, frame = 0
 157              		@ frame_needed = 0, uses_anonymous_args = 0
 158              		.loc 1 51 74 is_stmt 0 view .LVU24
 159 0000 10B5     		push	{r4, lr}
 160              	.LCFI5:
 161              		.cfi_def_cfa_offset 8
 162              		.cfi_offset 4, -8
 163              		.cfi_offset 14, -4
 164 0002 82B0     		sub	sp, sp, #8
 165              	.LCFI6:
 166              		.cfi_def_cfa_offset 16
 167 0004 0346     		mov	r3, r0
 168 0006 0A46     		mov	r2, r1
  52:Src/pcf8574.c **** 	if (HAL_I2C_Master_Receive(&handle->i2c,
 169              		.loc 1 52 2 is_stmt 1 view .LVU25
  53:Src/pcf8574.c **** 			(handle->PCF_I2C_ADDRESS << 1) | PCF8574_I2C_ADDRESS_MASK, val, 1,
 170              		.loc 1 53 11 is_stmt 0 view .LVU26
 171 0008 10F8084B 		ldrb	r4, [r0], #8	@ zero_extendqisi2
 172              	.LVL11:
 173              		.loc 1 53 29 view .LVU27
 174 000c 6400     		lsls	r4, r4, #1
  52:Src/pcf8574.c **** 	if (HAL_I2C_Master_Receive(&handle->i2c,
 175              		.loc 1 52 6 view .LVU28
 176 000e 5B68     		ldr	r3, [r3, #4]
ARM GAS  /tmp/cc7JzmKx.s 			page 5


 177              	.LVL12:
  52:Src/pcf8574.c **** 	if (HAL_I2C_Master_Receive(&handle->i2c,
 178              		.loc 1 52 6 view .LVU29
 179 0010 0093     		str	r3, [sp]
 180 0012 0123     		movs	r3, #1
 181 0014 44F04001 		orr	r1, r4, #64
 182              	.LVL13:
  52:Src/pcf8574.c **** 	if (HAL_I2C_Master_Receive(&handle->i2c,
 183              		.loc 1 52 6 view .LVU30
 184 0018 FFF7FEFF 		bl	HAL_I2C_Master_Receive
 185              	.LVL14:
  52:Src/pcf8574.c **** 	if (HAL_I2C_Master_Receive(&handle->i2c,
 186              		.loc 1 52 5 view .LVU31
 187 001c 08B9     		cbnz	r0, .L13
 188              	.L10:
  54:Src/pcf8574.c **** 			handle->PCF_I2C_TIMEOUT) != HAL_OK) {
  55:Src/pcf8574.c **** 		return PCF8574_ERROR;
  56:Src/pcf8574.c **** 	}
  57:Src/pcf8574.c **** 	return PCF8574_OK;
  58:Src/pcf8574.c **** }
 189              		.loc 1 58 1 view .LVU32
 190 001e 02B0     		add	sp, sp, #8
 191              	.LCFI7:
 192              		.cfi_remember_state
 193              		.cfi_def_cfa_offset 8
 194              		@ sp needed
 195 0020 10BD     		pop	{r4, pc}
 196              	.L13:
 197              	.LCFI8:
 198              		.cfi_restore_state
  55:Src/pcf8574.c **** 	}
 199              		.loc 1 55 10 view .LVU33
 200 0022 0120     		movs	r0, #1
 201 0024 FBE7     		b	.L10
 202              		.cfi_endproc
 203              	.LFE69:
 205              		.text
 206              	.Letext0:
 207              		.file 2 "/usr/lib/gcc/arm-none-eabi/9.2.1/include/stdint.h"
 208              		.file 3 "Drivers/CMSIS/Include/core_cm3.h"
 209              		.file 4 "Drivers/CMSIS/Device/ST/STM32F1xx/Include/system_stm32f1xx.h"
 210              		.file 5 "Drivers/CMSIS/Device/ST/STM32F1xx/Include/stm32f103xe.h"
 211              		.file 6 "/usr/lib/gcc/arm-none-eabi/9.2.1/include/stddef.h"
 212              		.file 7 "/usr/include/newlib/sys/_types.h"
 213              		.file 8 "/usr/include/newlib/sys/reent.h"
 214              		.file 9 "/usr/include/newlib/sys/lock.h"
 215              		.file 10 "Drivers/STM32F1xx_HAL_Driver/Inc/stm32f1xx_hal_def.h"
 216              		.file 11 "Drivers/STM32F1xx_HAL_Driver/Inc/stm32f1xx_hal_dma.h"
 217              		.file 12 "Drivers/STM32F1xx_HAL_Driver/Inc/stm32f1xx_hal_i2c.h"
 218              		.file 13 "Inc/pcf8574.h"
ARM GAS  /tmp/cc7JzmKx.s 			page 6

