ARM GAS  /tmp/ccIT72v0.s 			page 1


   1              		.cpu cortex-m3
   2              		.eabi_attribute 20, 1
   3              		.eabi_attribute 21, 1
   4              		.eabi_attribute 23, 3
   5              		.eabi_attribute 24, 1
   6              		.eabi_attribute 25, 1
   7              		.eabi_attribute 26, 1
   8              		.eabi_attribute 30, 1
   9              		.eabi_attribute 34, 1
  10              		.eabi_attribute 18, 4
  11              		.file	"stm32f1xx_hal_gpio.c"
  12              		.text
  13              	.Ltext0:
  14              		.cfi_sections	.debug_frame
  15              		.section	.text.HAL_GPIO_Init,"ax",%progbits
  16              		.align	1
  17              		.global	HAL_GPIO_Init
  18              		.arch armv7-m
  19              		.syntax unified
  20              		.thumb
  21              		.thumb_func
  22              		.fpu softvfp
  24              	HAL_GPIO_Init:
  25              	.LVL0:
  26              	.LFB66:
  27              		.file 1 "Drivers/STM32F1xx_HAL_Driver/Src/stm32f1xx_hal_gpio.c"
   1:Drivers/STM32F1xx_HAL_Driver/Src/stm32f1xx_hal_gpio.c **** /**
   2:Drivers/STM32F1xx_HAL_Driver/Src/stm32f1xx_hal_gpio.c ****   ******************************************************************************
   3:Drivers/STM32F1xx_HAL_Driver/Src/stm32f1xx_hal_gpio.c ****   * @file    stm32f1xx_hal_gpio.c
   4:Drivers/STM32F1xx_HAL_Driver/Src/stm32f1xx_hal_gpio.c ****   * @author  MCD Application Team
   5:Drivers/STM32F1xx_HAL_Driver/Src/stm32f1xx_hal_gpio.c ****   * @version V1.1.1
   6:Drivers/STM32F1xx_HAL_Driver/Src/stm32f1xx_hal_gpio.c ****   * @date    12-May-2017
   7:Drivers/STM32F1xx_HAL_Driver/Src/stm32f1xx_hal_gpio.c ****   * @brief   GPIO HAL module driver.
   8:Drivers/STM32F1xx_HAL_Driver/Src/stm32f1xx_hal_gpio.c ****   *          This file provides firmware functions to manage the following 
   9:Drivers/STM32F1xx_HAL_Driver/Src/stm32f1xx_hal_gpio.c ****   *          functionalities of the General Purpose Input/Output (GPIO) peripheral:
  10:Drivers/STM32F1xx_HAL_Driver/Src/stm32f1xx_hal_gpio.c ****   *           + Initialization and de-initialization functions
  11:Drivers/STM32F1xx_HAL_Driver/Src/stm32f1xx_hal_gpio.c ****   *           + IO operation functions
  12:Drivers/STM32F1xx_HAL_Driver/Src/stm32f1xx_hal_gpio.c ****   *
  13:Drivers/STM32F1xx_HAL_Driver/Src/stm32f1xx_hal_gpio.c ****   @verbatim
  14:Drivers/STM32F1xx_HAL_Driver/Src/stm32f1xx_hal_gpio.c ****   ==============================================================================
  15:Drivers/STM32F1xx_HAL_Driver/Src/stm32f1xx_hal_gpio.c ****                     ##### GPIO Peripheral features #####
  16:Drivers/STM32F1xx_HAL_Driver/Src/stm32f1xx_hal_gpio.c ****   ==============================================================================
  17:Drivers/STM32F1xx_HAL_Driver/Src/stm32f1xx_hal_gpio.c ****   [..] 
  18:Drivers/STM32F1xx_HAL_Driver/Src/stm32f1xx_hal_gpio.c ****   Subject to the specific hardware characteristics of each I/O port listed in the datasheet, each
  19:Drivers/STM32F1xx_HAL_Driver/Src/stm32f1xx_hal_gpio.c ****   port bit of the General Purpose IO (GPIO) Ports, can be individually configured by software
  20:Drivers/STM32F1xx_HAL_Driver/Src/stm32f1xx_hal_gpio.c ****   in several modes:
  21:Drivers/STM32F1xx_HAL_Driver/Src/stm32f1xx_hal_gpio.c ****   (+) Input mode 
  22:Drivers/STM32F1xx_HAL_Driver/Src/stm32f1xx_hal_gpio.c ****   (+) Analog mode
  23:Drivers/STM32F1xx_HAL_Driver/Src/stm32f1xx_hal_gpio.c ****   (+) Output mode
  24:Drivers/STM32F1xx_HAL_Driver/Src/stm32f1xx_hal_gpio.c ****   (+) Alternate function mode
  25:Drivers/STM32F1xx_HAL_Driver/Src/stm32f1xx_hal_gpio.c ****   (+) External interrupt/event lines
  26:Drivers/STM32F1xx_HAL_Driver/Src/stm32f1xx_hal_gpio.c **** 
  27:Drivers/STM32F1xx_HAL_Driver/Src/stm32f1xx_hal_gpio.c ****   [..]  
  28:Drivers/STM32F1xx_HAL_Driver/Src/stm32f1xx_hal_gpio.c ****   During and just after reset, the alternate functions and external interrupt  
  29:Drivers/STM32F1xx_HAL_Driver/Src/stm32f1xx_hal_gpio.c ****   lines are not active and the I/O ports are configured in input floating mode.
  30:Drivers/STM32F1xx_HAL_Driver/Src/stm32f1xx_hal_gpio.c ****   
  31:Drivers/STM32F1xx_HAL_Driver/Src/stm32f1xx_hal_gpio.c ****   [..]   
ARM GAS  /tmp/ccIT72v0.s 			page 2


  32:Drivers/STM32F1xx_HAL_Driver/Src/stm32f1xx_hal_gpio.c ****   All GPIO pins have weak internal pull-up and pull-down resistors, which can be 
  33:Drivers/STM32F1xx_HAL_Driver/Src/stm32f1xx_hal_gpio.c ****   activated or not.
  34:Drivers/STM32F1xx_HAL_Driver/Src/stm32f1xx_hal_gpio.c **** 
  35:Drivers/STM32F1xx_HAL_Driver/Src/stm32f1xx_hal_gpio.c ****   [..]
  36:Drivers/STM32F1xx_HAL_Driver/Src/stm32f1xx_hal_gpio.c ****   In Output or Alternate mode, each IO can be configured on open-drain or push-pull
  37:Drivers/STM32F1xx_HAL_Driver/Src/stm32f1xx_hal_gpio.c ****   type and the IO speed can be selected depending on the VDD value.
  38:Drivers/STM32F1xx_HAL_Driver/Src/stm32f1xx_hal_gpio.c **** 
  39:Drivers/STM32F1xx_HAL_Driver/Src/stm32f1xx_hal_gpio.c ****   [..]  
  40:Drivers/STM32F1xx_HAL_Driver/Src/stm32f1xx_hal_gpio.c ****   All ports have external interrupt/event capability. To use external interrupt 
  41:Drivers/STM32F1xx_HAL_Driver/Src/stm32f1xx_hal_gpio.c ****   lines, the port must be configured in input mode. All available GPIO pins are 
  42:Drivers/STM32F1xx_HAL_Driver/Src/stm32f1xx_hal_gpio.c ****   connected to the 16 external interrupt/event lines from EXTI0 to EXTI15.
  43:Drivers/STM32F1xx_HAL_Driver/Src/stm32f1xx_hal_gpio.c ****   
  44:Drivers/STM32F1xx_HAL_Driver/Src/stm32f1xx_hal_gpio.c ****   [..]  
  45:Drivers/STM32F1xx_HAL_Driver/Src/stm32f1xx_hal_gpio.c ****   The external interrupt/event controller consists of up to 20 edge detectors in connectivity
  46:Drivers/STM32F1xx_HAL_Driver/Src/stm32f1xx_hal_gpio.c ****   line devices, or 19 edge detectors in other devices for generating event/interrupt requests.
  47:Drivers/STM32F1xx_HAL_Driver/Src/stm32f1xx_hal_gpio.c ****   Each input line can be independently configured to select the type (event or interrupt) and
  48:Drivers/STM32F1xx_HAL_Driver/Src/stm32f1xx_hal_gpio.c ****   the corresponding trigger event (rising or falling or both). Each line can also masked
  49:Drivers/STM32F1xx_HAL_Driver/Src/stm32f1xx_hal_gpio.c ****   independently. A pending register maintains the status line of the interrupt requests
  50:Drivers/STM32F1xx_HAL_Driver/Src/stm32f1xx_hal_gpio.c ****  
  51:Drivers/STM32F1xx_HAL_Driver/Src/stm32f1xx_hal_gpio.c ****                      ##### How to use this driver #####
  52:Drivers/STM32F1xx_HAL_Driver/Src/stm32f1xx_hal_gpio.c ****   ==============================================================================  
  53:Drivers/STM32F1xx_HAL_Driver/Src/stm32f1xx_hal_gpio.c ****  [..]
  54:Drivers/STM32F1xx_HAL_Driver/Src/stm32f1xx_hal_gpio.c ****    (#) Enable the GPIO APB2 clock using the following function : __HAL_RCC_GPIOx_CLK_ENABLE(). 
  55:Drivers/STM32F1xx_HAL_Driver/Src/stm32f1xx_hal_gpio.c ****    
  56:Drivers/STM32F1xx_HAL_Driver/Src/stm32f1xx_hal_gpio.c ****    (#) Configure the GPIO pin(s) using HAL_GPIO_Init().
  57:Drivers/STM32F1xx_HAL_Driver/Src/stm32f1xx_hal_gpio.c ****        (++) Configure the IO mode using "Mode" member from GPIO_InitTypeDef structure
  58:Drivers/STM32F1xx_HAL_Driver/Src/stm32f1xx_hal_gpio.c ****        (++) Activate Pull-up, Pull-down resistor using "Pull" member from GPIO_InitTypeDef 
  59:Drivers/STM32F1xx_HAL_Driver/Src/stm32f1xx_hal_gpio.c ****             structure.
  60:Drivers/STM32F1xx_HAL_Driver/Src/stm32f1xx_hal_gpio.c ****        (++) In case of Output or alternate function mode selection: the speed is 
  61:Drivers/STM32F1xx_HAL_Driver/Src/stm32f1xx_hal_gpio.c ****             configured through "Speed" member from GPIO_InitTypeDef structure
  62:Drivers/STM32F1xx_HAL_Driver/Src/stm32f1xx_hal_gpio.c ****        (++) Analog mode is required when a pin is to be used as ADC channel 
  63:Drivers/STM32F1xx_HAL_Driver/Src/stm32f1xx_hal_gpio.c ****             or DAC output.
  64:Drivers/STM32F1xx_HAL_Driver/Src/stm32f1xx_hal_gpio.c ****        (++) In case of external interrupt/event selection the "Mode" member from 
  65:Drivers/STM32F1xx_HAL_Driver/Src/stm32f1xx_hal_gpio.c ****             GPIO_InitTypeDef structure select the type (interrupt or event) and 
  66:Drivers/STM32F1xx_HAL_Driver/Src/stm32f1xx_hal_gpio.c ****             the corresponding trigger event (rising or falling or both).
  67:Drivers/STM32F1xx_HAL_Driver/Src/stm32f1xx_hal_gpio.c ****    
  68:Drivers/STM32F1xx_HAL_Driver/Src/stm32f1xx_hal_gpio.c ****    (#) In case of external interrupt/event mode selection, configure NVIC IRQ priority 
  69:Drivers/STM32F1xx_HAL_Driver/Src/stm32f1xx_hal_gpio.c ****        mapped to the EXTI line using HAL_NVIC_SetPriority() and enable it using
  70:Drivers/STM32F1xx_HAL_Driver/Src/stm32f1xx_hal_gpio.c ****        HAL_NVIC_EnableIRQ().
  71:Drivers/STM32F1xx_HAL_Driver/Src/stm32f1xx_hal_gpio.c ****          
  72:Drivers/STM32F1xx_HAL_Driver/Src/stm32f1xx_hal_gpio.c ****    (#) To get the level of a pin configured in input mode use HAL_GPIO_ReadPin().
  73:Drivers/STM32F1xx_HAL_Driver/Src/stm32f1xx_hal_gpio.c ****             
  74:Drivers/STM32F1xx_HAL_Driver/Src/stm32f1xx_hal_gpio.c ****    (#) To set/reset the level of a pin configured in output mode use 
  75:Drivers/STM32F1xx_HAL_Driver/Src/stm32f1xx_hal_gpio.c ****        HAL_GPIO_WritePin()/HAL_GPIO_TogglePin().
  76:Drivers/STM32F1xx_HAL_Driver/Src/stm32f1xx_hal_gpio.c ****   
  77:Drivers/STM32F1xx_HAL_Driver/Src/stm32f1xx_hal_gpio.c ****    (#) To lock pin configuration until next reset use HAL_GPIO_LockPin().
  78:Drivers/STM32F1xx_HAL_Driver/Src/stm32f1xx_hal_gpio.c ****                  
  79:Drivers/STM32F1xx_HAL_Driver/Src/stm32f1xx_hal_gpio.c ****    (#) During and just after reset, the alternate functions are not 
  80:Drivers/STM32F1xx_HAL_Driver/Src/stm32f1xx_hal_gpio.c ****        active and the GPIO pins are configured in input floating mode (except JTAG
  81:Drivers/STM32F1xx_HAL_Driver/Src/stm32f1xx_hal_gpio.c ****        pins).
  82:Drivers/STM32F1xx_HAL_Driver/Src/stm32f1xx_hal_gpio.c ****   
  83:Drivers/STM32F1xx_HAL_Driver/Src/stm32f1xx_hal_gpio.c ****    (#) The LSE oscillator pins OSC32_IN and OSC32_OUT can be used as general purpose 
  84:Drivers/STM32F1xx_HAL_Driver/Src/stm32f1xx_hal_gpio.c ****        (PC14 and PC15, respectively) when the LSE oscillator is off. The LSE has 
  85:Drivers/STM32F1xx_HAL_Driver/Src/stm32f1xx_hal_gpio.c ****        priority over the GPIO function.
  86:Drivers/STM32F1xx_HAL_Driver/Src/stm32f1xx_hal_gpio.c ****   
  87:Drivers/STM32F1xx_HAL_Driver/Src/stm32f1xx_hal_gpio.c ****    (#) The HSE oscillator pins OSC_IN/OSC_OUT can be used as 
  88:Drivers/STM32F1xx_HAL_Driver/Src/stm32f1xx_hal_gpio.c ****        general purpose PD0 and PD1, respectively, when the HSE oscillator is off. 
ARM GAS  /tmp/ccIT72v0.s 			page 3


  89:Drivers/STM32F1xx_HAL_Driver/Src/stm32f1xx_hal_gpio.c ****        The HSE has priority over the GPIO function.
  90:Drivers/STM32F1xx_HAL_Driver/Src/stm32f1xx_hal_gpio.c ****   
  91:Drivers/STM32F1xx_HAL_Driver/Src/stm32f1xx_hal_gpio.c ****   @endverbatim
  92:Drivers/STM32F1xx_HAL_Driver/Src/stm32f1xx_hal_gpio.c ****   ******************************************************************************
  93:Drivers/STM32F1xx_HAL_Driver/Src/stm32f1xx_hal_gpio.c ****   * @attention
  94:Drivers/STM32F1xx_HAL_Driver/Src/stm32f1xx_hal_gpio.c ****   *
  95:Drivers/STM32F1xx_HAL_Driver/Src/stm32f1xx_hal_gpio.c ****   * <h2><center>&copy; COPYRIGHT(c) 2016 STMicroelectronics</center></h2>
  96:Drivers/STM32F1xx_HAL_Driver/Src/stm32f1xx_hal_gpio.c ****   *
  97:Drivers/STM32F1xx_HAL_Driver/Src/stm32f1xx_hal_gpio.c ****   * Redistribution and use in source and binary forms, with or without modification,
  98:Drivers/STM32F1xx_HAL_Driver/Src/stm32f1xx_hal_gpio.c ****   * are permitted provided that the following conditions are met:
  99:Drivers/STM32F1xx_HAL_Driver/Src/stm32f1xx_hal_gpio.c ****   *   1. Redistributions of source code must retain the above copyright notice,
 100:Drivers/STM32F1xx_HAL_Driver/Src/stm32f1xx_hal_gpio.c ****   *      this list of conditions and the following disclaimer.
 101:Drivers/STM32F1xx_HAL_Driver/Src/stm32f1xx_hal_gpio.c ****   *   2. Redistributions in binary form must reproduce the above copyright notice,
 102:Drivers/STM32F1xx_HAL_Driver/Src/stm32f1xx_hal_gpio.c ****   *      this list of conditions and the following disclaimer in the documentation
 103:Drivers/STM32F1xx_HAL_Driver/Src/stm32f1xx_hal_gpio.c ****   *      and/or other materials provided with the distribution.
 104:Drivers/STM32F1xx_HAL_Driver/Src/stm32f1xx_hal_gpio.c ****   *   3. Neither the name of STMicroelectronics nor the names of its contributors
 105:Drivers/STM32F1xx_HAL_Driver/Src/stm32f1xx_hal_gpio.c ****   *      may be used to endorse or promote products derived from this software
 106:Drivers/STM32F1xx_HAL_Driver/Src/stm32f1xx_hal_gpio.c ****   *      without specific prior written permission.
 107:Drivers/STM32F1xx_HAL_Driver/Src/stm32f1xx_hal_gpio.c ****   *
 108:Drivers/STM32F1xx_HAL_Driver/Src/stm32f1xx_hal_gpio.c ****   * THIS SOFTWARE IS PROVIDED BY THE COPYRIGHT HOLDERS AND CONTRIBUTORS "AS IS"
 109:Drivers/STM32F1xx_HAL_Driver/Src/stm32f1xx_hal_gpio.c ****   * AND ANY EXPRESS OR IMPLIED WARRANTIES, INCLUDING, BUT NOT LIMITED TO, THE
 110:Drivers/STM32F1xx_HAL_Driver/Src/stm32f1xx_hal_gpio.c ****   * IMPLIED WARRANTIES OF MERCHANTABILITY AND FITNESS FOR A PARTICULAR PURPOSE ARE
 111:Drivers/STM32F1xx_HAL_Driver/Src/stm32f1xx_hal_gpio.c ****   * DISCLAIMED. IN NO EVENT SHALL THE COPYRIGHT HOLDER OR CONTRIBUTORS BE LIABLE
 112:Drivers/STM32F1xx_HAL_Driver/Src/stm32f1xx_hal_gpio.c ****   * FOR ANY DIRECT, INDIRECT, INCIDENTAL, SPECIAL, EXEMPLARY, OR CONSEQUENTIAL
 113:Drivers/STM32F1xx_HAL_Driver/Src/stm32f1xx_hal_gpio.c ****   * DAMAGES (INCLUDING, BUT NOT LIMITED TO, PROCUREMENT OF SUBSTITUTE GOODS OR
 114:Drivers/STM32F1xx_HAL_Driver/Src/stm32f1xx_hal_gpio.c ****   * SERVICES; LOSS OF USE, DATA, OR PROFITS; OR BUSINESS INTERRUPTION) HOWEVER
 115:Drivers/STM32F1xx_HAL_Driver/Src/stm32f1xx_hal_gpio.c ****   * CAUSED AND ON ANY THEORY OF LIABILITY, WHETHER IN CONTRACT, STRICT LIABILITY,
 116:Drivers/STM32F1xx_HAL_Driver/Src/stm32f1xx_hal_gpio.c ****   * OR TORT (INCLUDING NEGLIGENCE OR OTHERWISE) ARISING IN ANY WAY OUT OF THE USE
 117:Drivers/STM32F1xx_HAL_Driver/Src/stm32f1xx_hal_gpio.c ****   * OF THIS SOFTWARE, EVEN IF ADVISED OF THE POSSIBILITY OF SUCH DAMAGE.
 118:Drivers/STM32F1xx_HAL_Driver/Src/stm32f1xx_hal_gpio.c ****   *
 119:Drivers/STM32F1xx_HAL_Driver/Src/stm32f1xx_hal_gpio.c ****   ******************************************************************************  
 120:Drivers/STM32F1xx_HAL_Driver/Src/stm32f1xx_hal_gpio.c ****   */ 
 121:Drivers/STM32F1xx_HAL_Driver/Src/stm32f1xx_hal_gpio.c **** 
 122:Drivers/STM32F1xx_HAL_Driver/Src/stm32f1xx_hal_gpio.c **** /* Includes ------------------------------------------------------------------*/
 123:Drivers/STM32F1xx_HAL_Driver/Src/stm32f1xx_hal_gpio.c **** #include "stm32f1xx_hal.h"
 124:Drivers/STM32F1xx_HAL_Driver/Src/stm32f1xx_hal_gpio.c **** 
 125:Drivers/STM32F1xx_HAL_Driver/Src/stm32f1xx_hal_gpio.c **** /** @addtogroup STM32F1xx_HAL_Driver
 126:Drivers/STM32F1xx_HAL_Driver/Src/stm32f1xx_hal_gpio.c ****   * @{
 127:Drivers/STM32F1xx_HAL_Driver/Src/stm32f1xx_hal_gpio.c ****   */
 128:Drivers/STM32F1xx_HAL_Driver/Src/stm32f1xx_hal_gpio.c **** 
 129:Drivers/STM32F1xx_HAL_Driver/Src/stm32f1xx_hal_gpio.c **** /** @defgroup GPIO GPIO
 130:Drivers/STM32F1xx_HAL_Driver/Src/stm32f1xx_hal_gpio.c ****   * @brief GPIO HAL module driver
 131:Drivers/STM32F1xx_HAL_Driver/Src/stm32f1xx_hal_gpio.c ****   * @{
 132:Drivers/STM32F1xx_HAL_Driver/Src/stm32f1xx_hal_gpio.c ****   */
 133:Drivers/STM32F1xx_HAL_Driver/Src/stm32f1xx_hal_gpio.c **** 
 134:Drivers/STM32F1xx_HAL_Driver/Src/stm32f1xx_hal_gpio.c **** #ifdef HAL_GPIO_MODULE_ENABLED
 135:Drivers/STM32F1xx_HAL_Driver/Src/stm32f1xx_hal_gpio.c **** 
 136:Drivers/STM32F1xx_HAL_Driver/Src/stm32f1xx_hal_gpio.c **** /* Private typedef -----------------------------------------------------------*/
 137:Drivers/STM32F1xx_HAL_Driver/Src/stm32f1xx_hal_gpio.c **** /* Private define ------------------------------------------------------------*/
 138:Drivers/STM32F1xx_HAL_Driver/Src/stm32f1xx_hal_gpio.c **** /** @addtogroup GPIO_Private_Constants GPIO Private Constants
 139:Drivers/STM32F1xx_HAL_Driver/Src/stm32f1xx_hal_gpio.c ****   * @{
 140:Drivers/STM32F1xx_HAL_Driver/Src/stm32f1xx_hal_gpio.c ****   */
 141:Drivers/STM32F1xx_HAL_Driver/Src/stm32f1xx_hal_gpio.c **** #define GPIO_MODE             0x00000003U
 142:Drivers/STM32F1xx_HAL_Driver/Src/stm32f1xx_hal_gpio.c **** #define EXTI_MODE             0x10000000U
 143:Drivers/STM32F1xx_HAL_Driver/Src/stm32f1xx_hal_gpio.c **** #define GPIO_MODE_IT          0x00010000U
 144:Drivers/STM32F1xx_HAL_Driver/Src/stm32f1xx_hal_gpio.c **** #define GPIO_MODE_EVT         0x00020000U
 145:Drivers/STM32F1xx_HAL_Driver/Src/stm32f1xx_hal_gpio.c **** #define RISING_EDGE           0x00100000U
ARM GAS  /tmp/ccIT72v0.s 			page 4


 146:Drivers/STM32F1xx_HAL_Driver/Src/stm32f1xx_hal_gpio.c **** #define FALLING_EDGE          0x00200000U
 147:Drivers/STM32F1xx_HAL_Driver/Src/stm32f1xx_hal_gpio.c **** #define GPIO_OUTPUT_TYPE      0x00000010U
 148:Drivers/STM32F1xx_HAL_Driver/Src/stm32f1xx_hal_gpio.c **** 
 149:Drivers/STM32F1xx_HAL_Driver/Src/stm32f1xx_hal_gpio.c **** #define GPIO_NUMBER           16U
 150:Drivers/STM32F1xx_HAL_Driver/Src/stm32f1xx_hal_gpio.c **** 
 151:Drivers/STM32F1xx_HAL_Driver/Src/stm32f1xx_hal_gpio.c **** /* Definitions for bit manipulation of CRL and CRH register */
 152:Drivers/STM32F1xx_HAL_Driver/Src/stm32f1xx_hal_gpio.c **** #define  GPIO_CR_MODE_INPUT         0x00000000U /*!< 00: Input mode (reset state)  */
 153:Drivers/STM32F1xx_HAL_Driver/Src/stm32f1xx_hal_gpio.c **** #define  GPIO_CR_CNF_ANALOG         0x00000000U /*!< 00: Analog mode  */
 154:Drivers/STM32F1xx_HAL_Driver/Src/stm32f1xx_hal_gpio.c **** #define  GPIO_CR_CNF_INPUT_FLOATING 0x00000004U /*!< 01: Floating input (reset state)  */
 155:Drivers/STM32F1xx_HAL_Driver/Src/stm32f1xx_hal_gpio.c **** #define  GPIO_CR_CNF_INPUT_PU_PD    0x00000008U /*!< 10: Input with pull-up / pull-down  */
 156:Drivers/STM32F1xx_HAL_Driver/Src/stm32f1xx_hal_gpio.c **** #define  GPIO_CR_CNF_GP_OUTPUT_PP   0x00000000U /*!< 00: General purpose output push-pull  */
 157:Drivers/STM32F1xx_HAL_Driver/Src/stm32f1xx_hal_gpio.c **** #define  GPIO_CR_CNF_GP_OUTPUT_OD   0x00000004U /*!< 01: General purpose output Open-drain  */
 158:Drivers/STM32F1xx_HAL_Driver/Src/stm32f1xx_hal_gpio.c **** #define  GPIO_CR_CNF_AF_OUTPUT_PP   0x00000008U /*!< 10: Alternate function output Push-pull  */
 159:Drivers/STM32F1xx_HAL_Driver/Src/stm32f1xx_hal_gpio.c **** #define  GPIO_CR_CNF_AF_OUTPUT_OD   0x0000000CU /*!< 11: Alternate function output Open-drain  */
 160:Drivers/STM32F1xx_HAL_Driver/Src/stm32f1xx_hal_gpio.c ****  
 161:Drivers/STM32F1xx_HAL_Driver/Src/stm32f1xx_hal_gpio.c **** /**
 162:Drivers/STM32F1xx_HAL_Driver/Src/stm32f1xx_hal_gpio.c ****   * @}
 163:Drivers/STM32F1xx_HAL_Driver/Src/stm32f1xx_hal_gpio.c ****   */
 164:Drivers/STM32F1xx_HAL_Driver/Src/stm32f1xx_hal_gpio.c **** /* Private macro -------------------------------------------------------------*/
 165:Drivers/STM32F1xx_HAL_Driver/Src/stm32f1xx_hal_gpio.c **** /* Private variables ---------------------------------------------------------*/
 166:Drivers/STM32F1xx_HAL_Driver/Src/stm32f1xx_hal_gpio.c **** /* Private function prototypes -----------------------------------------------*/
 167:Drivers/STM32F1xx_HAL_Driver/Src/stm32f1xx_hal_gpio.c **** /* Private functions ---------------------------------------------------------*/
 168:Drivers/STM32F1xx_HAL_Driver/Src/stm32f1xx_hal_gpio.c **** /* Exported functions --------------------------------------------------------*/
 169:Drivers/STM32F1xx_HAL_Driver/Src/stm32f1xx_hal_gpio.c **** /** @defgroup GPIO_Exported_Functions GPIO Exported Functions
 170:Drivers/STM32F1xx_HAL_Driver/Src/stm32f1xx_hal_gpio.c ****   * @{
 171:Drivers/STM32F1xx_HAL_Driver/Src/stm32f1xx_hal_gpio.c ****   */
 172:Drivers/STM32F1xx_HAL_Driver/Src/stm32f1xx_hal_gpio.c **** 
 173:Drivers/STM32F1xx_HAL_Driver/Src/stm32f1xx_hal_gpio.c **** /** @defgroup GPIO_Exported_Functions_Group1 Initialization and de-initialization functions
 174:Drivers/STM32F1xx_HAL_Driver/Src/stm32f1xx_hal_gpio.c ****  *  @brief    Initialization and Configuration functions
 175:Drivers/STM32F1xx_HAL_Driver/Src/stm32f1xx_hal_gpio.c ****  *
 176:Drivers/STM32F1xx_HAL_Driver/Src/stm32f1xx_hal_gpio.c **** @verbatim    
 177:Drivers/STM32F1xx_HAL_Driver/Src/stm32f1xx_hal_gpio.c ****  ===============================================================================
 178:Drivers/STM32F1xx_HAL_Driver/Src/stm32f1xx_hal_gpio.c ****               ##### Initialization and de-initialization functions #####
 179:Drivers/STM32F1xx_HAL_Driver/Src/stm32f1xx_hal_gpio.c ****  ===============================================================================
 180:Drivers/STM32F1xx_HAL_Driver/Src/stm32f1xx_hal_gpio.c ****   [..]
 181:Drivers/STM32F1xx_HAL_Driver/Src/stm32f1xx_hal_gpio.c ****     This section provides functions allowing to initialize and de-initialize the GPIOs
 182:Drivers/STM32F1xx_HAL_Driver/Src/stm32f1xx_hal_gpio.c ****     to be ready for use.
 183:Drivers/STM32F1xx_HAL_Driver/Src/stm32f1xx_hal_gpio.c ****  
 184:Drivers/STM32F1xx_HAL_Driver/Src/stm32f1xx_hal_gpio.c **** @endverbatim
 185:Drivers/STM32F1xx_HAL_Driver/Src/stm32f1xx_hal_gpio.c ****   * @{
 186:Drivers/STM32F1xx_HAL_Driver/Src/stm32f1xx_hal_gpio.c ****   */
 187:Drivers/STM32F1xx_HAL_Driver/Src/stm32f1xx_hal_gpio.c **** 
 188:Drivers/STM32F1xx_HAL_Driver/Src/stm32f1xx_hal_gpio.c **** 
 189:Drivers/STM32F1xx_HAL_Driver/Src/stm32f1xx_hal_gpio.c **** /**
 190:Drivers/STM32F1xx_HAL_Driver/Src/stm32f1xx_hal_gpio.c ****   * @brief  Initializes the GPIOx peripheral according to the specified parameters in the GPIO_Init
 191:Drivers/STM32F1xx_HAL_Driver/Src/stm32f1xx_hal_gpio.c ****   * @param  GPIOx: where x can be (A..G depending on device used) to select the GPIO peripheral
 192:Drivers/STM32F1xx_HAL_Driver/Src/stm32f1xx_hal_gpio.c ****   * @param  GPIO_Init: pointer to a GPIO_InitTypeDef structure that contains
 193:Drivers/STM32F1xx_HAL_Driver/Src/stm32f1xx_hal_gpio.c ****   *         the configuration information for the specified GPIO peripheral.
 194:Drivers/STM32F1xx_HAL_Driver/Src/stm32f1xx_hal_gpio.c ****   * @retval None
 195:Drivers/STM32F1xx_HAL_Driver/Src/stm32f1xx_hal_gpio.c ****   */
 196:Drivers/STM32F1xx_HAL_Driver/Src/stm32f1xx_hal_gpio.c **** void HAL_GPIO_Init(GPIO_TypeDef  *GPIOx, GPIO_InitTypeDef *GPIO_Init)
 197:Drivers/STM32F1xx_HAL_Driver/Src/stm32f1xx_hal_gpio.c **** {
  28              		.loc 1 197 1 view -0
  29              		.cfi_startproc
  30              		@ args = 0, pretend = 0, frame = 8
  31              		@ frame_needed = 0, uses_anonymous_args = 0
  32              		@ link register save eliminated.
ARM GAS  /tmp/ccIT72v0.s 			page 5


  33              		.loc 1 197 1 is_stmt 0 view .LVU1
  34 0000 F0B4     		push	{r4, r5, r6, r7}
  35              	.LCFI0:
  36              		.cfi_def_cfa_offset 16
  37              		.cfi_offset 4, -16
  38              		.cfi_offset 5, -12
  39              		.cfi_offset 6, -8
  40              		.cfi_offset 7, -4
  41 0002 82B0     		sub	sp, sp, #8
  42              	.LCFI1:
  43              		.cfi_def_cfa_offset 24
 198:Drivers/STM32F1xx_HAL_Driver/Src/stm32f1xx_hal_gpio.c ****   uint32_t position;
  44              		.loc 1 198 3 is_stmt 1 view .LVU2
 199:Drivers/STM32F1xx_HAL_Driver/Src/stm32f1xx_hal_gpio.c ****   uint32_t ioposition = 0x00U;
  45              		.loc 1 199 3 view .LVU3
  46              	.LVL1:
 200:Drivers/STM32F1xx_HAL_Driver/Src/stm32f1xx_hal_gpio.c ****   uint32_t iocurrent = 0x00U;
  47              		.loc 1 200 3 view .LVU4
 201:Drivers/STM32F1xx_HAL_Driver/Src/stm32f1xx_hal_gpio.c ****   uint32_t temp = 0x00U;
  48              		.loc 1 201 3 view .LVU5
 202:Drivers/STM32F1xx_HAL_Driver/Src/stm32f1xx_hal_gpio.c ****   uint32_t config = 0x00U;
  49              		.loc 1 202 3 view .LVU6
 203:Drivers/STM32F1xx_HAL_Driver/Src/stm32f1xx_hal_gpio.c ****   __IO uint32_t *configregister; /* Store the address of CRL or CRH register based on pin number */
  50              		.loc 1 203 3 view .LVU7
 204:Drivers/STM32F1xx_HAL_Driver/Src/stm32f1xx_hal_gpio.c ****   uint32_t registeroffset = 0U; /* offset used during computation of CNF and MODE bits placement in
  51              		.loc 1 204 3 view .LVU8
 205:Drivers/STM32F1xx_HAL_Driver/Src/stm32f1xx_hal_gpio.c ****   
 206:Drivers/STM32F1xx_HAL_Driver/Src/stm32f1xx_hal_gpio.c ****   /* Check the parameters */
 207:Drivers/STM32F1xx_HAL_Driver/Src/stm32f1xx_hal_gpio.c ****   assert_param(IS_GPIO_ALL_INSTANCE(GPIOx));
  52              		.loc 1 207 3 view .LVU9
 208:Drivers/STM32F1xx_HAL_Driver/Src/stm32f1xx_hal_gpio.c ****   assert_param(IS_GPIO_PIN(GPIO_Init->Pin));
  53              		.loc 1 208 3 view .LVU10
 209:Drivers/STM32F1xx_HAL_Driver/Src/stm32f1xx_hal_gpio.c ****   assert_param(IS_GPIO_MODE(GPIO_Init->Mode));
  54              		.loc 1 209 3 view .LVU11
 210:Drivers/STM32F1xx_HAL_Driver/Src/stm32f1xx_hal_gpio.c **** 
 211:Drivers/STM32F1xx_HAL_Driver/Src/stm32f1xx_hal_gpio.c ****   /* Configure the port pins */
 212:Drivers/STM32F1xx_HAL_Driver/Src/stm32f1xx_hal_gpio.c ****   for (position = 0U; position < GPIO_NUMBER; position++)
  55              		.loc 1 212 3 view .LVU12
 202:Drivers/STM32F1xx_HAL_Driver/Src/stm32f1xx_hal_gpio.c ****   __IO uint32_t *configregister; /* Store the address of CRL or CRH register based on pin number */
  56              		.loc 1 202 12 is_stmt 0 view .LVU13
  57 0004 0025     		movs	r5, #0
  58              		.loc 1 212 17 view .LVU14
  59 0006 2C46     		mov	r4, r5
  60              		.loc 1 212 3 view .LVU15
  61 0008 ABE0     		b	.L2
  62              	.LVL2:
  63              	.L4:
 213:Drivers/STM32F1xx_HAL_Driver/Src/stm32f1xx_hal_gpio.c ****   {
 214:Drivers/STM32F1xx_HAL_Driver/Src/stm32f1xx_hal_gpio.c ****     /* Get the IO position */
 215:Drivers/STM32F1xx_HAL_Driver/Src/stm32f1xx_hal_gpio.c ****     ioposition = (0x01U << position);
 216:Drivers/STM32F1xx_HAL_Driver/Src/stm32f1xx_hal_gpio.c ****     
 217:Drivers/STM32F1xx_HAL_Driver/Src/stm32f1xx_hal_gpio.c ****     /* Get the current IO position */
 218:Drivers/STM32F1xx_HAL_Driver/Src/stm32f1xx_hal_gpio.c ****     iocurrent = (uint32_t)(GPIO_Init->Pin) & ioposition;
 219:Drivers/STM32F1xx_HAL_Driver/Src/stm32f1xx_hal_gpio.c **** 
 220:Drivers/STM32F1xx_HAL_Driver/Src/stm32f1xx_hal_gpio.c ****     if (iocurrent == ioposition)
 221:Drivers/STM32F1xx_HAL_Driver/Src/stm32f1xx_hal_gpio.c ****     {
 222:Drivers/STM32F1xx_HAL_Driver/Src/stm32f1xx_hal_gpio.c ****       /* Check the Alternate function parameters */
ARM GAS  /tmp/ccIT72v0.s 			page 6


 223:Drivers/STM32F1xx_HAL_Driver/Src/stm32f1xx_hal_gpio.c ****       assert_param(IS_GPIO_AF_INSTANCE(GPIOx));
 224:Drivers/STM32F1xx_HAL_Driver/Src/stm32f1xx_hal_gpio.c **** 
 225:Drivers/STM32F1xx_HAL_Driver/Src/stm32f1xx_hal_gpio.c ****       /* Based on the required mode, filling config variable with MODEy[1:0] and CNFy[3:2] correspo
 226:Drivers/STM32F1xx_HAL_Driver/Src/stm32f1xx_hal_gpio.c ****       switch (GPIO_Init->Mode)
  64              		.loc 1 226 7 view .LVU16
  65 000a 854F     		ldr	r7, .L42
  66 000c BB42     		cmp	r3, r7
  67 000e 10D0     		beq	.L12
  68 0010 07D9     		bls	.L37
  69 0012 844F     		ldr	r7, .L42+4
  70 0014 BB42     		cmp	r3, r7
  71 0016 0CD0     		beq	.L12
  72 0018 07F58037 		add	r7, r7, #65536
  73 001c BB42     		cmp	r3, r7
  74 001e 08D0     		beq	.L12
  75 0020 13E0     		b	.L9
  76              	.L37:
  77 0022 A7F58017 		sub	r7, r7, #1048576
  78 0026 BB42     		cmp	r3, r7
  79 0028 03D0     		beq	.L12
  80 002a 07F57027 		add	r7, r7, #983040
  81 002e BB42     		cmp	r3, r7
  82 0030 07D1     		bne	.L38
  83              	.L12:
 227:Drivers/STM32F1xx_HAL_Driver/Src/stm32f1xx_hal_gpio.c ****       {
 228:Drivers/STM32F1xx_HAL_Driver/Src/stm32f1xx_hal_gpio.c ****         /* If we are configuring the pin in OUTPUT push-pull mode */
 229:Drivers/STM32F1xx_HAL_Driver/Src/stm32f1xx_hal_gpio.c ****         case GPIO_MODE_OUTPUT_PP:
 230:Drivers/STM32F1xx_HAL_Driver/Src/stm32f1xx_hal_gpio.c ****           /* Check the GPIO speed parameter */
 231:Drivers/STM32F1xx_HAL_Driver/Src/stm32f1xx_hal_gpio.c ****           assert_param(IS_GPIO_SPEED(GPIO_Init->Speed));
 232:Drivers/STM32F1xx_HAL_Driver/Src/stm32f1xx_hal_gpio.c ****           config = GPIO_Init->Speed + GPIO_CR_CNF_GP_OUTPUT_PP;
 233:Drivers/STM32F1xx_HAL_Driver/Src/stm32f1xx_hal_gpio.c ****           break;
 234:Drivers/STM32F1xx_HAL_Driver/Src/stm32f1xx_hal_gpio.c ****           
 235:Drivers/STM32F1xx_HAL_Driver/Src/stm32f1xx_hal_gpio.c ****         /* If we are configuring the pin in OUTPUT open-drain mode */
 236:Drivers/STM32F1xx_HAL_Driver/Src/stm32f1xx_hal_gpio.c ****         case GPIO_MODE_OUTPUT_OD:
 237:Drivers/STM32F1xx_HAL_Driver/Src/stm32f1xx_hal_gpio.c ****           /* Check the GPIO speed parameter */
 238:Drivers/STM32F1xx_HAL_Driver/Src/stm32f1xx_hal_gpio.c ****           assert_param(IS_GPIO_SPEED(GPIO_Init->Speed));
 239:Drivers/STM32F1xx_HAL_Driver/Src/stm32f1xx_hal_gpio.c ****           config = GPIO_Init->Speed + GPIO_CR_CNF_GP_OUTPUT_OD;
 240:Drivers/STM32F1xx_HAL_Driver/Src/stm32f1xx_hal_gpio.c ****           break;
 241:Drivers/STM32F1xx_HAL_Driver/Src/stm32f1xx_hal_gpio.c ****           
 242:Drivers/STM32F1xx_HAL_Driver/Src/stm32f1xx_hal_gpio.c ****         /* If we are configuring the pin in ALTERNATE FUNCTION push-pull mode */
 243:Drivers/STM32F1xx_HAL_Driver/Src/stm32f1xx_hal_gpio.c ****         case GPIO_MODE_AF_PP:
 244:Drivers/STM32F1xx_HAL_Driver/Src/stm32f1xx_hal_gpio.c ****           /* Check the GPIO speed parameter */
 245:Drivers/STM32F1xx_HAL_Driver/Src/stm32f1xx_hal_gpio.c ****           assert_param(IS_GPIO_SPEED(GPIO_Init->Speed));
 246:Drivers/STM32F1xx_HAL_Driver/Src/stm32f1xx_hal_gpio.c ****           config = GPIO_Init->Speed + GPIO_CR_CNF_AF_OUTPUT_PP;
 247:Drivers/STM32F1xx_HAL_Driver/Src/stm32f1xx_hal_gpio.c ****           break;
 248:Drivers/STM32F1xx_HAL_Driver/Src/stm32f1xx_hal_gpio.c ****           
 249:Drivers/STM32F1xx_HAL_Driver/Src/stm32f1xx_hal_gpio.c ****         /* If we are configuring the pin in ALTERNATE FUNCTION open-drain mode */
 250:Drivers/STM32F1xx_HAL_Driver/Src/stm32f1xx_hal_gpio.c ****         case GPIO_MODE_AF_OD:
 251:Drivers/STM32F1xx_HAL_Driver/Src/stm32f1xx_hal_gpio.c ****           /* Check the GPIO speed parameter */
 252:Drivers/STM32F1xx_HAL_Driver/Src/stm32f1xx_hal_gpio.c ****           assert_param(IS_GPIO_SPEED(GPIO_Init->Speed));
 253:Drivers/STM32F1xx_HAL_Driver/Src/stm32f1xx_hal_gpio.c ****           config = GPIO_Init->Speed + GPIO_CR_CNF_AF_OUTPUT_OD;
 254:Drivers/STM32F1xx_HAL_Driver/Src/stm32f1xx_hal_gpio.c ****           break;
 255:Drivers/STM32F1xx_HAL_Driver/Src/stm32f1xx_hal_gpio.c ****           
 256:Drivers/STM32F1xx_HAL_Driver/Src/stm32f1xx_hal_gpio.c ****         /* If we are configuring the pin in INPUT (also applicable to EVENT and IT mode) */
 257:Drivers/STM32F1xx_HAL_Driver/Src/stm32f1xx_hal_gpio.c ****         case GPIO_MODE_INPUT:
 258:Drivers/STM32F1xx_HAL_Driver/Src/stm32f1xx_hal_gpio.c ****         case GPIO_MODE_IT_RISING:
 259:Drivers/STM32F1xx_HAL_Driver/Src/stm32f1xx_hal_gpio.c ****         case GPIO_MODE_IT_FALLING:
ARM GAS  /tmp/ccIT72v0.s 			page 7


 260:Drivers/STM32F1xx_HAL_Driver/Src/stm32f1xx_hal_gpio.c ****         case GPIO_MODE_IT_RISING_FALLING:
 261:Drivers/STM32F1xx_HAL_Driver/Src/stm32f1xx_hal_gpio.c ****         case GPIO_MODE_EVT_RISING:
 262:Drivers/STM32F1xx_HAL_Driver/Src/stm32f1xx_hal_gpio.c ****         case GPIO_MODE_EVT_FALLING:
 263:Drivers/STM32F1xx_HAL_Driver/Src/stm32f1xx_hal_gpio.c ****         case GPIO_MODE_EVT_RISING_FALLING:
 264:Drivers/STM32F1xx_HAL_Driver/Src/stm32f1xx_hal_gpio.c ****           /* Check the GPIO pull parameter */
 265:Drivers/STM32F1xx_HAL_Driver/Src/stm32f1xx_hal_gpio.c ****           assert_param(IS_GPIO_PULL(GPIO_Init->Pull));
  84              		.loc 1 265 11 is_stmt 1 view .LVU17
 266:Drivers/STM32F1xx_HAL_Driver/Src/stm32f1xx_hal_gpio.c ****           if(GPIO_Init->Pull == GPIO_NOPULL)
  85              		.loc 1 266 11 view .LVU18
  86              		.loc 1 266 23 is_stmt 0 view .LVU19
  87 0032 8B68     		ldr	r3, [r1, #8]
  88              		.loc 1 266 13 view .LVU20
  89 0034 002B     		cmp	r3, #0
  90 0036 60D0     		beq	.L29
 267:Drivers/STM32F1xx_HAL_Driver/Src/stm32f1xx_hal_gpio.c ****           {  
 268:Drivers/STM32F1xx_HAL_Driver/Src/stm32f1xx_hal_gpio.c ****             config = GPIO_CR_MODE_INPUT + GPIO_CR_CNF_INPUT_FLOATING;
 269:Drivers/STM32F1xx_HAL_Driver/Src/stm32f1xx_hal_gpio.c ****           }
 270:Drivers/STM32F1xx_HAL_Driver/Src/stm32f1xx_hal_gpio.c ****           else if(GPIO_Init->Pull == GPIO_PULLUP)
  91              		.loc 1 270 16 is_stmt 1 view .LVU21
  92              		.loc 1 270 18 is_stmt 0 view .LVU22
  93 0038 012B     		cmp	r3, #1
  94 003a 59D0     		beq	.L39
 271:Drivers/STM32F1xx_HAL_Driver/Src/stm32f1xx_hal_gpio.c ****           {
 272:Drivers/STM32F1xx_HAL_Driver/Src/stm32f1xx_hal_gpio.c ****             config = GPIO_CR_MODE_INPUT + GPIO_CR_CNF_INPUT_PU_PD;
 273:Drivers/STM32F1xx_HAL_Driver/Src/stm32f1xx_hal_gpio.c ****             
 274:Drivers/STM32F1xx_HAL_Driver/Src/stm32f1xx_hal_gpio.c ****             /* Set the corresponding ODR bit */
 275:Drivers/STM32F1xx_HAL_Driver/Src/stm32f1xx_hal_gpio.c ****             GPIOx->BSRR = ioposition;
 276:Drivers/STM32F1xx_HAL_Driver/Src/stm32f1xx_hal_gpio.c ****           }
 277:Drivers/STM32F1xx_HAL_Driver/Src/stm32f1xx_hal_gpio.c ****           else /* GPIO_PULLDOWN */
 278:Drivers/STM32F1xx_HAL_Driver/Src/stm32f1xx_hal_gpio.c ****           {
 279:Drivers/STM32F1xx_HAL_Driver/Src/stm32f1xx_hal_gpio.c ****             config = GPIO_CR_MODE_INPUT + GPIO_CR_CNF_INPUT_PU_PD;
  95              		.loc 1 279 13 is_stmt 1 view .LVU23
  96              	.LVL3:
 280:Drivers/STM32F1xx_HAL_Driver/Src/stm32f1xx_hal_gpio.c ****             
 281:Drivers/STM32F1xx_HAL_Driver/Src/stm32f1xx_hal_gpio.c ****             /* Reset the corresponding ODR bit */
 282:Drivers/STM32F1xx_HAL_Driver/Src/stm32f1xx_hal_gpio.c ****             GPIOx->BRR = ioposition;
  97              		.loc 1 282 13 view .LVU24
  98              		.loc 1 282 24 is_stmt 0 view .LVU25
  99 003c 4261     		str	r2, [r0, #20]
 279:Drivers/STM32F1xx_HAL_Driver/Src/stm32f1xx_hal_gpio.c ****             
 100              		.loc 1 279 20 view .LVU26
 101 003e 0825     		movs	r5, #8
 102 0040 03E0     		b	.L9
 103              	.LVL4:
 104              	.L38:
 226:Drivers/STM32F1xx_HAL_Driver/Src/stm32f1xx_hal_gpio.c ****       {
 105              		.loc 1 226 7 view .LVU27
 106 0042 A7F58017 		sub	r7, r7, #1048576
 107 0046 BB42     		cmp	r3, r7
 108 0048 F3D0     		beq	.L12
 109              	.LVL5:
 110              	.L9:
 283:Drivers/STM32F1xx_HAL_Driver/Src/stm32f1xx_hal_gpio.c ****           }
 284:Drivers/STM32F1xx_HAL_Driver/Src/stm32f1xx_hal_gpio.c ****           break; 
 285:Drivers/STM32F1xx_HAL_Driver/Src/stm32f1xx_hal_gpio.c ****           
 286:Drivers/STM32F1xx_HAL_Driver/Src/stm32f1xx_hal_gpio.c ****         /* If we are configuring the pin in INPUT analog mode */
 287:Drivers/STM32F1xx_HAL_Driver/Src/stm32f1xx_hal_gpio.c ****         case GPIO_MODE_ANALOG:
ARM GAS  /tmp/ccIT72v0.s 			page 8


 288:Drivers/STM32F1xx_HAL_Driver/Src/stm32f1xx_hal_gpio.c ****             config = GPIO_CR_MODE_INPUT + GPIO_CR_CNF_ANALOG;
 289:Drivers/STM32F1xx_HAL_Driver/Src/stm32f1xx_hal_gpio.c ****           break;
 290:Drivers/STM32F1xx_HAL_Driver/Src/stm32f1xx_hal_gpio.c ****         
 291:Drivers/STM32F1xx_HAL_Driver/Src/stm32f1xx_hal_gpio.c ****         /* Parameters are checked with assert_param */
 292:Drivers/STM32F1xx_HAL_Driver/Src/stm32f1xx_hal_gpio.c ****         default:
 293:Drivers/STM32F1xx_HAL_Driver/Src/stm32f1xx_hal_gpio.c ****           break;
 294:Drivers/STM32F1xx_HAL_Driver/Src/stm32f1xx_hal_gpio.c ****       }
 295:Drivers/STM32F1xx_HAL_Driver/Src/stm32f1xx_hal_gpio.c ****       
 296:Drivers/STM32F1xx_HAL_Driver/Src/stm32f1xx_hal_gpio.c ****       /* Check if the current bit belongs to first half or last half of the pin count number
 297:Drivers/STM32F1xx_HAL_Driver/Src/stm32f1xx_hal_gpio.c ****        in order to address CRH or CRL register*/
 298:Drivers/STM32F1xx_HAL_Driver/Src/stm32f1xx_hal_gpio.c ****       configregister = (iocurrent < GPIO_PIN_8) ? &GPIOx->CRL     : &GPIOx->CRH;
 111              		.loc 1 298 7 is_stmt 1 view .LVU28
 112              		.loc 1 298 67 is_stmt 0 view .LVU29
 113 004a FF2E     		cmp	r6, #255
 114 004c 57D8     		bhi	.L15
 115              		.loc 1 298 67 discriminator 1 view .LVU30
 116 004e 8446     		mov	ip, r0
 117              	.L16:
 118              	.LVL6:
 299:Drivers/STM32F1xx_HAL_Driver/Src/stm32f1xx_hal_gpio.c ****       registeroffset = (iocurrent < GPIO_PIN_8) ? (position << 2U) : ((position - 8U) << 2U);
 119              		.loc 1 299 7 is_stmt 1 discriminator 4 view .LVU31
 120              		.loc 1 299 68 is_stmt 0 discriminator 4 view .LVU32
 121 0050 FF2E     		cmp	r6, #255
 122 0052 57D8     		bhi	.L17
 123              		.loc 1 299 68 discriminator 1 view .LVU33
 124 0054 A200     		lsls	r2, r4, #2
 125              	.LVL7:
 126              	.L18:
 300:Drivers/STM32F1xx_HAL_Driver/Src/stm32f1xx_hal_gpio.c ****       
 301:Drivers/STM32F1xx_HAL_Driver/Src/stm32f1xx_hal_gpio.c ****       /* Apply the new configuration of the pin to the register */
 302:Drivers/STM32F1xx_HAL_Driver/Src/stm32f1xx_hal_gpio.c ****       MODIFY_REG((*configregister), ((GPIO_CRL_MODE0 | GPIO_CRL_CNF0) << registeroffset ), (config 
 127              		.loc 1 302 7 is_stmt 1 discriminator 4 view .LVU34
 128 0056 DCF80030 		ldr	r3, [ip]
 129 005a 0F27     		movs	r7, #15
 130 005c 9740     		lsls	r7, r7, r2
 131 005e 23EA0703 		bic	r3, r3, r7
 132 0062 05FA02F2 		lsl	r2, r5, r2
 133              	.LVL8:
 134              		.loc 1 302 7 is_stmt 0 discriminator 4 view .LVU35
 135 0066 1343     		orrs	r3, r3, r2
 136 0068 CCF80030 		str	r3, [ip]
 303:Drivers/STM32F1xx_HAL_Driver/Src/stm32f1xx_hal_gpio.c ****       
 304:Drivers/STM32F1xx_HAL_Driver/Src/stm32f1xx_hal_gpio.c ****       /*--------------------- EXTI Mode Configuration ------------------------*/
 305:Drivers/STM32F1xx_HAL_Driver/Src/stm32f1xx_hal_gpio.c ****       /* Configure the External Interrupt or event for the current IO */
 306:Drivers/STM32F1xx_HAL_Driver/Src/stm32f1xx_hal_gpio.c ****       if((GPIO_Init->Mode & EXTI_MODE) == EXTI_MODE) 
 137              		.loc 1 306 7 is_stmt 1 discriminator 4 view .LVU36
 138              		.loc 1 306 20 is_stmt 0 discriminator 4 view .LVU37
 139 006c 4B68     		ldr	r3, [r1, #4]
 140              		.loc 1 306 9 discriminator 4 view .LVU38
 141 006e 13F0805F 		tst	r3, #268435456
 142 0072 75D0     		beq	.L3
 307:Drivers/STM32F1xx_HAL_Driver/Src/stm32f1xx_hal_gpio.c ****       {
 308:Drivers/STM32F1xx_HAL_Driver/Src/stm32f1xx_hal_gpio.c ****         /* Enable AFIO Clock */
 309:Drivers/STM32F1xx_HAL_Driver/Src/stm32f1xx_hal_gpio.c ****         __HAL_RCC_AFIO_CLK_ENABLE();
 143              		.loc 1 309 9 is_stmt 1 view .LVU39
 144              	.LBB2:
 145              		.loc 1 309 9 view .LVU40
ARM GAS  /tmp/ccIT72v0.s 			page 9


 146              		.loc 1 309 9 view .LVU41
 147 0074 6C4B     		ldr	r3, .L42+8
 148 0076 9A69     		ldr	r2, [r3, #24]
 149 0078 42F00102 		orr	r2, r2, #1
 150 007c 9A61     		str	r2, [r3, #24]
 151              		.loc 1 309 9 view .LVU42
 152 007e 9B69     		ldr	r3, [r3, #24]
 153 0080 03F00103 		and	r3, r3, #1
 154 0084 0193     		str	r3, [sp, #4]
 155              		.loc 1 309 9 view .LVU43
 156 0086 019B     		ldr	r3, [sp, #4]
 157              	.LBE2:
 158              		.loc 1 309 9 view .LVU44
 310:Drivers/STM32F1xx_HAL_Driver/Src/stm32f1xx_hal_gpio.c ****         temp = AFIO->EXTICR[position >> 2U];
 159              		.loc 1 310 9 view .LVU45
 160              		.loc 1 310 38 is_stmt 0 view .LVU46
 161 0088 A208     		lsrs	r2, r4, #2
 162              		.loc 1 310 14 view .LVU47
 163 008a 971C     		adds	r7, r2, #2
 164 008c 674B     		ldr	r3, .L42+12
 165 008e 53F827C0 		ldr	ip, [r3, r7, lsl #2]
 166              	.LVL9:
 311:Drivers/STM32F1xx_HAL_Driver/Src/stm32f1xx_hal_gpio.c ****         CLEAR_BIT(temp, (0x0FU) << (4U * (position & 0x03U)));
 167              		.loc 1 311 9 is_stmt 1 view .LVU48
 168 0092 04F00303 		and	r3, r4, #3
 169 0096 9F00     		lsls	r7, r3, #2
 170 0098 0F23     		movs	r3, #15
 171 009a BB40     		lsls	r3, r3, r7
 172 009c 2CEA030C 		bic	ip, ip, r3
 173              	.LVL10:
 312:Drivers/STM32F1xx_HAL_Driver/Src/stm32f1xx_hal_gpio.c ****         SET_BIT(temp, (GPIO_GET_INDEX(GPIOx)) << (4U * (position & 0x03U)));
 174              		.loc 1 312 9 view .LVU49
 175 00a0 634B     		ldr	r3, .L42+16
 176 00a2 9842     		cmp	r0, r3
 177 00a4 34D0     		beq	.L30
 178              		.loc 1 312 9 is_stmt 0 discriminator 1 view .LVU50
 179 00a6 03F58063 		add	r3, r3, #1024
 180 00aa 9842     		cmp	r0, r3
 181 00ac 00F09480 		beq	.L31
 182              		.loc 1 312 9 discriminator 3 view .LVU51
 183 00b0 03F58063 		add	r3, r3, #1024
 184 00b4 9842     		cmp	r0, r3
 185 00b6 00F09180 		beq	.L32
 186              		.loc 1 312 9 discriminator 5 view .LVU52
 187 00ba 03F58063 		add	r3, r3, #1024
 188 00be 9842     		cmp	r0, r3
 189 00c0 00F08E80 		beq	.L33
 190              		.loc 1 312 9 discriminator 7 view .LVU53
 191 00c4 03F58063 		add	r3, r3, #1024
 192 00c8 9842     		cmp	r0, r3
 193 00ca 00F08B80 		beq	.L34
 194              		.loc 1 312 9 discriminator 9 view .LVU54
 195 00ce 03F58063 		add	r3, r3, #1024
 196 00d2 9842     		cmp	r0, r3
 197 00d4 1AD0     		beq	.L40
 198              		.loc 1 312 9 view .LVU55
 199 00d6 0623     		movs	r3, #6
ARM GAS  /tmp/ccIT72v0.s 			page 10


 200 00d8 1BE0     		b	.L19
 201              	.LVL11:
 202              	.L11:
 231:Drivers/STM32F1xx_HAL_Driver/Src/stm32f1xx_hal_gpio.c ****           config = GPIO_Init->Speed + GPIO_CR_CNF_GP_OUTPUT_PP;
 203              		.loc 1 231 11 is_stmt 1 view .LVU56
 232:Drivers/STM32F1xx_HAL_Driver/Src/stm32f1xx_hal_gpio.c ****           break;
 204              		.loc 1 232 11 view .LVU57
 232:Drivers/STM32F1xx_HAL_Driver/Src/stm32f1xx_hal_gpio.c ****           break;
 205              		.loc 1 232 18 is_stmt 0 view .LVU58
 206 00da CD68     		ldr	r5, [r1, #12]
 207              	.LVL12:
 233:Drivers/STM32F1xx_HAL_Driver/Src/stm32f1xx_hal_gpio.c ****           
 208              		.loc 1 233 11 is_stmt 1 view .LVU59
 209 00dc B5E7     		b	.L9
 210              	.L8:
 238:Drivers/STM32F1xx_HAL_Driver/Src/stm32f1xx_hal_gpio.c ****           config = GPIO_Init->Speed + GPIO_CR_CNF_GP_OUTPUT_OD;
 211              		.loc 1 238 11 view .LVU60
 239:Drivers/STM32F1xx_HAL_Driver/Src/stm32f1xx_hal_gpio.c ****           break;
 212              		.loc 1 239 11 view .LVU61
 239:Drivers/STM32F1xx_HAL_Driver/Src/stm32f1xx_hal_gpio.c ****           break;
 213              		.loc 1 239 29 is_stmt 0 view .LVU62
 214 00de CD68     		ldr	r5, [r1, #12]
 215              	.LVL13:
 239:Drivers/STM32F1xx_HAL_Driver/Src/stm32f1xx_hal_gpio.c ****           break;
 216              		.loc 1 239 18 view .LVU63
 217 00e0 0435     		adds	r5, r5, #4
 218              	.LVL14:
 240:Drivers/STM32F1xx_HAL_Driver/Src/stm32f1xx_hal_gpio.c ****           
 219              		.loc 1 240 11 is_stmt 1 view .LVU64
 220 00e2 B2E7     		b	.L9
 221              	.L10:
 245:Drivers/STM32F1xx_HAL_Driver/Src/stm32f1xx_hal_gpio.c ****           config = GPIO_Init->Speed + GPIO_CR_CNF_AF_OUTPUT_PP;
 222              		.loc 1 245 11 view .LVU65
 246:Drivers/STM32F1xx_HAL_Driver/Src/stm32f1xx_hal_gpio.c ****           break;
 223              		.loc 1 246 11 view .LVU66
 246:Drivers/STM32F1xx_HAL_Driver/Src/stm32f1xx_hal_gpio.c ****           break;
 224              		.loc 1 246 29 is_stmt 0 view .LVU67
 225 00e4 CD68     		ldr	r5, [r1, #12]
 226              	.LVL15:
 246:Drivers/STM32F1xx_HAL_Driver/Src/stm32f1xx_hal_gpio.c ****           break;
 227              		.loc 1 246 18 view .LVU68
 228 00e6 0835     		adds	r5, r5, #8
 229              	.LVL16:
 247:Drivers/STM32F1xx_HAL_Driver/Src/stm32f1xx_hal_gpio.c ****           
 230              		.loc 1 247 11 is_stmt 1 view .LVU69
 231 00e8 AFE7     		b	.L9
 232              	.L6:
 252:Drivers/STM32F1xx_HAL_Driver/Src/stm32f1xx_hal_gpio.c ****           config = GPIO_Init->Speed + GPIO_CR_CNF_AF_OUTPUT_OD;
 233              		.loc 1 252 11 view .LVU70
 253:Drivers/STM32F1xx_HAL_Driver/Src/stm32f1xx_hal_gpio.c ****           break;
 234              		.loc 1 253 11 view .LVU71
 253:Drivers/STM32F1xx_HAL_Driver/Src/stm32f1xx_hal_gpio.c ****           break;
 235              		.loc 1 253 29 is_stmt 0 view .LVU72
 236 00ea CD68     		ldr	r5, [r1, #12]
 237              	.LVL17:
 253:Drivers/STM32F1xx_HAL_Driver/Src/stm32f1xx_hal_gpio.c ****           break;
 238              		.loc 1 253 18 view .LVU73
ARM GAS  /tmp/ccIT72v0.s 			page 11


 239 00ec 0C35     		adds	r5, r5, #12
 240              	.LVL18:
 254:Drivers/STM32F1xx_HAL_Driver/Src/stm32f1xx_hal_gpio.c ****           
 241              		.loc 1 254 11 is_stmt 1 view .LVU74
 242 00ee ACE7     		b	.L9
 243              	.L39:
 272:Drivers/STM32F1xx_HAL_Driver/Src/stm32f1xx_hal_gpio.c ****             
 244              		.loc 1 272 13 view .LVU75
 245              	.LVL19:
 275:Drivers/STM32F1xx_HAL_Driver/Src/stm32f1xx_hal_gpio.c ****           }
 246              		.loc 1 275 13 view .LVU76
 275:Drivers/STM32F1xx_HAL_Driver/Src/stm32f1xx_hal_gpio.c ****           }
 247              		.loc 1 275 25 is_stmt 0 view .LVU77
 248 00f0 0261     		str	r2, [r0, #16]
 272:Drivers/STM32F1xx_HAL_Driver/Src/stm32f1xx_hal_gpio.c ****             
 249              		.loc 1 272 20 view .LVU78
 250 00f2 0825     		movs	r5, #8
 251 00f4 A9E7     		b	.L9
 252              	.LVL20:
 253              	.L28:
 288:Drivers/STM32F1xx_HAL_Driver/Src/stm32f1xx_hal_gpio.c ****           break;
 254              		.loc 1 288 20 view .LVU79
 255 00f6 0025     		movs	r5, #0
 256              	.LVL21:
 288:Drivers/STM32F1xx_HAL_Driver/Src/stm32f1xx_hal_gpio.c ****           break;
 257              		.loc 1 288 20 view .LVU80
 258 00f8 A7E7     		b	.L9
 259              	.LVL22:
 260              	.L29:
 268:Drivers/STM32F1xx_HAL_Driver/Src/stm32f1xx_hal_gpio.c ****           }
 261              		.loc 1 268 20 view .LVU81
 262 00fa 0425     		movs	r5, #4
 263              	.LVL23:
 268:Drivers/STM32F1xx_HAL_Driver/Src/stm32f1xx_hal_gpio.c ****           }
 264              		.loc 1 268 20 view .LVU82
 265 00fc A5E7     		b	.L9
 266              	.LVL24:
 267              	.L15:
 298:Drivers/STM32F1xx_HAL_Driver/Src/stm32f1xx_hal_gpio.c ****       registeroffset = (iocurrent < GPIO_PIN_8) ? (position << 2U) : ((position - 8U) << 2U);
 268              		.loc 1 298 67 discriminator 2 view .LVU83
 269 00fe 00F1040C 		add	ip, r0, #4
 270 0102 A5E7     		b	.L16
 271              	.LVL25:
 272              	.L17:
 299:Drivers/STM32F1xx_HAL_Driver/Src/stm32f1xx_hal_gpio.c ****       
 273              		.loc 1 299 81 discriminator 2 view .LVU84
 274 0104 A4F10802 		sub	r2, r4, #8
 275              	.LVL26:
 299:Drivers/STM32F1xx_HAL_Driver/Src/stm32f1xx_hal_gpio.c ****       
 276              		.loc 1 299 68 discriminator 2 view .LVU85
 277 0108 9200     		lsls	r2, r2, #2
 278 010a A4E7     		b	.L18
 279              	.LVL27:
 280              	.L40:
 281              		.loc 1 312 9 view .LVU86
 282 010c 0523     		movs	r3, #5
 283 010e 00E0     		b	.L19
ARM GAS  /tmp/ccIT72v0.s 			page 12


 284              	.L30:
 285 0110 0023     		movs	r3, #0
 286              	.L19:
 287              		.loc 1 312 9 discriminator 24 view .LVU87
 288 0112 BB40     		lsls	r3, r3, r7
 289 0114 43EA0C03 		orr	r3, r3, ip
 290              	.LVL28:
 313:Drivers/STM32F1xx_HAL_Driver/Src/stm32f1xx_hal_gpio.c ****         AFIO->EXTICR[position >> 2U] = temp;
 291              		.loc 1 313 9 is_stmt 1 discriminator 24 view .LVU88
 292              		.loc 1 313 38 is_stmt 0 discriminator 24 view .LVU89
 293 0118 0232     		adds	r2, r2, #2
 294 011a 444F     		ldr	r7, .L42+12
 295 011c 47F82230 		str	r3, [r7, r2, lsl #2]
 314:Drivers/STM32F1xx_HAL_Driver/Src/stm32f1xx_hal_gpio.c ****         
 315:Drivers/STM32F1xx_HAL_Driver/Src/stm32f1xx_hal_gpio.c **** 
 316:Drivers/STM32F1xx_HAL_Driver/Src/stm32f1xx_hal_gpio.c ****         /* Configure the interrupt mask */
 317:Drivers/STM32F1xx_HAL_Driver/Src/stm32f1xx_hal_gpio.c ****         if((GPIO_Init->Mode & GPIO_MODE_IT) == GPIO_MODE_IT)
 296              		.loc 1 317 9 is_stmt 1 discriminator 24 view .LVU90
 297              		.loc 1 317 22 is_stmt 0 discriminator 24 view .LVU91
 298 0120 4B68     		ldr	r3, [r1, #4]
 299              	.LVL29:
 300              		.loc 1 317 11 discriminator 24 view .LVU92
 301 0122 13F4803F 		tst	r3, #65536
 302 0126 5FD0     		beq	.L20
 318:Drivers/STM32F1xx_HAL_Driver/Src/stm32f1xx_hal_gpio.c ****         {
 319:Drivers/STM32F1xx_HAL_Driver/Src/stm32f1xx_hal_gpio.c ****           SET_BIT(EXTI->IMR, iocurrent); 
 303              		.loc 1 319 11 is_stmt 1 view .LVU93
 304 0128 424A     		ldr	r2, .L42+20
 305              	.LVL30:
 306              		.loc 1 319 11 is_stmt 0 view .LVU94
 307 012a 1368     		ldr	r3, [r2]
 308 012c 3343     		orrs	r3, r3, r6
 309 012e 1360     		str	r3, [r2]
 310              	.LVL31:
 311              	.L21:
 320:Drivers/STM32F1xx_HAL_Driver/Src/stm32f1xx_hal_gpio.c ****         } 
 321:Drivers/STM32F1xx_HAL_Driver/Src/stm32f1xx_hal_gpio.c ****         else
 322:Drivers/STM32F1xx_HAL_Driver/Src/stm32f1xx_hal_gpio.c ****         {
 323:Drivers/STM32F1xx_HAL_Driver/Src/stm32f1xx_hal_gpio.c ****           CLEAR_BIT(EXTI->IMR, iocurrent); 
 324:Drivers/STM32F1xx_HAL_Driver/Src/stm32f1xx_hal_gpio.c ****         } 
 325:Drivers/STM32F1xx_HAL_Driver/Src/stm32f1xx_hal_gpio.c ****         
 326:Drivers/STM32F1xx_HAL_Driver/Src/stm32f1xx_hal_gpio.c ****         /* Configure the event mask */
 327:Drivers/STM32F1xx_HAL_Driver/Src/stm32f1xx_hal_gpio.c ****         if((GPIO_Init->Mode & GPIO_MODE_EVT) == GPIO_MODE_EVT)
 312              		.loc 1 327 9 is_stmt 1 view .LVU95
 313              		.loc 1 327 22 is_stmt 0 view .LVU96
 314 0130 4B68     		ldr	r3, [r1, #4]
 315              		.loc 1 327 11 view .LVU97
 316 0132 13F4003F 		tst	r3, #131072
 317 0136 5DD0     		beq	.L22
 328:Drivers/STM32F1xx_HAL_Driver/Src/stm32f1xx_hal_gpio.c ****         {
 329:Drivers/STM32F1xx_HAL_Driver/Src/stm32f1xx_hal_gpio.c ****           SET_BIT(EXTI->EMR, iocurrent); 
 318              		.loc 1 329 11 is_stmt 1 view .LVU98
 319 0138 3E4A     		ldr	r2, .L42+20
 320 013a 5368     		ldr	r3, [r2, #4]
 321 013c 3343     		orrs	r3, r3, r6
 322 013e 5360     		str	r3, [r2, #4]
 323              	.L23:
ARM GAS  /tmp/ccIT72v0.s 			page 13


 330:Drivers/STM32F1xx_HAL_Driver/Src/stm32f1xx_hal_gpio.c ****         } 
 331:Drivers/STM32F1xx_HAL_Driver/Src/stm32f1xx_hal_gpio.c ****         else
 332:Drivers/STM32F1xx_HAL_Driver/Src/stm32f1xx_hal_gpio.c ****         {
 333:Drivers/STM32F1xx_HAL_Driver/Src/stm32f1xx_hal_gpio.c ****           CLEAR_BIT(EXTI->EMR, iocurrent); 
 334:Drivers/STM32F1xx_HAL_Driver/Src/stm32f1xx_hal_gpio.c ****         }
 335:Drivers/STM32F1xx_HAL_Driver/Src/stm32f1xx_hal_gpio.c ****         
 336:Drivers/STM32F1xx_HAL_Driver/Src/stm32f1xx_hal_gpio.c ****         /* Enable or disable the rising trigger */
 337:Drivers/STM32F1xx_HAL_Driver/Src/stm32f1xx_hal_gpio.c ****         if((GPIO_Init->Mode & RISING_EDGE) == RISING_EDGE)
 324              		.loc 1 337 9 view .LVU99
 325              		.loc 1 337 22 is_stmt 0 view .LVU100
 326 0140 4B68     		ldr	r3, [r1, #4]
 327              		.loc 1 337 11 view .LVU101
 328 0142 13F4801F 		tst	r3, #1048576
 329 0146 5BD0     		beq	.L24
 338:Drivers/STM32F1xx_HAL_Driver/Src/stm32f1xx_hal_gpio.c ****         {
 339:Drivers/STM32F1xx_HAL_Driver/Src/stm32f1xx_hal_gpio.c ****           SET_BIT(EXTI->RTSR, iocurrent); 
 330              		.loc 1 339 11 is_stmt 1 view .LVU102
 331 0148 3A4A     		ldr	r2, .L42+20
 332 014a 9368     		ldr	r3, [r2, #8]
 333 014c 3343     		orrs	r3, r3, r6
 334 014e 9360     		str	r3, [r2, #8]
 335              	.L25:
 340:Drivers/STM32F1xx_HAL_Driver/Src/stm32f1xx_hal_gpio.c ****         } 
 341:Drivers/STM32F1xx_HAL_Driver/Src/stm32f1xx_hal_gpio.c ****         else
 342:Drivers/STM32F1xx_HAL_Driver/Src/stm32f1xx_hal_gpio.c ****         {
 343:Drivers/STM32F1xx_HAL_Driver/Src/stm32f1xx_hal_gpio.c ****           CLEAR_BIT(EXTI->RTSR, iocurrent); 
 344:Drivers/STM32F1xx_HAL_Driver/Src/stm32f1xx_hal_gpio.c ****         }
 345:Drivers/STM32F1xx_HAL_Driver/Src/stm32f1xx_hal_gpio.c ****         
 346:Drivers/STM32F1xx_HAL_Driver/Src/stm32f1xx_hal_gpio.c ****         /* Enable or disable the falling trigger */
 347:Drivers/STM32F1xx_HAL_Driver/Src/stm32f1xx_hal_gpio.c ****         if((GPIO_Init->Mode & FALLING_EDGE) == FALLING_EDGE)
 336              		.loc 1 347 9 view .LVU103
 337              		.loc 1 347 22 is_stmt 0 view .LVU104
 338 0150 4B68     		ldr	r3, [r1, #4]
 339              		.loc 1 347 11 view .LVU105
 340 0152 13F4001F 		tst	r3, #2097152
 341 0156 59D0     		beq	.L26
 348:Drivers/STM32F1xx_HAL_Driver/Src/stm32f1xx_hal_gpio.c ****         {
 349:Drivers/STM32F1xx_HAL_Driver/Src/stm32f1xx_hal_gpio.c ****           SET_BIT(EXTI->FTSR, iocurrent); 
 342              		.loc 1 349 11 is_stmt 1 view .LVU106
 343 0158 364A     		ldr	r2, .L42+20
 344 015a D368     		ldr	r3, [r2, #12]
 345 015c 1E43     		orrs	r6, r6, r3
 346              	.LVL32:
 347              		.loc 1 349 11 is_stmt 0 view .LVU107
 348 015e D660     		str	r6, [r2, #12]
 349              	.L3:
 212:Drivers/STM32F1xx_HAL_Driver/Src/stm32f1xx_hal_gpio.c ****   {
 350              		.loc 1 212 47 is_stmt 1 discriminator 2 view .LVU108
 212:Drivers/STM32F1xx_HAL_Driver/Src/stm32f1xx_hal_gpio.c ****   {
 351              		.loc 1 212 55 is_stmt 0 discriminator 2 view .LVU109
 352 0160 0134     		adds	r4, r4, #1
 353              	.LVL33:
 354              	.L2:
 212:Drivers/STM32F1xx_HAL_Driver/Src/stm32f1xx_hal_gpio.c ****   {
 355              		.loc 1 212 23 is_stmt 1 discriminator 1 view .LVU110
 212:Drivers/STM32F1xx_HAL_Driver/Src/stm32f1xx_hal_gpio.c ****   {
 356              		.loc 1 212 3 is_stmt 0 discriminator 1 view .LVU111
ARM GAS  /tmp/ccIT72v0.s 			page 14


 357 0162 0F2C     		cmp	r4, #15
 358 0164 58D8     		bhi	.L41
 215:Drivers/STM32F1xx_HAL_Driver/Src/stm32f1xx_hal_gpio.c ****     
 359              		.loc 1 215 5 is_stmt 1 view .LVU112
 215:Drivers/STM32F1xx_HAL_Driver/Src/stm32f1xx_hal_gpio.c ****     
 360              		.loc 1 215 16 is_stmt 0 view .LVU113
 361 0166 0122     		movs	r2, #1
 362 0168 A240     		lsls	r2, r2, r4
 363              	.LVL34:
 218:Drivers/STM32F1xx_HAL_Driver/Src/stm32f1xx_hal_gpio.c **** 
 364              		.loc 1 218 5 is_stmt 1 view .LVU114
 218:Drivers/STM32F1xx_HAL_Driver/Src/stm32f1xx_hal_gpio.c **** 
 365              		.loc 1 218 37 is_stmt 0 view .LVU115
 366 016a 0B68     		ldr	r3, [r1]
 218:Drivers/STM32F1xx_HAL_Driver/Src/stm32f1xx_hal_gpio.c **** 
 367              		.loc 1 218 15 view .LVU116
 368 016c 03EA0206 		and	r6, r3, r2
 369              	.LVL35:
 220:Drivers/STM32F1xx_HAL_Driver/Src/stm32f1xx_hal_gpio.c ****     {
 370              		.loc 1 220 5 is_stmt 1 view .LVU117
 220:Drivers/STM32F1xx_HAL_Driver/Src/stm32f1xx_hal_gpio.c ****     {
 371              		.loc 1 220 8 is_stmt 0 view .LVU118
 372 0170 32EA0303 		bics	r3, r2, r3
 373 0174 F4D1     		bne	.L3
 223:Drivers/STM32F1xx_HAL_Driver/Src/stm32f1xx_hal_gpio.c **** 
 374              		.loc 1 223 7 is_stmt 1 view .LVU119
 226:Drivers/STM32F1xx_HAL_Driver/Src/stm32f1xx_hal_gpio.c ****       {
 375              		.loc 1 226 7 view .LVU120
 226:Drivers/STM32F1xx_HAL_Driver/Src/stm32f1xx_hal_gpio.c ****       {
 376              		.loc 1 226 24 is_stmt 0 view .LVU121
 377 0176 4B68     		ldr	r3, [r1, #4]
 226:Drivers/STM32F1xx_HAL_Driver/Src/stm32f1xx_hal_gpio.c ****       {
 378              		.loc 1 226 7 view .LVU122
 379 0178 122B     		cmp	r3, #18
 380 017a 3FF646AF 		bhi	.L4
 381 017e 122B     		cmp	r3, #18
 382 0180 3FF663AF 		bhi	.L9
 383 0184 01A7     		adr	r7, .L7
 384 0186 57F823F0 		ldr	pc, [r7, r3, lsl #2]
 385 018a 00BF     		.p2align 2
 386              	.L7:
 387 018c 33000000 		.word	.L12+1
 388 0190 DB000000 		.word	.L11+1
 389 0194 E5000000 		.word	.L10+1
 390 0198 F7000000 		.word	.L28+1
 391 019c 4B000000 		.word	.L9+1
 392 01a0 4B000000 		.word	.L9+1
 393 01a4 4B000000 		.word	.L9+1
 394 01a8 4B000000 		.word	.L9+1
 395 01ac 4B000000 		.word	.L9+1
 396 01b0 4B000000 		.word	.L9+1
 397 01b4 4B000000 		.word	.L9+1
 398 01b8 4B000000 		.word	.L9+1
 399 01bc 4B000000 		.word	.L9+1
 400 01c0 4B000000 		.word	.L9+1
 401 01c4 4B000000 		.word	.L9+1
 402 01c8 4B000000 		.word	.L9+1
ARM GAS  /tmp/ccIT72v0.s 			page 15


 403 01cc 4B000000 		.word	.L9+1
 404 01d0 DF000000 		.word	.L8+1
 405 01d4 EB000000 		.word	.L6+1
 406              	.LVL36:
 407              		.p2align 1
 408              	.L31:
 312:Drivers/STM32F1xx_HAL_Driver/Src/stm32f1xx_hal_gpio.c ****         AFIO->EXTICR[position >> 2U] = temp;
 409              		.loc 1 312 9 view .LVU123
 410 01d8 0123     		movs	r3, #1
 411              	.LVL37:
 312:Drivers/STM32F1xx_HAL_Driver/Src/stm32f1xx_hal_gpio.c ****         AFIO->EXTICR[position >> 2U] = temp;
 412              		.loc 1 312 9 view .LVU124
 413 01da 9AE7     		b	.L19
 414              	.LVL38:
 415              	.L32:
 312:Drivers/STM32F1xx_HAL_Driver/Src/stm32f1xx_hal_gpio.c ****         AFIO->EXTICR[position >> 2U] = temp;
 416              		.loc 1 312 9 view .LVU125
 417 01dc 0223     		movs	r3, #2
 418 01de 98E7     		b	.L19
 419              	.L33:
 420 01e0 0323     		movs	r3, #3
 421 01e2 96E7     		b	.L19
 422              	.L34:
 423 01e4 0423     		movs	r3, #4
 424 01e6 94E7     		b	.L19
 425              	.LVL39:
 426              	.L20:
 323:Drivers/STM32F1xx_HAL_Driver/Src/stm32f1xx_hal_gpio.c ****         } 
 427              		.loc 1 323 11 is_stmt 1 view .LVU126
 428 01e8 124A     		ldr	r2, .L42+20
 429              	.LVL40:
 323:Drivers/STM32F1xx_HAL_Driver/Src/stm32f1xx_hal_gpio.c ****         } 
 430              		.loc 1 323 11 is_stmt 0 view .LVU127
 431 01ea 1368     		ldr	r3, [r2]
 432 01ec 23EA0603 		bic	r3, r3, r6
 433 01f0 1360     		str	r3, [r2]
 434              	.LVL41:
 323:Drivers/STM32F1xx_HAL_Driver/Src/stm32f1xx_hal_gpio.c ****         } 
 435              		.loc 1 323 11 view .LVU128
 436 01f2 9DE7     		b	.L21
 437              	.L22:
 333:Drivers/STM32F1xx_HAL_Driver/Src/stm32f1xx_hal_gpio.c ****         }
 438              		.loc 1 333 11 is_stmt 1 view .LVU129
 439 01f4 0F4A     		ldr	r2, .L42+20
 440 01f6 5368     		ldr	r3, [r2, #4]
 441 01f8 23EA0603 		bic	r3, r3, r6
 442 01fc 5360     		str	r3, [r2, #4]
 443 01fe 9FE7     		b	.L23
 444              	.L24:
 343:Drivers/STM32F1xx_HAL_Driver/Src/stm32f1xx_hal_gpio.c ****         }
 445              		.loc 1 343 11 view .LVU130
 446 0200 0C4A     		ldr	r2, .L42+20
 447 0202 9368     		ldr	r3, [r2, #8]
 448 0204 23EA0603 		bic	r3, r3, r6
 449 0208 9360     		str	r3, [r2, #8]
 450 020a A1E7     		b	.L25
 451              	.L26:
ARM GAS  /tmp/ccIT72v0.s 			page 16


 350:Drivers/STM32F1xx_HAL_Driver/Src/stm32f1xx_hal_gpio.c ****         } 
 351:Drivers/STM32F1xx_HAL_Driver/Src/stm32f1xx_hal_gpio.c ****         else
 352:Drivers/STM32F1xx_HAL_Driver/Src/stm32f1xx_hal_gpio.c ****         {
 353:Drivers/STM32F1xx_HAL_Driver/Src/stm32f1xx_hal_gpio.c ****           CLEAR_BIT(EXTI->FTSR, iocurrent); 
 452              		.loc 1 353 11 view .LVU131
 453 020c 094A     		ldr	r2, .L42+20
 454 020e D368     		ldr	r3, [r2, #12]
 455 0210 23EA0606 		bic	r6, r3, r6
 456              	.LVL42:
 457              		.loc 1 353 11 is_stmt 0 view .LVU132
 458 0214 D660     		str	r6, [r2, #12]
 459 0216 A3E7     		b	.L3
 460              	.LVL43:
 461              	.L41:
 354:Drivers/STM32F1xx_HAL_Driver/Src/stm32f1xx_hal_gpio.c ****         }
 355:Drivers/STM32F1xx_HAL_Driver/Src/stm32f1xx_hal_gpio.c ****       }
 356:Drivers/STM32F1xx_HAL_Driver/Src/stm32f1xx_hal_gpio.c ****     }
 357:Drivers/STM32F1xx_HAL_Driver/Src/stm32f1xx_hal_gpio.c ****   }
 358:Drivers/STM32F1xx_HAL_Driver/Src/stm32f1xx_hal_gpio.c **** }
 462              		.loc 1 358 1 view .LVU133
 463 0218 02B0     		add	sp, sp, #8
 464              	.LCFI2:
 465              		.cfi_def_cfa_offset 16
 466              		@ sp needed
 467 021a F0BC     		pop	{r4, r5, r6, r7}
 468              	.LCFI3:
 469              		.cfi_restore 7
 470              		.cfi_restore 6
 471              		.cfi_restore 5
 472              		.cfi_restore 4
 473              		.cfi_def_cfa_offset 0
 474              	.LVL44:
 475              		.loc 1 358 1 view .LVU134
 476 021c 7047     		bx	lr
 477              	.L43:
 478 021e 00BF     		.align	2
 479              	.L42:
 480 0220 00002210 		.word	270663680
 481 0224 00003110 		.word	271646720
 482 0228 00100240 		.word	1073876992
 483 022c 00000140 		.word	1073807360
 484 0230 00080140 		.word	1073809408
 485 0234 00040140 		.word	1073808384
 486              		.cfi_endproc
 487              	.LFE66:
 489              		.section	.text.HAL_GPIO_DeInit,"ax",%progbits
 490              		.align	1
 491              		.global	HAL_GPIO_DeInit
 492              		.syntax unified
 493              		.thumb
 494              		.thumb_func
 495              		.fpu softvfp
 497              	HAL_GPIO_DeInit:
 498              	.LVL45:
 499              	.LFB67:
 359:Drivers/STM32F1xx_HAL_Driver/Src/stm32f1xx_hal_gpio.c **** 
 360:Drivers/STM32F1xx_HAL_Driver/Src/stm32f1xx_hal_gpio.c **** /**
ARM GAS  /tmp/ccIT72v0.s 			page 17


 361:Drivers/STM32F1xx_HAL_Driver/Src/stm32f1xx_hal_gpio.c ****   * @brief  De-initializes the GPIOx peripheral registers to their default reset values.
 362:Drivers/STM32F1xx_HAL_Driver/Src/stm32f1xx_hal_gpio.c ****   * @param  GPIOx: where x can be (A..G depending on device used) to select the GPIO peripheral
 363:Drivers/STM32F1xx_HAL_Driver/Src/stm32f1xx_hal_gpio.c ****   * @param  GPIO_Pin: specifies the port bit to be written.
 364:Drivers/STM32F1xx_HAL_Driver/Src/stm32f1xx_hal_gpio.c ****   *         This parameter can be one of GPIO_PIN_x where x can be (0..15).
 365:Drivers/STM32F1xx_HAL_Driver/Src/stm32f1xx_hal_gpio.c ****   * @retval None
 366:Drivers/STM32F1xx_HAL_Driver/Src/stm32f1xx_hal_gpio.c ****   */
 367:Drivers/STM32F1xx_HAL_Driver/Src/stm32f1xx_hal_gpio.c **** void HAL_GPIO_DeInit(GPIO_TypeDef  *GPIOx, uint32_t GPIO_Pin)
 368:Drivers/STM32F1xx_HAL_Driver/Src/stm32f1xx_hal_gpio.c **** { 
 500              		.loc 1 368 1 is_stmt 1 view -0
 501              		.cfi_startproc
 502              		@ args = 0, pretend = 0, frame = 0
 503              		@ frame_needed = 0, uses_anonymous_args = 0
 504              		@ link register save eliminated.
 369:Drivers/STM32F1xx_HAL_Driver/Src/stm32f1xx_hal_gpio.c ****   uint32_t position = 0x00U;
 505              		.loc 1 369 3 view .LVU136
 370:Drivers/STM32F1xx_HAL_Driver/Src/stm32f1xx_hal_gpio.c ****   uint32_t iocurrent = 0x00U;
 506              		.loc 1 370 3 view .LVU137
 371:Drivers/STM32F1xx_HAL_Driver/Src/stm32f1xx_hal_gpio.c ****   uint32_t tmp = 0x00U;
 507              		.loc 1 371 3 view .LVU138
 372:Drivers/STM32F1xx_HAL_Driver/Src/stm32f1xx_hal_gpio.c ****   __IO uint32_t *configregister; /* Store the address of CRL or CRH register based on pin number */
 508              		.loc 1 372 3 view .LVU139
 373:Drivers/STM32F1xx_HAL_Driver/Src/stm32f1xx_hal_gpio.c ****   uint32_t registeroffset = 0U;
 509              		.loc 1 373 3 view .LVU140
 374:Drivers/STM32F1xx_HAL_Driver/Src/stm32f1xx_hal_gpio.c ****  
 375:Drivers/STM32F1xx_HAL_Driver/Src/stm32f1xx_hal_gpio.c ****   /* Check the parameters */
 376:Drivers/STM32F1xx_HAL_Driver/Src/stm32f1xx_hal_gpio.c ****   assert_param(IS_GPIO_ALL_INSTANCE(GPIOx));
 510              		.loc 1 376 3 view .LVU141
 377:Drivers/STM32F1xx_HAL_Driver/Src/stm32f1xx_hal_gpio.c ****   assert_param(IS_GPIO_PIN(GPIO_Pin));
 511              		.loc 1 377 3 view .LVU142
 378:Drivers/STM32F1xx_HAL_Driver/Src/stm32f1xx_hal_gpio.c **** 
 379:Drivers/STM32F1xx_HAL_Driver/Src/stm32f1xx_hal_gpio.c ****   /* Configure the port pins */
 380:Drivers/STM32F1xx_HAL_Driver/Src/stm32f1xx_hal_gpio.c ****   while ((GPIO_Pin >> position) != 0U)
 512              		.loc 1 380 3 view .LVU143
 369:Drivers/STM32F1xx_HAL_Driver/Src/stm32f1xx_hal_gpio.c ****   uint32_t iocurrent = 0x00U;
 513              		.loc 1 369 12 is_stmt 0 view .LVU144
 514 0000 0022     		movs	r2, #0
 515              		.loc 1 380 9 view .LVU145
 516 0002 73E0     		b	.L60
 517              	.LVL46:
 518              	.L47:
 519              	.LCFI4:
 520              		.cfi_def_cfa_offset 16
 521              		.cfi_offset 4, -16
 522              		.cfi_offset 5, -12
 523              		.cfi_offset 6, -8
 524              		.cfi_offset 7, -4
 381:Drivers/STM32F1xx_HAL_Driver/Src/stm32f1xx_hal_gpio.c ****   {
 382:Drivers/STM32F1xx_HAL_Driver/Src/stm32f1xx_hal_gpio.c ****     /* Get current io position */
 383:Drivers/STM32F1xx_HAL_Driver/Src/stm32f1xx_hal_gpio.c ****     iocurrent = (GPIO_Pin) & (1U << position);
 384:Drivers/STM32F1xx_HAL_Driver/Src/stm32f1xx_hal_gpio.c **** 
 385:Drivers/STM32F1xx_HAL_Driver/Src/stm32f1xx_hal_gpio.c ****     if (iocurrent)
 386:Drivers/STM32F1xx_HAL_Driver/Src/stm32f1xx_hal_gpio.c ****     {
 387:Drivers/STM32F1xx_HAL_Driver/Src/stm32f1xx_hal_gpio.c ****       /*------------------------- GPIO Mode Configuration --------------------*/
 388:Drivers/STM32F1xx_HAL_Driver/Src/stm32f1xx_hal_gpio.c ****       /* Check if the current bit belongs to first half or last half of the pin count number
 389:Drivers/STM32F1xx_HAL_Driver/Src/stm32f1xx_hal_gpio.c ****        in order to address CRH or CRL register */
 390:Drivers/STM32F1xx_HAL_Driver/Src/stm32f1xx_hal_gpio.c ****       configregister = (iocurrent < GPIO_PIN_8) ? &GPIOx->CRL     : &GPIOx->CRH;
 525              		.loc 1 390 67 discriminator 2 view .LVU146
ARM GAS  /tmp/ccIT72v0.s 			page 18


 526 0004 00F1040C 		add	ip, r0, #4
 527 0008 15E0     		b	.L48
 528              	.LVL47:
 529              	.L49:
 391:Drivers/STM32F1xx_HAL_Driver/Src/stm32f1xx_hal_gpio.c ****       registeroffset = (iocurrent < GPIO_PIN_8) ? (position << 2U) : ((position - 8U) << 2U);
 530              		.loc 1 391 81 discriminator 2 view .LVU147
 531 000a A2F10806 		sub	r6, r2, #8
 532              		.loc 1 391 68 discriminator 2 view .LVU148
 533 000e B700     		lsls	r7, r6, #2
 534 0010 14E0     		b	.L50
 535              	.LVL48:
 536              	.L67:
 392:Drivers/STM32F1xx_HAL_Driver/Src/stm32f1xx_hal_gpio.c ****       
 393:Drivers/STM32F1xx_HAL_Driver/Src/stm32f1xx_hal_gpio.c ****       /* CRL/CRH default value is floating input(0x04) shifted to correct position */
 394:Drivers/STM32F1xx_HAL_Driver/Src/stm32f1xx_hal_gpio.c ****       MODIFY_REG(*configregister, ((GPIO_CRL_MODE0 | GPIO_CRL_CNF0) << registeroffset ), GPIO_CRL_C
 395:Drivers/STM32F1xx_HAL_Driver/Src/stm32f1xx_hal_gpio.c ****       
 396:Drivers/STM32F1xx_HAL_Driver/Src/stm32f1xx_hal_gpio.c ****       /* ODR default value is 0 */
 397:Drivers/STM32F1xx_HAL_Driver/Src/stm32f1xx_hal_gpio.c ****       CLEAR_BIT(GPIOx->ODR, iocurrent);
 398:Drivers/STM32F1xx_HAL_Driver/Src/stm32f1xx_hal_gpio.c ****       
 399:Drivers/STM32F1xx_HAL_Driver/Src/stm32f1xx_hal_gpio.c ****       /*------------------------- EXTI Mode Configuration --------------------*/
 400:Drivers/STM32F1xx_HAL_Driver/Src/stm32f1xx_hal_gpio.c ****       /* Clear the External Interrupt or Event for the current IO */
 401:Drivers/STM32F1xx_HAL_Driver/Src/stm32f1xx_hal_gpio.c ****       
 402:Drivers/STM32F1xx_HAL_Driver/Src/stm32f1xx_hal_gpio.c ****       tmp = AFIO->EXTICR[position >> 2U];
 403:Drivers/STM32F1xx_HAL_Driver/Src/stm32f1xx_hal_gpio.c ****       tmp &= 0x0FU << (4U * (position & 0x03U));
 404:Drivers/STM32F1xx_HAL_Driver/Src/stm32f1xx_hal_gpio.c ****       if(tmp == (GPIO_GET_INDEX(GPIOx) << (4U * (position & 0x03U))))
 537              		.loc 1 404 18 view .LVU149
 538 0012 0526     		movs	r6, #5
 539 0014 00E0     		b	.L51
 540              	.L53:
 541 0016 0026     		movs	r6, #0
 542              	.L51:
 543              		.loc 1 404 40 discriminator 24 view .LVU150
 544 0018 06FA03F3 		lsl	r3, r6, r3
 545              		.loc 1 404 9 discriminator 24 view .LVU151
 546 001c A342     		cmp	r3, r4
 547 001e 4BD0     		beq	.L65
 548              	.LVL49:
 549              	.L46:
 405:Drivers/STM32F1xx_HAL_Driver/Src/stm32f1xx_hal_gpio.c ****       {
 406:Drivers/STM32F1xx_HAL_Driver/Src/stm32f1xx_hal_gpio.c ****         tmp = 0x0FU << (4U * (position & 0x03U));
 407:Drivers/STM32F1xx_HAL_Driver/Src/stm32f1xx_hal_gpio.c ****         CLEAR_BIT(AFIO->EXTICR[position >> 2U], tmp);
 408:Drivers/STM32F1xx_HAL_Driver/Src/stm32f1xx_hal_gpio.c ****           
 409:Drivers/STM32F1xx_HAL_Driver/Src/stm32f1xx_hal_gpio.c ****         /* Clear EXTI line configuration */
 410:Drivers/STM32F1xx_HAL_Driver/Src/stm32f1xx_hal_gpio.c ****         CLEAR_BIT(EXTI->IMR, (uint32_t)iocurrent);
 411:Drivers/STM32F1xx_HAL_Driver/Src/stm32f1xx_hal_gpio.c ****         CLEAR_BIT(EXTI->EMR, (uint32_t)iocurrent);
 412:Drivers/STM32F1xx_HAL_Driver/Src/stm32f1xx_hal_gpio.c ****         
 413:Drivers/STM32F1xx_HAL_Driver/Src/stm32f1xx_hal_gpio.c ****         /* Clear Rising Falling edge configuration */
 414:Drivers/STM32F1xx_HAL_Driver/Src/stm32f1xx_hal_gpio.c ****         CLEAR_BIT(EXTI->RTSR, (uint32_t)iocurrent);
 415:Drivers/STM32F1xx_HAL_Driver/Src/stm32f1xx_hal_gpio.c ****         CLEAR_BIT(EXTI->FTSR, (uint32_t)iocurrent);
 416:Drivers/STM32F1xx_HAL_Driver/Src/stm32f1xx_hal_gpio.c ****       }
 417:Drivers/STM32F1xx_HAL_Driver/Src/stm32f1xx_hal_gpio.c ****     }
 418:Drivers/STM32F1xx_HAL_Driver/Src/stm32f1xx_hal_gpio.c ****     
 419:Drivers/STM32F1xx_HAL_Driver/Src/stm32f1xx_hal_gpio.c ****     position++;
 550              		.loc 1 419 5 is_stmt 1 view .LVU152
 551              		.loc 1 419 13 is_stmt 0 view .LVU153
 552 0020 0132     		adds	r2, r2, #1
 553              	.LVL50:
ARM GAS  /tmp/ccIT72v0.s 			page 19


 380:Drivers/STM32F1xx_HAL_Driver/Src/stm32f1xx_hal_gpio.c ****   {
 554              		.loc 1 380 9 is_stmt 1 view .LVU154
 555 0022 31FA02F3 		lsrs	r3, r1, r2
 556 0026 5ED0     		beq	.L66
 383:Drivers/STM32F1xx_HAL_Driver/Src/stm32f1xx_hal_gpio.c **** 
 557              		.loc 1 383 5 view .LVU155
 383:Drivers/STM32F1xx_HAL_Driver/Src/stm32f1xx_hal_gpio.c **** 
 558              		.loc 1 383 34 is_stmt 0 view .LVU156
 559 0028 0123     		movs	r3, #1
 560 002a 9340     		lsls	r3, r3, r2
 561              	.LVL51:
 385:Drivers/STM32F1xx_HAL_Driver/Src/stm32f1xx_hal_gpio.c ****     {
 562              		.loc 1 385 5 is_stmt 1 view .LVU157
 385:Drivers/STM32F1xx_HAL_Driver/Src/stm32f1xx_hal_gpio.c ****     {
 563              		.loc 1 385 8 is_stmt 0 view .LVU158
 564 002c 0B40     		ands	r3, r3, r1
 565              	.LVL52:
 385:Drivers/STM32F1xx_HAL_Driver/Src/stm32f1xx_hal_gpio.c ****     {
 566              		.loc 1 385 8 view .LVU159
 567 002e F7D0     		beq	.L46
 568              	.L61:
 390:Drivers/STM32F1xx_HAL_Driver/Src/stm32f1xx_hal_gpio.c ****       registeroffset = (iocurrent < GPIO_PIN_8) ? (position << 2U) : ((position - 8U) << 2U);
 569              		.loc 1 390 7 is_stmt 1 view .LVU160
 390:Drivers/STM32F1xx_HAL_Driver/Src/stm32f1xx_hal_gpio.c ****       registeroffset = (iocurrent < GPIO_PIN_8) ? (position << 2U) : ((position - 8U) << 2U);
 570              		.loc 1 390 67 is_stmt 0 view .LVU161
 571 0030 FF2B     		cmp	r3, #255
 572 0032 E7D8     		bhi	.L47
 390:Drivers/STM32F1xx_HAL_Driver/Src/stm32f1xx_hal_gpio.c ****       registeroffset = (iocurrent < GPIO_PIN_8) ? (position << 2U) : ((position - 8U) << 2U);
 573              		.loc 1 390 67 discriminator 1 view .LVU162
 574 0034 8446     		mov	ip, r0
 575              	.L48:
 576              	.LVL53:
 391:Drivers/STM32F1xx_HAL_Driver/Src/stm32f1xx_hal_gpio.c ****       
 577              		.loc 1 391 7 is_stmt 1 discriminator 4 view .LVU163
 391:Drivers/STM32F1xx_HAL_Driver/Src/stm32f1xx_hal_gpio.c ****       
 578              		.loc 1 391 68 is_stmt 0 discriminator 4 view .LVU164
 579 0036 FF2B     		cmp	r3, #255
 580 0038 E7D8     		bhi	.L49
 391:Drivers/STM32F1xx_HAL_Driver/Src/stm32f1xx_hal_gpio.c ****       
 581              		.loc 1 391 68 discriminator 1 view .LVU165
 582 003a 9700     		lsls	r7, r2, #2
 583              	.L50:
 584              	.LVL54:
 394:Drivers/STM32F1xx_HAL_Driver/Src/stm32f1xx_hal_gpio.c ****       
 585              		.loc 1 394 7 is_stmt 1 discriminator 4 view .LVU166
 586 003c DCF80040 		ldr	r4, [ip]
 587 0040 0F25     		movs	r5, #15
 588 0042 05FA07F6 		lsl	r6, r5, r7
 589 0046 24EA0604 		bic	r4, r4, r6
 590 004a 0426     		movs	r6, #4
 591 004c BE40     		lsls	r6, r6, r7
 592 004e 3443     		orrs	r4, r4, r6
 593 0050 CCF80040 		str	r4, [ip]
 397:Drivers/STM32F1xx_HAL_Driver/Src/stm32f1xx_hal_gpio.c ****       
 594              		.loc 1 397 7 discriminator 4 view .LVU167
 595 0054 C468     		ldr	r4, [r0, #12]
 596 0056 DF43     		mvns	r7, r3
ARM GAS  /tmp/ccIT72v0.s 			page 20


 597              	.LVL55:
 397:Drivers/STM32F1xx_HAL_Driver/Src/stm32f1xx_hal_gpio.c ****       
 598              		.loc 1 397 7 is_stmt 0 discriminator 4 view .LVU168
 599 0058 24EA0303 		bic	r3, r4, r3
 600              	.LVL56:
 397:Drivers/STM32F1xx_HAL_Driver/Src/stm32f1xx_hal_gpio.c ****       
 601              		.loc 1 397 7 discriminator 4 view .LVU169
 602 005c C360     		str	r3, [r0, #12]
 402:Drivers/STM32F1xx_HAL_Driver/Src/stm32f1xx_hal_gpio.c ****       tmp &= 0x0FU << (4U * (position & 0x03U));
 603              		.loc 1 402 7 is_stmt 1 discriminator 4 view .LVU170
 402:Drivers/STM32F1xx_HAL_Driver/Src/stm32f1xx_hal_gpio.c ****       tmp &= 0x0FU << (4U * (position & 0x03U));
 604              		.loc 1 402 35 is_stmt 0 discriminator 4 view .LVU171
 605 005e 4FEA920C 		lsr	ip, r2, #2
 606              	.LVL57:
 402:Drivers/STM32F1xx_HAL_Driver/Src/stm32f1xx_hal_gpio.c ****       tmp &= 0x0FU << (4U * (position & 0x03U));
 607              		.loc 1 402 11 discriminator 4 view .LVU172
 608 0062 0CF10204 		add	r4, ip, #2
 609 0066 264B     		ldr	r3, .L70
 610 0068 53F82440 		ldr	r4, [r3, r4, lsl #2]
 611              	.LVL58:
 403:Drivers/STM32F1xx_HAL_Driver/Src/stm32f1xx_hal_gpio.c ****       if(tmp == (GPIO_GET_INDEX(GPIOx) << (4U * (position & 0x03U))))
 612              		.loc 1 403 7 is_stmt 1 discriminator 4 view .LVU173
 403:Drivers/STM32F1xx_HAL_Driver/Src/stm32f1xx_hal_gpio.c ****       if(tmp == (GPIO_GET_INDEX(GPIOx) << (4U * (position & 0x03U))))
 613              		.loc 1 403 39 is_stmt 0 discriminator 4 view .LVU174
 614 006c 02F00303 		and	r3, r2, #3
 403:Drivers/STM32F1xx_HAL_Driver/Src/stm32f1xx_hal_gpio.c ****       if(tmp == (GPIO_GET_INDEX(GPIOx) << (4U * (position & 0x03U))))
 615              		.loc 1 403 27 discriminator 4 view .LVU175
 616 0070 9B00     		lsls	r3, r3, #2
 403:Drivers/STM32F1xx_HAL_Driver/Src/stm32f1xx_hal_gpio.c ****       if(tmp == (GPIO_GET_INDEX(GPIOx) << (4U * (position & 0x03U))))
 617              		.loc 1 403 20 discriminator 4 view .LVU176
 618 0072 9D40     		lsls	r5, r5, r3
 403:Drivers/STM32F1xx_HAL_Driver/Src/stm32f1xx_hal_gpio.c ****       if(tmp == (GPIO_GET_INDEX(GPIOx) << (4U * (position & 0x03U))))
 619              		.loc 1 403 11 discriminator 4 view .LVU177
 620 0074 2C40     		ands	r4, r4, r5
 621              	.LVL59:
 404:Drivers/STM32F1xx_HAL_Driver/Src/stm32f1xx_hal_gpio.c ****       {
 622              		.loc 1 404 7 is_stmt 1 discriminator 4 view .LVU178
 404:Drivers/STM32F1xx_HAL_Driver/Src/stm32f1xx_hal_gpio.c ****       {
 623              		.loc 1 404 18 is_stmt 0 discriminator 4 view .LVU179
 624 0076 234E     		ldr	r6, .L70+4
 625 0078 B042     		cmp	r0, r6
 626 007a CCD0     		beq	.L53
 404:Drivers/STM32F1xx_HAL_Driver/Src/stm32f1xx_hal_gpio.c ****       {
 627              		.loc 1 404 18 discriminator 1 view .LVU180
 628 007c 06F58066 		add	r6, r6, #1024
 629 0080 B042     		cmp	r0, r6
 630 0082 11D0     		beq	.L54
 404:Drivers/STM32F1xx_HAL_Driver/Src/stm32f1xx_hal_gpio.c ****       {
 631              		.loc 1 404 18 discriminator 3 view .LVU181
 632 0084 06F58066 		add	r6, r6, #1024
 633 0088 B042     		cmp	r0, r6
 634 008a 0FD0     		beq	.L55
 404:Drivers/STM32F1xx_HAL_Driver/Src/stm32f1xx_hal_gpio.c ****       {
 635              		.loc 1 404 18 discriminator 5 view .LVU182
 636 008c 06F58066 		add	r6, r6, #1024
 637 0090 B042     		cmp	r0, r6
 638 0092 0DD0     		beq	.L56
ARM GAS  /tmp/ccIT72v0.s 			page 21


 404:Drivers/STM32F1xx_HAL_Driver/Src/stm32f1xx_hal_gpio.c ****       {
 639              		.loc 1 404 18 discriminator 7 view .LVU183
 640 0094 06F58066 		add	r6, r6, #1024
 641 0098 B042     		cmp	r0, r6
 642 009a 0BD0     		beq	.L57
 404:Drivers/STM32F1xx_HAL_Driver/Src/stm32f1xx_hal_gpio.c ****       {
 643              		.loc 1 404 18 discriminator 9 view .LVU184
 644 009c 06F58066 		add	r6, r6, #1024
 645 00a0 B042     		cmp	r0, r6
 646 00a2 B6D0     		beq	.L67
 404:Drivers/STM32F1xx_HAL_Driver/Src/stm32f1xx_hal_gpio.c ****       {
 647              		.loc 1 404 18 view .LVU185
 648 00a4 0626     		movs	r6, #6
 649 00a6 B7E7     		b	.L51
 650              	.L54:
 651 00a8 0126     		movs	r6, #1
 652 00aa B5E7     		b	.L51
 653              	.L55:
 654 00ac 0226     		movs	r6, #2
 655 00ae B3E7     		b	.L51
 656              	.L56:
 657 00b0 0326     		movs	r6, #3
 658 00b2 B1E7     		b	.L51
 659              	.L57:
 660 00b4 0426     		movs	r6, #4
 661 00b6 AFE7     		b	.L51
 662              	.L65:
 406:Drivers/STM32F1xx_HAL_Driver/Src/stm32f1xx_hal_gpio.c ****         CLEAR_BIT(AFIO->EXTICR[position >> 2U], tmp);
 663              		.loc 1 406 9 is_stmt 1 view .LVU186
 664              	.LVL60:
 407:Drivers/STM32F1xx_HAL_Driver/Src/stm32f1xx_hal_gpio.c ****           
 665              		.loc 1 407 9 view .LVU187
 666 00b8 114E     		ldr	r6, .L70
 667 00ba 0CF10203 		add	r3, ip, #2
 668 00be 56F82340 		ldr	r4, [r6, r3, lsl #2]
 669 00c2 24EA0505 		bic	r5, r4, r5
 670              	.LVL61:
 407:Drivers/STM32F1xx_HAL_Driver/Src/stm32f1xx_hal_gpio.c ****           
 671              		.loc 1 407 9 is_stmt 0 view .LVU188
 672 00c6 46F82350 		str	r5, [r6, r3, lsl #2]
 410:Drivers/STM32F1xx_HAL_Driver/Src/stm32f1xx_hal_gpio.c ****         CLEAR_BIT(EXTI->EMR, (uint32_t)iocurrent);
 673              		.loc 1 410 9 is_stmt 1 view .LVU189
 674 00ca 0F4B     		ldr	r3, .L70+8
 675 00cc 1C68     		ldr	r4, [r3]
 676 00ce 3C40     		ands	r4, r4, r7
 677 00d0 1C60     		str	r4, [r3]
 411:Drivers/STM32F1xx_HAL_Driver/Src/stm32f1xx_hal_gpio.c ****         
 678              		.loc 1 411 9 view .LVU190
 679 00d2 5C68     		ldr	r4, [r3, #4]
 680 00d4 3C40     		ands	r4, r4, r7
 681 00d6 5C60     		str	r4, [r3, #4]
 414:Drivers/STM32F1xx_HAL_Driver/Src/stm32f1xx_hal_gpio.c ****         CLEAR_BIT(EXTI->FTSR, (uint32_t)iocurrent);
 682              		.loc 1 414 9 view .LVU191
 683 00d8 9C68     		ldr	r4, [r3, #8]
 684 00da 3C40     		ands	r4, r4, r7
 685 00dc 9C60     		str	r4, [r3, #8]
 415:Drivers/STM32F1xx_HAL_Driver/Src/stm32f1xx_hal_gpio.c ****       }
ARM GAS  /tmp/ccIT72v0.s 			page 22


 686              		.loc 1 415 9 view .LVU192
 687 00de DC68     		ldr	r4, [r3, #12]
 688 00e0 2740     		ands	r7, r7, r4
 689              	.LVL62:
 415:Drivers/STM32F1xx_HAL_Driver/Src/stm32f1xx_hal_gpio.c ****       }
 690              		.loc 1 415 9 is_stmt 0 view .LVU193
 691 00e2 DF60     		str	r7, [r3, #12]
 692 00e4 9CE7     		b	.L46
 693              	.LVL63:
 694              	.L66:
 420:Drivers/STM32F1xx_HAL_Driver/Src/stm32f1xx_hal_gpio.c ****   }
 421:Drivers/STM32F1xx_HAL_Driver/Src/stm32f1xx_hal_gpio.c **** }
 695              		.loc 1 421 1 view .LVU194
 696 00e6 F0BC     		pop	{r4, r5, r6, r7}
 697              	.LCFI5:
 698              		.cfi_restore 7
 699              		.cfi_restore 6
 700              		.cfi_restore 5
 701              		.cfi_restore 4
 702              		.cfi_def_cfa_offset 0
 703 00e8 7047     		bx	lr
 704              	.LVL64:
 705              	.L69:
 419:Drivers/STM32F1xx_HAL_Driver/Src/stm32f1xx_hal_gpio.c ****   }
 706              		.loc 1 419 5 is_stmt 1 view .LVU195
 419:Drivers/STM32F1xx_HAL_Driver/Src/stm32f1xx_hal_gpio.c ****   }
 707              		.loc 1 419 13 is_stmt 0 view .LVU196
 708 00ea 0132     		adds	r2, r2, #1
 709              	.LVL65:
 710              	.L60:
 380:Drivers/STM32F1xx_HAL_Driver/Src/stm32f1xx_hal_gpio.c ****   {
 711              		.loc 1 380 9 is_stmt 1 view .LVU197
 712 00ec 31FA02F3 		lsrs	r3, r1, r2
 713 00f0 05D0     		beq	.L68
 383:Drivers/STM32F1xx_HAL_Driver/Src/stm32f1xx_hal_gpio.c **** 
 714              		.loc 1 383 5 view .LVU198
 383:Drivers/STM32F1xx_HAL_Driver/Src/stm32f1xx_hal_gpio.c **** 
 715              		.loc 1 383 34 is_stmt 0 view .LVU199
 716 00f2 0123     		movs	r3, #1
 717 00f4 9340     		lsls	r3, r3, r2
 718              	.LVL66:
 385:Drivers/STM32F1xx_HAL_Driver/Src/stm32f1xx_hal_gpio.c ****     {
 719              		.loc 1 385 5 is_stmt 1 view .LVU200
 385:Drivers/STM32F1xx_HAL_Driver/Src/stm32f1xx_hal_gpio.c ****     {
 720              		.loc 1 385 8 is_stmt 0 view .LVU201
 721 00f6 0B40     		ands	r3, r3, r1
 722              	.LVL67:
 385:Drivers/STM32F1xx_HAL_Driver/Src/stm32f1xx_hal_gpio.c ****     {
 723              		.loc 1 385 8 view .LVU202
 724 00f8 F7D0     		beq	.L69
 368:Drivers/STM32F1xx_HAL_Driver/Src/stm32f1xx_hal_gpio.c ****   uint32_t position = 0x00U;
 725              		.loc 1 368 1 view .LVU203
 726 00fa F0B4     		push	{r4, r5, r6, r7}
 727              	.LCFI6:
 728              		.cfi_def_cfa_offset 16
 729              		.cfi_offset 4, -16
 730              		.cfi_offset 5, -12
ARM GAS  /tmp/ccIT72v0.s 			page 23


 731              		.cfi_offset 6, -8
 732              		.cfi_offset 7, -4
 733 00fc 98E7     		b	.L61
 734              	.LVL68:
 735              	.L68:
 736              	.LCFI7:
 737              		.cfi_def_cfa_offset 0
 738              		.cfi_restore 4
 739              		.cfi_restore 5
 740              		.cfi_restore 6
 741              		.cfi_restore 7
 368:Drivers/STM32F1xx_HAL_Driver/Src/stm32f1xx_hal_gpio.c ****   uint32_t position = 0x00U;
 742              		.loc 1 368 1 view .LVU204
 743 00fe 7047     		bx	lr
 744              	.L71:
 745              		.align	2
 746              	.L70:
 747 0100 00000140 		.word	1073807360
 748 0104 00080140 		.word	1073809408
 749 0108 00040140 		.word	1073808384
 750              		.cfi_endproc
 751              	.LFE67:
 753              		.section	.text.HAL_GPIO_ReadPin,"ax",%progbits
 754              		.align	1
 755              		.global	HAL_GPIO_ReadPin
 756              		.syntax unified
 757              		.thumb
 758              		.thumb_func
 759              		.fpu softvfp
 761              	HAL_GPIO_ReadPin:
 762              	.LVL69:
 763              	.LFB68:
 422:Drivers/STM32F1xx_HAL_Driver/Src/stm32f1xx_hal_gpio.c **** 
 423:Drivers/STM32F1xx_HAL_Driver/Src/stm32f1xx_hal_gpio.c **** /**
 424:Drivers/STM32F1xx_HAL_Driver/Src/stm32f1xx_hal_gpio.c ****   * @}
 425:Drivers/STM32F1xx_HAL_Driver/Src/stm32f1xx_hal_gpio.c ****   */
 426:Drivers/STM32F1xx_HAL_Driver/Src/stm32f1xx_hal_gpio.c **** 
 427:Drivers/STM32F1xx_HAL_Driver/Src/stm32f1xx_hal_gpio.c **** /** @defgroup GPIO_Exported_Functions_Group2 IO operation functions 
 428:Drivers/STM32F1xx_HAL_Driver/Src/stm32f1xx_hal_gpio.c ****  *  @brief   GPIO Read and Write
 429:Drivers/STM32F1xx_HAL_Driver/Src/stm32f1xx_hal_gpio.c ****  *
 430:Drivers/STM32F1xx_HAL_Driver/Src/stm32f1xx_hal_gpio.c **** @verbatim
 431:Drivers/STM32F1xx_HAL_Driver/Src/stm32f1xx_hal_gpio.c ****  ===============================================================================
 432:Drivers/STM32F1xx_HAL_Driver/Src/stm32f1xx_hal_gpio.c ****                        ##### IO operation functions #####
 433:Drivers/STM32F1xx_HAL_Driver/Src/stm32f1xx_hal_gpio.c ****  ===============================================================================
 434:Drivers/STM32F1xx_HAL_Driver/Src/stm32f1xx_hal_gpio.c ****   [..]
 435:Drivers/STM32F1xx_HAL_Driver/Src/stm32f1xx_hal_gpio.c ****     This subsection provides a set of functions allowing to manage the GPIOs.
 436:Drivers/STM32F1xx_HAL_Driver/Src/stm32f1xx_hal_gpio.c **** 
 437:Drivers/STM32F1xx_HAL_Driver/Src/stm32f1xx_hal_gpio.c **** @endverbatim
 438:Drivers/STM32F1xx_HAL_Driver/Src/stm32f1xx_hal_gpio.c ****   * @{
 439:Drivers/STM32F1xx_HAL_Driver/Src/stm32f1xx_hal_gpio.c ****   */
 440:Drivers/STM32F1xx_HAL_Driver/Src/stm32f1xx_hal_gpio.c **** 
 441:Drivers/STM32F1xx_HAL_Driver/Src/stm32f1xx_hal_gpio.c **** /**
 442:Drivers/STM32F1xx_HAL_Driver/Src/stm32f1xx_hal_gpio.c ****   * @brief  Reads the specified input port pin.
 443:Drivers/STM32F1xx_HAL_Driver/Src/stm32f1xx_hal_gpio.c ****   * @param  GPIOx: where x can be (A..G depending on device used) to select the GPIO peripheral
 444:Drivers/STM32F1xx_HAL_Driver/Src/stm32f1xx_hal_gpio.c ****   * @param  GPIO_Pin: specifies the port bit to read.
 445:Drivers/STM32F1xx_HAL_Driver/Src/stm32f1xx_hal_gpio.c ****   *         This parameter can be GPIO_PIN_x where x can be (0..15).
 446:Drivers/STM32F1xx_HAL_Driver/Src/stm32f1xx_hal_gpio.c ****   * @retval The input port pin value.
ARM GAS  /tmp/ccIT72v0.s 			page 24


 447:Drivers/STM32F1xx_HAL_Driver/Src/stm32f1xx_hal_gpio.c ****   */
 448:Drivers/STM32F1xx_HAL_Driver/Src/stm32f1xx_hal_gpio.c **** GPIO_PinState HAL_GPIO_ReadPin(GPIO_TypeDef* GPIOx, uint16_t GPIO_Pin)
 449:Drivers/STM32F1xx_HAL_Driver/Src/stm32f1xx_hal_gpio.c **** {
 764              		.loc 1 449 1 is_stmt 1 view -0
 765              		.cfi_startproc
 766              		@ args = 0, pretend = 0, frame = 0
 767              		@ frame_needed = 0, uses_anonymous_args = 0
 768              		@ link register save eliminated.
 450:Drivers/STM32F1xx_HAL_Driver/Src/stm32f1xx_hal_gpio.c ****   GPIO_PinState bitstatus;
 769              		.loc 1 450 3 view .LVU206
 451:Drivers/STM32F1xx_HAL_Driver/Src/stm32f1xx_hal_gpio.c **** 
 452:Drivers/STM32F1xx_HAL_Driver/Src/stm32f1xx_hal_gpio.c ****   /* Check the parameters */
 453:Drivers/STM32F1xx_HAL_Driver/Src/stm32f1xx_hal_gpio.c ****   assert_param(IS_GPIO_PIN(GPIO_Pin));
 770              		.loc 1 453 3 view .LVU207
 454:Drivers/STM32F1xx_HAL_Driver/Src/stm32f1xx_hal_gpio.c **** 
 455:Drivers/STM32F1xx_HAL_Driver/Src/stm32f1xx_hal_gpio.c ****   if ((GPIOx->IDR & GPIO_Pin) != (uint32_t)GPIO_PIN_RESET)
 771              		.loc 1 455 3 view .LVU208
 772              		.loc 1 455 13 is_stmt 0 view .LVU209
 773 0000 8368     		ldr	r3, [r0, #8]
 774              		.loc 1 455 6 view .LVU210
 775 0002 1942     		tst	r1, r3
 776 0004 01D0     		beq	.L74
 456:Drivers/STM32F1xx_HAL_Driver/Src/stm32f1xx_hal_gpio.c ****   {
 457:Drivers/STM32F1xx_HAL_Driver/Src/stm32f1xx_hal_gpio.c ****     bitstatus = GPIO_PIN_SET;
 777              		.loc 1 457 15 view .LVU211
 778 0006 0120     		movs	r0, #1
 779              	.LVL70:
 780              		.loc 1 457 15 view .LVU212
 781 0008 7047     		bx	lr
 782              	.LVL71:
 783              	.L74:
 458:Drivers/STM32F1xx_HAL_Driver/Src/stm32f1xx_hal_gpio.c ****   }
 459:Drivers/STM32F1xx_HAL_Driver/Src/stm32f1xx_hal_gpio.c ****   else
 460:Drivers/STM32F1xx_HAL_Driver/Src/stm32f1xx_hal_gpio.c ****   {
 461:Drivers/STM32F1xx_HAL_Driver/Src/stm32f1xx_hal_gpio.c ****     bitstatus = GPIO_PIN_RESET;
 784              		.loc 1 461 15 view .LVU213
 785 000a 0020     		movs	r0, #0
 786              	.LVL72:
 462:Drivers/STM32F1xx_HAL_Driver/Src/stm32f1xx_hal_gpio.c ****   }
 463:Drivers/STM32F1xx_HAL_Driver/Src/stm32f1xx_hal_gpio.c ****   return bitstatus;
 787              		.loc 1 463 3 is_stmt 1 view .LVU214
 464:Drivers/STM32F1xx_HAL_Driver/Src/stm32f1xx_hal_gpio.c **** }
 788              		.loc 1 464 1 is_stmt 0 view .LVU215
 789 000c 7047     		bx	lr
 790              		.cfi_endproc
 791              	.LFE68:
 793              		.section	.text.HAL_GPIO_WritePin,"ax",%progbits
 794              		.align	1
 795              		.global	HAL_GPIO_WritePin
 796              		.syntax unified
 797              		.thumb
 798              		.thumb_func
 799              		.fpu softvfp
 801              	HAL_GPIO_WritePin:
 802              	.LVL73:
 803              	.LFB69:
 465:Drivers/STM32F1xx_HAL_Driver/Src/stm32f1xx_hal_gpio.c **** 
ARM GAS  /tmp/ccIT72v0.s 			page 25


 466:Drivers/STM32F1xx_HAL_Driver/Src/stm32f1xx_hal_gpio.c **** /**
 467:Drivers/STM32F1xx_HAL_Driver/Src/stm32f1xx_hal_gpio.c ****   * @brief  Sets or clears the selected data port bit.
 468:Drivers/STM32F1xx_HAL_Driver/Src/stm32f1xx_hal_gpio.c ****   * 
 469:Drivers/STM32F1xx_HAL_Driver/Src/stm32f1xx_hal_gpio.c ****   * @note   This function uses GPIOx_BSRR register to allow atomic read/modify 
 470:Drivers/STM32F1xx_HAL_Driver/Src/stm32f1xx_hal_gpio.c ****   *         accesses. In this way, there is no risk of an IRQ occurring between
 471:Drivers/STM32F1xx_HAL_Driver/Src/stm32f1xx_hal_gpio.c ****   *         the read and the modify access.
 472:Drivers/STM32F1xx_HAL_Driver/Src/stm32f1xx_hal_gpio.c ****   *               
 473:Drivers/STM32F1xx_HAL_Driver/Src/stm32f1xx_hal_gpio.c ****   * @param  GPIOx: where x can be (A..G depending on device used) to select the GPIO peripheral
 474:Drivers/STM32F1xx_HAL_Driver/Src/stm32f1xx_hal_gpio.c ****   * @param  GPIO_Pin: specifies the port bit to be written.
 475:Drivers/STM32F1xx_HAL_Driver/Src/stm32f1xx_hal_gpio.c ****   *          This parameter can be one of GPIO_PIN_x where x can be (0..15).
 476:Drivers/STM32F1xx_HAL_Driver/Src/stm32f1xx_hal_gpio.c ****   * @param  PinState: specifies the value to be written to the selected bit.
 477:Drivers/STM32F1xx_HAL_Driver/Src/stm32f1xx_hal_gpio.c ****   *          This parameter can be one of the GPIO_PinState enum values:
 478:Drivers/STM32F1xx_HAL_Driver/Src/stm32f1xx_hal_gpio.c ****   *            @arg GPIO_BIT_RESET: to clear the port pin
 479:Drivers/STM32F1xx_HAL_Driver/Src/stm32f1xx_hal_gpio.c ****   *            @arg GPIO_BIT_SET: to set the port pin
 480:Drivers/STM32F1xx_HAL_Driver/Src/stm32f1xx_hal_gpio.c ****   * @retval None
 481:Drivers/STM32F1xx_HAL_Driver/Src/stm32f1xx_hal_gpio.c ****   */
 482:Drivers/STM32F1xx_HAL_Driver/Src/stm32f1xx_hal_gpio.c **** void HAL_GPIO_WritePin(GPIO_TypeDef* GPIOx, uint16_t GPIO_Pin, GPIO_PinState PinState)
 483:Drivers/STM32F1xx_HAL_Driver/Src/stm32f1xx_hal_gpio.c **** {
 804              		.loc 1 483 1 is_stmt 1 view -0
 805              		.cfi_startproc
 806              		@ args = 0, pretend = 0, frame = 0
 807              		@ frame_needed = 0, uses_anonymous_args = 0
 808              		@ link register save eliminated.
 484:Drivers/STM32F1xx_HAL_Driver/Src/stm32f1xx_hal_gpio.c ****   /* Check the parameters */
 485:Drivers/STM32F1xx_HAL_Driver/Src/stm32f1xx_hal_gpio.c ****   assert_param(IS_GPIO_PIN(GPIO_Pin));
 809              		.loc 1 485 3 view .LVU217
 486:Drivers/STM32F1xx_HAL_Driver/Src/stm32f1xx_hal_gpio.c ****   assert_param(IS_GPIO_PIN_ACTION(PinState));
 810              		.loc 1 486 3 view .LVU218
 487:Drivers/STM32F1xx_HAL_Driver/Src/stm32f1xx_hal_gpio.c **** 
 488:Drivers/STM32F1xx_HAL_Driver/Src/stm32f1xx_hal_gpio.c ****   if(PinState != GPIO_PIN_RESET)
 811              		.loc 1 488 3 view .LVU219
 812              		.loc 1 488 5 is_stmt 0 view .LVU220
 813 0000 0AB1     		cbz	r2, .L76
 489:Drivers/STM32F1xx_HAL_Driver/Src/stm32f1xx_hal_gpio.c ****   {
 490:Drivers/STM32F1xx_HAL_Driver/Src/stm32f1xx_hal_gpio.c ****     GPIOx->BSRR = GPIO_Pin;
 814              		.loc 1 490 5 is_stmt 1 view .LVU221
 815              		.loc 1 490 17 is_stmt 0 view .LVU222
 816 0002 0161     		str	r1, [r0, #16]
 817 0004 7047     		bx	lr
 818              	.L76:
 491:Drivers/STM32F1xx_HAL_Driver/Src/stm32f1xx_hal_gpio.c ****   }
 492:Drivers/STM32F1xx_HAL_Driver/Src/stm32f1xx_hal_gpio.c ****   else
 493:Drivers/STM32F1xx_HAL_Driver/Src/stm32f1xx_hal_gpio.c ****   {
 494:Drivers/STM32F1xx_HAL_Driver/Src/stm32f1xx_hal_gpio.c ****     GPIOx->BSRR = (uint32_t)GPIO_Pin << 16U;
 819              		.loc 1 494 5 is_stmt 1 view .LVU223
 820              		.loc 1 494 38 is_stmt 0 view .LVU224
 821 0006 0904     		lsls	r1, r1, #16
 822              	.LVL74:
 823              		.loc 1 494 17 view .LVU225
 824 0008 0161     		str	r1, [r0, #16]
 495:Drivers/STM32F1xx_HAL_Driver/Src/stm32f1xx_hal_gpio.c ****   }
 496:Drivers/STM32F1xx_HAL_Driver/Src/stm32f1xx_hal_gpio.c **** }
 825              		.loc 1 496 1 view .LVU226
 826 000a 7047     		bx	lr
 827              		.cfi_endproc
 828              	.LFE69:
 830              		.section	.text.HAL_GPIO_TogglePin,"ax",%progbits
ARM GAS  /tmp/ccIT72v0.s 			page 26


 831              		.align	1
 832              		.global	HAL_GPIO_TogglePin
 833              		.syntax unified
 834              		.thumb
 835              		.thumb_func
 836              		.fpu softvfp
 838              	HAL_GPIO_TogglePin:
 839              	.LVL75:
 840              	.LFB70:
 497:Drivers/STM32F1xx_HAL_Driver/Src/stm32f1xx_hal_gpio.c **** 
 498:Drivers/STM32F1xx_HAL_Driver/Src/stm32f1xx_hal_gpio.c **** /**
 499:Drivers/STM32F1xx_HAL_Driver/Src/stm32f1xx_hal_gpio.c ****   * @brief  Toggles the specified GPIO pin
 500:Drivers/STM32F1xx_HAL_Driver/Src/stm32f1xx_hal_gpio.c ****   * @param  GPIOx: where x can be (A..G depending on device used) to select the GPIO peripheral 
 501:Drivers/STM32F1xx_HAL_Driver/Src/stm32f1xx_hal_gpio.c ****   * @param  GPIO_Pin: Specifies the pins to be toggled.
 502:Drivers/STM32F1xx_HAL_Driver/Src/stm32f1xx_hal_gpio.c ****   * @retval None
 503:Drivers/STM32F1xx_HAL_Driver/Src/stm32f1xx_hal_gpio.c ****   */
 504:Drivers/STM32F1xx_HAL_Driver/Src/stm32f1xx_hal_gpio.c **** void HAL_GPIO_TogglePin(GPIO_TypeDef* GPIOx, uint16_t GPIO_Pin)
 505:Drivers/STM32F1xx_HAL_Driver/Src/stm32f1xx_hal_gpio.c **** {
 841              		.loc 1 505 1 is_stmt 1 view -0
 842              		.cfi_startproc
 843              		@ args = 0, pretend = 0, frame = 0
 844              		@ frame_needed = 0, uses_anonymous_args = 0
 845              		@ link register save eliminated.
 506:Drivers/STM32F1xx_HAL_Driver/Src/stm32f1xx_hal_gpio.c ****   /* Check the parameters */
 507:Drivers/STM32F1xx_HAL_Driver/Src/stm32f1xx_hal_gpio.c ****   assert_param(IS_GPIO_PIN(GPIO_Pin));
 846              		.loc 1 507 3 view .LVU228
 508:Drivers/STM32F1xx_HAL_Driver/Src/stm32f1xx_hal_gpio.c **** 
 509:Drivers/STM32F1xx_HAL_Driver/Src/stm32f1xx_hal_gpio.c ****   GPIOx->ODR ^= GPIO_Pin;
 847              		.loc 1 509 3 view .LVU229
 848              		.loc 1 509 14 is_stmt 0 view .LVU230
 849 0000 C368     		ldr	r3, [r0, #12]
 850 0002 5940     		eors	r1, r1, r3
 851              	.LVL76:
 852              		.loc 1 509 14 view .LVU231
 853 0004 C160     		str	r1, [r0, #12]
 510:Drivers/STM32F1xx_HAL_Driver/Src/stm32f1xx_hal_gpio.c **** }
 854              		.loc 1 510 1 view .LVU232
 855 0006 7047     		bx	lr
 856              		.cfi_endproc
 857              	.LFE70:
 859              		.section	.text.HAL_GPIO_LockPin,"ax",%progbits
 860              		.align	1
 861              		.global	HAL_GPIO_LockPin
 862              		.syntax unified
 863              		.thumb
 864              		.thumb_func
 865              		.fpu softvfp
 867              	HAL_GPIO_LockPin:
 868              	.LVL77:
 869              	.LFB71:
 511:Drivers/STM32F1xx_HAL_Driver/Src/stm32f1xx_hal_gpio.c **** 
 512:Drivers/STM32F1xx_HAL_Driver/Src/stm32f1xx_hal_gpio.c **** /**
 513:Drivers/STM32F1xx_HAL_Driver/Src/stm32f1xx_hal_gpio.c **** * @brief  Locks GPIO Pins configuration registers.
 514:Drivers/STM32F1xx_HAL_Driver/Src/stm32f1xx_hal_gpio.c **** * @note   The locking mechanism allows the IO configuration to be frozen. When the LOCK sequence
 515:Drivers/STM32F1xx_HAL_Driver/Src/stm32f1xx_hal_gpio.c **** *         has been applied on a port bit, it is no longer possible to modify the value of the port 
 516:Drivers/STM32F1xx_HAL_Driver/Src/stm32f1xx_hal_gpio.c **** *         the next reset.
 517:Drivers/STM32F1xx_HAL_Driver/Src/stm32f1xx_hal_gpio.c **** * @param  GPIOx: where x can be (A..G depending on device used) to select the GPIO peripheral
ARM GAS  /tmp/ccIT72v0.s 			page 27


 518:Drivers/STM32F1xx_HAL_Driver/Src/stm32f1xx_hal_gpio.c **** * @param  GPIO_Pin: specifies the port bit to be locked.
 519:Drivers/STM32F1xx_HAL_Driver/Src/stm32f1xx_hal_gpio.c **** *         This parameter can be any combination of GPIO_Pin_x where x can be (0..15).
 520:Drivers/STM32F1xx_HAL_Driver/Src/stm32f1xx_hal_gpio.c **** * @retval None
 521:Drivers/STM32F1xx_HAL_Driver/Src/stm32f1xx_hal_gpio.c **** */
 522:Drivers/STM32F1xx_HAL_Driver/Src/stm32f1xx_hal_gpio.c **** HAL_StatusTypeDef HAL_GPIO_LockPin(GPIO_TypeDef* GPIOx, uint16_t GPIO_Pin)
 523:Drivers/STM32F1xx_HAL_Driver/Src/stm32f1xx_hal_gpio.c **** {
 870              		.loc 1 523 1 is_stmt 1 view -0
 871              		.cfi_startproc
 872              		@ args = 0, pretend = 0, frame = 8
 873              		@ frame_needed = 0, uses_anonymous_args = 0
 874              		@ link register save eliminated.
 875              		.loc 1 523 1 is_stmt 0 view .LVU234
 876 0000 82B0     		sub	sp, sp, #8
 877              	.LCFI8:
 878              		.cfi_def_cfa_offset 8
 524:Drivers/STM32F1xx_HAL_Driver/Src/stm32f1xx_hal_gpio.c ****   __IO uint32_t tmp = GPIO_LCKR_LCKK;
 879              		.loc 1 524 3 is_stmt 1 view .LVU235
 880              		.loc 1 524 17 is_stmt 0 view .LVU236
 881 0002 4FF48033 		mov	r3, #65536
 882 0006 0193     		str	r3, [sp, #4]
 525:Drivers/STM32F1xx_HAL_Driver/Src/stm32f1xx_hal_gpio.c **** 
 526:Drivers/STM32F1xx_HAL_Driver/Src/stm32f1xx_hal_gpio.c ****   /* Check the parameters */
 527:Drivers/STM32F1xx_HAL_Driver/Src/stm32f1xx_hal_gpio.c ****   assert_param(IS_GPIO_LOCK_INSTANCE(GPIOx));
 883              		.loc 1 527 3 is_stmt 1 view .LVU237
 528:Drivers/STM32F1xx_HAL_Driver/Src/stm32f1xx_hal_gpio.c ****   assert_param(IS_GPIO_PIN(GPIO_Pin));
 884              		.loc 1 528 3 view .LVU238
 529:Drivers/STM32F1xx_HAL_Driver/Src/stm32f1xx_hal_gpio.c **** 
 530:Drivers/STM32F1xx_HAL_Driver/Src/stm32f1xx_hal_gpio.c ****   /* Apply lock key write sequence */
 531:Drivers/STM32F1xx_HAL_Driver/Src/stm32f1xx_hal_gpio.c ****   SET_BIT(tmp, GPIO_Pin);
 885              		.loc 1 531 3 view .LVU239
 886 0008 019B     		ldr	r3, [sp, #4]
 887 000a 0B43     		orrs	r3, r3, r1
 888 000c 0193     		str	r3, [sp, #4]
 532:Drivers/STM32F1xx_HAL_Driver/Src/stm32f1xx_hal_gpio.c ****   /* Set LCKx bit(s): LCKK='1' + LCK[15-0] */
 533:Drivers/STM32F1xx_HAL_Driver/Src/stm32f1xx_hal_gpio.c ****   GPIOx->LCKR = tmp;
 889              		.loc 1 533 3 view .LVU240
 890              		.loc 1 533 15 is_stmt 0 view .LVU241
 891 000e 019B     		ldr	r3, [sp, #4]
 892 0010 8361     		str	r3, [r0, #24]
 534:Drivers/STM32F1xx_HAL_Driver/Src/stm32f1xx_hal_gpio.c ****   /* Reset LCKx bit(s): LCKK='0' + LCK[15-0] */
 535:Drivers/STM32F1xx_HAL_Driver/Src/stm32f1xx_hal_gpio.c ****   GPIOx->LCKR = GPIO_Pin;
 893              		.loc 1 535 3 is_stmt 1 view .LVU242
 894              		.loc 1 535 15 is_stmt 0 view .LVU243
 895 0012 8161     		str	r1, [r0, #24]
 536:Drivers/STM32F1xx_HAL_Driver/Src/stm32f1xx_hal_gpio.c ****   /* Set LCKx bit(s): LCKK='1' + LCK[15-0] */
 537:Drivers/STM32F1xx_HAL_Driver/Src/stm32f1xx_hal_gpio.c ****   GPIOx->LCKR = tmp;
 896              		.loc 1 537 3 is_stmt 1 view .LVU244
 897              		.loc 1 537 15 is_stmt 0 view .LVU245
 898 0014 019B     		ldr	r3, [sp, #4]
 899 0016 8361     		str	r3, [r0, #24]
 538:Drivers/STM32F1xx_HAL_Driver/Src/stm32f1xx_hal_gpio.c ****   /* Read LCKK bit*/
 539:Drivers/STM32F1xx_HAL_Driver/Src/stm32f1xx_hal_gpio.c ****   tmp = GPIOx->LCKR;
 900              		.loc 1 539 3 is_stmt 1 view .LVU246
 901              		.loc 1 539 14 is_stmt 0 view .LVU247
 902 0018 8369     		ldr	r3, [r0, #24]
 903              		.loc 1 539 7 view .LVU248
 904 001a 0193     		str	r3, [sp, #4]
ARM GAS  /tmp/ccIT72v0.s 			page 28


 540:Drivers/STM32F1xx_HAL_Driver/Src/stm32f1xx_hal_gpio.c **** 
 541:Drivers/STM32F1xx_HAL_Driver/Src/stm32f1xx_hal_gpio.c ****   if((uint32_t)(GPIOx->LCKR & GPIO_LCKR_LCKK))
 905              		.loc 1 541 3 is_stmt 1 view .LVU249
 906              		.loc 1 541 22 is_stmt 0 view .LVU250
 907 001c 8369     		ldr	r3, [r0, #24]
 908              		.loc 1 541 5 view .LVU251
 909 001e 13F4803F 		tst	r3, #65536
 910 0022 02D0     		beq	.L81
 542:Drivers/STM32F1xx_HAL_Driver/Src/stm32f1xx_hal_gpio.c ****   {
 543:Drivers/STM32F1xx_HAL_Driver/Src/stm32f1xx_hal_gpio.c ****     return HAL_OK;
 911              		.loc 1 543 12 view .LVU252
 912 0024 0020     		movs	r0, #0
 913              	.LVL78:
 914              	.L80:
 544:Drivers/STM32F1xx_HAL_Driver/Src/stm32f1xx_hal_gpio.c ****   }
 545:Drivers/STM32F1xx_HAL_Driver/Src/stm32f1xx_hal_gpio.c ****   else
 546:Drivers/STM32F1xx_HAL_Driver/Src/stm32f1xx_hal_gpio.c ****   {
 547:Drivers/STM32F1xx_HAL_Driver/Src/stm32f1xx_hal_gpio.c ****     return HAL_ERROR;
 548:Drivers/STM32F1xx_HAL_Driver/Src/stm32f1xx_hal_gpio.c ****   }
 549:Drivers/STM32F1xx_HAL_Driver/Src/stm32f1xx_hal_gpio.c **** }
 915              		.loc 1 549 1 view .LVU253
 916 0026 02B0     		add	sp, sp, #8
 917              	.LCFI9:
 918              		.cfi_remember_state
 919              		.cfi_def_cfa_offset 0
 920              		@ sp needed
 921 0028 7047     		bx	lr
 922              	.LVL79:
 923              	.L81:
 924              	.LCFI10:
 925              		.cfi_restore_state
 547:Drivers/STM32F1xx_HAL_Driver/Src/stm32f1xx_hal_gpio.c ****   }
 926              		.loc 1 547 12 view .LVU254
 927 002a 0120     		movs	r0, #1
 928              	.LVL80:
 547:Drivers/STM32F1xx_HAL_Driver/Src/stm32f1xx_hal_gpio.c ****   }
 929              		.loc 1 547 12 view .LVU255
 930 002c FBE7     		b	.L80
 931              		.cfi_endproc
 932              	.LFE71:
 934              		.section	.text.HAL_GPIO_EXTI_Callback,"ax",%progbits
 935              		.align	1
 936              		.weak	HAL_GPIO_EXTI_Callback
 937              		.syntax unified
 938              		.thumb
 939              		.thumb_func
 940              		.fpu softvfp
 942              	HAL_GPIO_EXTI_Callback:
 943              	.LVL81:
 944              	.LFB73:
 550:Drivers/STM32F1xx_HAL_Driver/Src/stm32f1xx_hal_gpio.c **** 
 551:Drivers/STM32F1xx_HAL_Driver/Src/stm32f1xx_hal_gpio.c **** /**
 552:Drivers/STM32F1xx_HAL_Driver/Src/stm32f1xx_hal_gpio.c ****   * @brief  This function handles EXTI interrupt request.
 553:Drivers/STM32F1xx_HAL_Driver/Src/stm32f1xx_hal_gpio.c ****   * @param  GPIO_Pin: Specifies the pins connected EXTI line
 554:Drivers/STM32F1xx_HAL_Driver/Src/stm32f1xx_hal_gpio.c ****   * @retval None
 555:Drivers/STM32F1xx_HAL_Driver/Src/stm32f1xx_hal_gpio.c ****   */
 556:Drivers/STM32F1xx_HAL_Driver/Src/stm32f1xx_hal_gpio.c **** void HAL_GPIO_EXTI_IRQHandler(uint16_t GPIO_Pin)
ARM GAS  /tmp/ccIT72v0.s 			page 29


 557:Drivers/STM32F1xx_HAL_Driver/Src/stm32f1xx_hal_gpio.c **** {
 558:Drivers/STM32F1xx_HAL_Driver/Src/stm32f1xx_hal_gpio.c ****   /* EXTI line interrupt detected */
 559:Drivers/STM32F1xx_HAL_Driver/Src/stm32f1xx_hal_gpio.c ****   if(__HAL_GPIO_EXTI_GET_IT(GPIO_Pin) != RESET)
 560:Drivers/STM32F1xx_HAL_Driver/Src/stm32f1xx_hal_gpio.c ****   {
 561:Drivers/STM32F1xx_HAL_Driver/Src/stm32f1xx_hal_gpio.c ****     __HAL_GPIO_EXTI_CLEAR_IT(GPIO_Pin);
 562:Drivers/STM32F1xx_HAL_Driver/Src/stm32f1xx_hal_gpio.c ****     HAL_GPIO_EXTI_Callback(GPIO_Pin);
 563:Drivers/STM32F1xx_HAL_Driver/Src/stm32f1xx_hal_gpio.c ****   }
 564:Drivers/STM32F1xx_HAL_Driver/Src/stm32f1xx_hal_gpio.c **** }
 565:Drivers/STM32F1xx_HAL_Driver/Src/stm32f1xx_hal_gpio.c **** 
 566:Drivers/STM32F1xx_HAL_Driver/Src/stm32f1xx_hal_gpio.c **** /**
 567:Drivers/STM32F1xx_HAL_Driver/Src/stm32f1xx_hal_gpio.c ****   * @brief  EXTI line detection callbacks.
 568:Drivers/STM32F1xx_HAL_Driver/Src/stm32f1xx_hal_gpio.c ****   * @param  GPIO_Pin: Specifies the pins connected EXTI line
 569:Drivers/STM32F1xx_HAL_Driver/Src/stm32f1xx_hal_gpio.c ****   * @retval None
 570:Drivers/STM32F1xx_HAL_Driver/Src/stm32f1xx_hal_gpio.c ****   */
 571:Drivers/STM32F1xx_HAL_Driver/Src/stm32f1xx_hal_gpio.c **** __weak void HAL_GPIO_EXTI_Callback(uint16_t GPIO_Pin)
 572:Drivers/STM32F1xx_HAL_Driver/Src/stm32f1xx_hal_gpio.c **** {
 945              		.loc 1 572 1 is_stmt 1 view -0
 946              		.cfi_startproc
 947              		@ args = 0, pretend = 0, frame = 0
 948              		@ frame_needed = 0, uses_anonymous_args = 0
 949              		@ link register save eliminated.
 573:Drivers/STM32F1xx_HAL_Driver/Src/stm32f1xx_hal_gpio.c ****   /* Prevent unused argument(s) compilation warning */
 574:Drivers/STM32F1xx_HAL_Driver/Src/stm32f1xx_hal_gpio.c ****   UNUSED(GPIO_Pin);
 950              		.loc 1 574 3 view .LVU257
 575:Drivers/STM32F1xx_HAL_Driver/Src/stm32f1xx_hal_gpio.c ****   /* NOTE: This function Should not be modified, when the callback is needed,
 576:Drivers/STM32F1xx_HAL_Driver/Src/stm32f1xx_hal_gpio.c ****            the HAL_GPIO_EXTI_Callback could be implemented in the user file
 577:Drivers/STM32F1xx_HAL_Driver/Src/stm32f1xx_hal_gpio.c ****    */
 578:Drivers/STM32F1xx_HAL_Driver/Src/stm32f1xx_hal_gpio.c **** }
 951              		.loc 1 578 1 is_stmt 0 view .LVU258
 952 0000 7047     		bx	lr
 953              		.cfi_endproc
 954              	.LFE73:
 956              		.section	.text.HAL_GPIO_EXTI_IRQHandler,"ax",%progbits
 957              		.align	1
 958              		.global	HAL_GPIO_EXTI_IRQHandler
 959              		.syntax unified
 960              		.thumb
 961              		.thumb_func
 962              		.fpu softvfp
 964              	HAL_GPIO_EXTI_IRQHandler:
 965              	.LVL82:
 966              	.LFB72:
 557:Drivers/STM32F1xx_HAL_Driver/Src/stm32f1xx_hal_gpio.c ****   /* EXTI line interrupt detected */
 967              		.loc 1 557 1 is_stmt 1 view -0
 968              		.cfi_startproc
 969              		@ args = 0, pretend = 0, frame = 0
 970              		@ frame_needed = 0, uses_anonymous_args = 0
 557:Drivers/STM32F1xx_HAL_Driver/Src/stm32f1xx_hal_gpio.c ****   /* EXTI line interrupt detected */
 971              		.loc 1 557 1 is_stmt 0 view .LVU260
 972 0000 08B5     		push	{r3, lr}
 973              	.LCFI11:
 974              		.cfi_def_cfa_offset 8
 975              		.cfi_offset 3, -8
 976              		.cfi_offset 14, -4
 559:Drivers/STM32F1xx_HAL_Driver/Src/stm32f1xx_hal_gpio.c ****   {
 977              		.loc 1 559 3 is_stmt 1 view .LVU261
 559:Drivers/STM32F1xx_HAL_Driver/Src/stm32f1xx_hal_gpio.c ****   {
ARM GAS  /tmp/ccIT72v0.s 			page 30


 978              		.loc 1 559 6 is_stmt 0 view .LVU262
 979 0002 054B     		ldr	r3, .L88
 980 0004 5B69     		ldr	r3, [r3, #20]
 559:Drivers/STM32F1xx_HAL_Driver/Src/stm32f1xx_hal_gpio.c ****   {
 981              		.loc 1 559 5 view .LVU263
 982 0006 0342     		tst	r3, r0
 983 0008 00D1     		bne	.L87
 984              	.LVL83:
 985              	.L84:
 564:Drivers/STM32F1xx_HAL_Driver/Src/stm32f1xx_hal_gpio.c **** 
 986              		.loc 1 564 1 view .LVU264
 987 000a 08BD     		pop	{r3, pc}
 988              	.LVL84:
 989              	.L87:
 561:Drivers/STM32F1xx_HAL_Driver/Src/stm32f1xx_hal_gpio.c ****     HAL_GPIO_EXTI_Callback(GPIO_Pin);
 990              		.loc 1 561 5 is_stmt 1 view .LVU265
 991 000c 024B     		ldr	r3, .L88
 992 000e 5861     		str	r0, [r3, #20]
 562:Drivers/STM32F1xx_HAL_Driver/Src/stm32f1xx_hal_gpio.c ****   }
 993              		.loc 1 562 5 view .LVU266
 994 0010 FFF7FEFF 		bl	HAL_GPIO_EXTI_Callback
 995              	.LVL85:
 564:Drivers/STM32F1xx_HAL_Driver/Src/stm32f1xx_hal_gpio.c **** 
 996              		.loc 1 564 1 is_stmt 0 view .LVU267
 997 0014 F9E7     		b	.L84
 998              	.L89:
 999 0016 00BF     		.align	2
 1000              	.L88:
 1001 0018 00040140 		.word	1073808384
 1002              		.cfi_endproc
 1003              	.LFE72:
 1005              		.text
 1006              	.Letext0:
 1007              		.file 2 "/usr/lib/gcc/arm-none-eabi/9.2.1/include/stdint.h"
 1008              		.file 3 "Drivers/CMSIS/Include/core_cm3.h"
 1009              		.file 4 "Drivers/CMSIS/Device/ST/STM32F1xx/Include/system_stm32f1xx.h"
 1010              		.file 5 "Drivers/CMSIS/Device/ST/STM32F1xx/Include/stm32f103xe.h"
 1011              		.file 6 "/usr/lib/gcc/arm-none-eabi/9.2.1/include/stddef.h"
 1012              		.file 7 "/usr/include/newlib/sys/_types.h"
 1013              		.file 8 "/usr/include/newlib/sys/reent.h"
 1014              		.file 9 "/usr/include/newlib/sys/lock.h"
 1015              		.file 10 "Drivers/CMSIS/Device/ST/STM32F1xx/Include/stm32f1xx.h"
 1016              		.file 11 "Drivers/STM32F1xx_HAL_Driver/Inc/stm32f1xx_hal_def.h"
 1017              		.file 12 "Drivers/STM32F1xx_HAL_Driver/Inc/stm32f1xx_hal_gpio.h"
ARM GAS  /tmp/ccIT72v0.s 			page 31

