ARM GAS  /tmp/cc6gSbL8.s 			page 1


   1              		.cpu cortex-m3
   2              		.eabi_attribute 20, 1
   3              		.eabi_attribute 21, 1
   4              		.eabi_attribute 23, 3
   5              		.eabi_attribute 24, 1
   6              		.eabi_attribute 25, 1
   7              		.eabi_attribute 26, 1
   8              		.eabi_attribute 30, 1
   9              		.eabi_attribute 34, 1
  10              		.eabi_attribute 18, 4
  11              		.file	"stm32f1xx_hal_adc_ex.c"
  12              		.text
  13              	.Ltext0:
  14              		.cfi_sections	.debug_frame
  15              		.section	.text.HAL_ADCEx_Calibration_Start,"ax",%progbits
  16              		.align	1
  17              		.global	HAL_ADCEx_Calibration_Start
  18              		.arch armv7-m
  19              		.syntax unified
  20              		.thumb
  21              		.thumb_func
  22              		.fpu softvfp
  24              	HAL_ADCEx_Calibration_Start:
  25              	.LVL0:
  26              	.LFB66:
  27              		.file 1 "Drivers/STM32F1xx_HAL_Driver/Src/stm32f1xx_hal_adc_ex.c"
   1:Drivers/STM32F1xx_HAL_Driver/Src/stm32f1xx_hal_adc_ex.c **** /**
   2:Drivers/STM32F1xx_HAL_Driver/Src/stm32f1xx_hal_adc_ex.c ****   ******************************************************************************
   3:Drivers/STM32F1xx_HAL_Driver/Src/stm32f1xx_hal_adc_ex.c ****   * @file    stm32f1xx_hal_adc_ex.c
   4:Drivers/STM32F1xx_HAL_Driver/Src/stm32f1xx_hal_adc_ex.c ****   * @author  MCD Application Team
   5:Drivers/STM32F1xx_HAL_Driver/Src/stm32f1xx_hal_adc_ex.c ****   * @version V1.1.1
   6:Drivers/STM32F1xx_HAL_Driver/Src/stm32f1xx_hal_adc_ex.c ****   * @date    12-May-2017
   7:Drivers/STM32F1xx_HAL_Driver/Src/stm32f1xx_hal_adc_ex.c ****   * @brief   This file provides firmware functions to manage the following 
   8:Drivers/STM32F1xx_HAL_Driver/Src/stm32f1xx_hal_adc_ex.c ****   *          functionalities of the Analog to Digital Convertor (ADC)
   9:Drivers/STM32F1xx_HAL_Driver/Src/stm32f1xx_hal_adc_ex.c ****   *          peripheral:
  10:Drivers/STM32F1xx_HAL_Driver/Src/stm32f1xx_hal_adc_ex.c ****   *           + Operation functions
  11:Drivers/STM32F1xx_HAL_Driver/Src/stm32f1xx_hal_adc_ex.c ****   *             ++ Start, stop, get result of conversions of injected
  12:Drivers/STM32F1xx_HAL_Driver/Src/stm32f1xx_hal_adc_ex.c ****   *                group, using 2 possible modes: polling, interruption.
  13:Drivers/STM32F1xx_HAL_Driver/Src/stm32f1xx_hal_adc_ex.c ****   *             ++ Multimode feature (available on devices with 2 ADCs or more)
  14:Drivers/STM32F1xx_HAL_Driver/Src/stm32f1xx_hal_adc_ex.c ****   *             ++ Calibration (ADC automatic self-calibration)
  15:Drivers/STM32F1xx_HAL_Driver/Src/stm32f1xx_hal_adc_ex.c ****   *           + Control functions
  16:Drivers/STM32F1xx_HAL_Driver/Src/stm32f1xx_hal_adc_ex.c ****   *             ++ Channels configuration on injected group
  17:Drivers/STM32F1xx_HAL_Driver/Src/stm32f1xx_hal_adc_ex.c ****   *          Other functions (generic functions) are available in file 
  18:Drivers/STM32F1xx_HAL_Driver/Src/stm32f1xx_hal_adc_ex.c ****   *          "stm32f1xx_hal_adc.c".
  19:Drivers/STM32F1xx_HAL_Driver/Src/stm32f1xx_hal_adc_ex.c ****   *
  20:Drivers/STM32F1xx_HAL_Driver/Src/stm32f1xx_hal_adc_ex.c ****   @verbatim
  21:Drivers/STM32F1xx_HAL_Driver/Src/stm32f1xx_hal_adc_ex.c ****   [..] 
  22:Drivers/STM32F1xx_HAL_Driver/Src/stm32f1xx_hal_adc_ex.c ****   (@) Sections "ADC peripheral features" and "How to use this driver" are
  23:Drivers/STM32F1xx_HAL_Driver/Src/stm32f1xx_hal_adc_ex.c ****       available in file of generic functions "stm32f1xx_hal_adc.c".
  24:Drivers/STM32F1xx_HAL_Driver/Src/stm32f1xx_hal_adc_ex.c ****   [..]
  25:Drivers/STM32F1xx_HAL_Driver/Src/stm32f1xx_hal_adc_ex.c ****   @endverbatim
  26:Drivers/STM32F1xx_HAL_Driver/Src/stm32f1xx_hal_adc_ex.c ****   ******************************************************************************
  27:Drivers/STM32F1xx_HAL_Driver/Src/stm32f1xx_hal_adc_ex.c ****   * @attention
  28:Drivers/STM32F1xx_HAL_Driver/Src/stm32f1xx_hal_adc_ex.c ****   *
  29:Drivers/STM32F1xx_HAL_Driver/Src/stm32f1xx_hal_adc_ex.c ****   * <h2><center>&copy; COPYRIGHT(c) 2016 STMicroelectronics</center></h2>
  30:Drivers/STM32F1xx_HAL_Driver/Src/stm32f1xx_hal_adc_ex.c ****   *
  31:Drivers/STM32F1xx_HAL_Driver/Src/stm32f1xx_hal_adc_ex.c ****   * Redistribution and use in source and binary forms, with or without modification,
ARM GAS  /tmp/cc6gSbL8.s 			page 2


  32:Drivers/STM32F1xx_HAL_Driver/Src/stm32f1xx_hal_adc_ex.c ****   * are permitted provided that the following conditions are met:
  33:Drivers/STM32F1xx_HAL_Driver/Src/stm32f1xx_hal_adc_ex.c ****   *   1. Redistributions of source code must retain the above copyright notice,
  34:Drivers/STM32F1xx_HAL_Driver/Src/stm32f1xx_hal_adc_ex.c ****   *      this list of conditions and the following disclaimer.
  35:Drivers/STM32F1xx_HAL_Driver/Src/stm32f1xx_hal_adc_ex.c ****   *   2. Redistributions in binary form must reproduce the above copyright notice,
  36:Drivers/STM32F1xx_HAL_Driver/Src/stm32f1xx_hal_adc_ex.c ****   *      this list of conditions and the following disclaimer in the documentation
  37:Drivers/STM32F1xx_HAL_Driver/Src/stm32f1xx_hal_adc_ex.c ****   *      and/or other materials provided with the distribution.
  38:Drivers/STM32F1xx_HAL_Driver/Src/stm32f1xx_hal_adc_ex.c ****   *   3. Neither the name of STMicroelectronics nor the names of its contributors
  39:Drivers/STM32F1xx_HAL_Driver/Src/stm32f1xx_hal_adc_ex.c ****   *      may be used to endorse or promote products derived from this software
  40:Drivers/STM32F1xx_HAL_Driver/Src/stm32f1xx_hal_adc_ex.c ****   *      without specific prior written permission.
  41:Drivers/STM32F1xx_HAL_Driver/Src/stm32f1xx_hal_adc_ex.c ****   *
  42:Drivers/STM32F1xx_HAL_Driver/Src/stm32f1xx_hal_adc_ex.c ****   * THIS SOFTWARE IS PROVIDED BY THE COPYRIGHT HOLDERS AND CONTRIBUTORS "AS IS"
  43:Drivers/STM32F1xx_HAL_Driver/Src/stm32f1xx_hal_adc_ex.c ****   * AND ANY EXPRESS OR IMPLIED WARRANTIES, INCLUDING, BUT NOT LIMITED TO, THE
  44:Drivers/STM32F1xx_HAL_Driver/Src/stm32f1xx_hal_adc_ex.c ****   * IMPLIED WARRANTIES OF MERCHANTABILITY AND FITNESS FOR A PARTICULAR PURPOSE ARE
  45:Drivers/STM32F1xx_HAL_Driver/Src/stm32f1xx_hal_adc_ex.c ****   * DISCLAIMED. IN NO EVENT SHALL THE COPYRIGHT HOLDER OR CONTRIBUTORS BE LIABLE
  46:Drivers/STM32F1xx_HAL_Driver/Src/stm32f1xx_hal_adc_ex.c ****   * FOR ANY DIRECT, INDIRECT, INCIDENTAL, SPECIAL, EXEMPLARY, OR CONSEQUENTIAL
  47:Drivers/STM32F1xx_HAL_Driver/Src/stm32f1xx_hal_adc_ex.c ****   * DAMAGES (INCLUDING, BUT NOT LIMITED TO, PROCUREMENT OF SUBSTITUTE GOODS OR
  48:Drivers/STM32F1xx_HAL_Driver/Src/stm32f1xx_hal_adc_ex.c ****   * SERVICES; LOSS OF USE, DATA, OR PROFITS; OR BUSINESS INTERRUPTION) HOWEVER
  49:Drivers/STM32F1xx_HAL_Driver/Src/stm32f1xx_hal_adc_ex.c ****   * CAUSED AND ON ANY THEORY OF LIABILITY, WHETHER IN CONTRACT, STRICT LIABILITY,
  50:Drivers/STM32F1xx_HAL_Driver/Src/stm32f1xx_hal_adc_ex.c ****   * OR TORT (INCLUDING NEGLIGENCE OR OTHERWISE) ARISING IN ANY WAY OUT OF THE USE
  51:Drivers/STM32F1xx_HAL_Driver/Src/stm32f1xx_hal_adc_ex.c ****   * OF THIS SOFTWARE, EVEN IF ADVISED OF THE POSSIBILITY OF SUCH DAMAGE.
  52:Drivers/STM32F1xx_HAL_Driver/Src/stm32f1xx_hal_adc_ex.c ****   *
  53:Drivers/STM32F1xx_HAL_Driver/Src/stm32f1xx_hal_adc_ex.c ****   ******************************************************************************  
  54:Drivers/STM32F1xx_HAL_Driver/Src/stm32f1xx_hal_adc_ex.c ****   */
  55:Drivers/STM32F1xx_HAL_Driver/Src/stm32f1xx_hal_adc_ex.c **** 
  56:Drivers/STM32F1xx_HAL_Driver/Src/stm32f1xx_hal_adc_ex.c **** /* Includes ------------------------------------------------------------------*/
  57:Drivers/STM32F1xx_HAL_Driver/Src/stm32f1xx_hal_adc_ex.c **** #include "stm32f1xx_hal.h"
  58:Drivers/STM32F1xx_HAL_Driver/Src/stm32f1xx_hal_adc_ex.c **** 
  59:Drivers/STM32F1xx_HAL_Driver/Src/stm32f1xx_hal_adc_ex.c **** /** @addtogroup STM32F1xx_HAL_Driver
  60:Drivers/STM32F1xx_HAL_Driver/Src/stm32f1xx_hal_adc_ex.c ****   * @{
  61:Drivers/STM32F1xx_HAL_Driver/Src/stm32f1xx_hal_adc_ex.c ****   */
  62:Drivers/STM32F1xx_HAL_Driver/Src/stm32f1xx_hal_adc_ex.c **** 
  63:Drivers/STM32F1xx_HAL_Driver/Src/stm32f1xx_hal_adc_ex.c **** /** @defgroup ADCEx ADCEx
  64:Drivers/STM32F1xx_HAL_Driver/Src/stm32f1xx_hal_adc_ex.c ****   * @brief ADC Extension HAL module driver
  65:Drivers/STM32F1xx_HAL_Driver/Src/stm32f1xx_hal_adc_ex.c ****   * @{
  66:Drivers/STM32F1xx_HAL_Driver/Src/stm32f1xx_hal_adc_ex.c ****   */
  67:Drivers/STM32F1xx_HAL_Driver/Src/stm32f1xx_hal_adc_ex.c **** 
  68:Drivers/STM32F1xx_HAL_Driver/Src/stm32f1xx_hal_adc_ex.c **** #ifdef HAL_ADC_MODULE_ENABLED
  69:Drivers/STM32F1xx_HAL_Driver/Src/stm32f1xx_hal_adc_ex.c **** 
  70:Drivers/STM32F1xx_HAL_Driver/Src/stm32f1xx_hal_adc_ex.c **** /* Private typedef -----------------------------------------------------------*/
  71:Drivers/STM32F1xx_HAL_Driver/Src/stm32f1xx_hal_adc_ex.c **** /* Private define ------------------------------------------------------------*/
  72:Drivers/STM32F1xx_HAL_Driver/Src/stm32f1xx_hal_adc_ex.c **** /** @defgroup ADCEx_Private_Constants ADCEx Private Constants
  73:Drivers/STM32F1xx_HAL_Driver/Src/stm32f1xx_hal_adc_ex.c ****   * @{
  74:Drivers/STM32F1xx_HAL_Driver/Src/stm32f1xx_hal_adc_ex.c ****   */
  75:Drivers/STM32F1xx_HAL_Driver/Src/stm32f1xx_hal_adc_ex.c **** 
  76:Drivers/STM32F1xx_HAL_Driver/Src/stm32f1xx_hal_adc_ex.c ****   /* Delay for ADC calibration:                                               */
  77:Drivers/STM32F1xx_HAL_Driver/Src/stm32f1xx_hal_adc_ex.c ****   /* Hardware prerequisite before starting a calibration: the ADC must have   */
  78:Drivers/STM32F1xx_HAL_Driver/Src/stm32f1xx_hal_adc_ex.c ****   /* been in power-on state for at least two ADC clock cycles.                */
  79:Drivers/STM32F1xx_HAL_Driver/Src/stm32f1xx_hal_adc_ex.c ****   /* Unit: ADC clock cycles                                                   */
  80:Drivers/STM32F1xx_HAL_Driver/Src/stm32f1xx_hal_adc_ex.c ****   #define ADC_PRECALIBRATION_DELAY_ADCCLOCKCYCLES       2U
  81:Drivers/STM32F1xx_HAL_Driver/Src/stm32f1xx_hal_adc_ex.c **** 
  82:Drivers/STM32F1xx_HAL_Driver/Src/stm32f1xx_hal_adc_ex.c ****   /* Timeout value for ADC calibration                                        */
  83:Drivers/STM32F1xx_HAL_Driver/Src/stm32f1xx_hal_adc_ex.c ****   /* Value defined to be higher than worst cases: low clocks freq,            */
  84:Drivers/STM32F1xx_HAL_Driver/Src/stm32f1xx_hal_adc_ex.c ****   /* maximum prescaler.                                                       */
  85:Drivers/STM32F1xx_HAL_Driver/Src/stm32f1xx_hal_adc_ex.c ****   /* Ex of profile low frequency : Clock source at 0.1 MHz, ADC clock         */
  86:Drivers/STM32F1xx_HAL_Driver/Src/stm32f1xx_hal_adc_ex.c ****   /* prescaler 4, sampling time 12.5 ADC clock cycles, resolution 12 bits.    */
  87:Drivers/STM32F1xx_HAL_Driver/Src/stm32f1xx_hal_adc_ex.c ****   /* Unit: ms                                                                 */
  88:Drivers/STM32F1xx_HAL_Driver/Src/stm32f1xx_hal_adc_ex.c ****   #define ADC_CALIBRATION_TIMEOUT          10U
ARM GAS  /tmp/cc6gSbL8.s 			page 3


  89:Drivers/STM32F1xx_HAL_Driver/Src/stm32f1xx_hal_adc_ex.c **** 
  90:Drivers/STM32F1xx_HAL_Driver/Src/stm32f1xx_hal_adc_ex.c ****   /* Delay for temperature sensor stabilization time.                         */
  91:Drivers/STM32F1xx_HAL_Driver/Src/stm32f1xx_hal_adc_ex.c ****   /* Maximum delay is 10us (refer to device datasheet, parameter tSTART).     */
  92:Drivers/STM32F1xx_HAL_Driver/Src/stm32f1xx_hal_adc_ex.c ****   /* Unit: us                                                                 */
  93:Drivers/STM32F1xx_HAL_Driver/Src/stm32f1xx_hal_adc_ex.c ****   #define ADC_TEMPSENSOR_DELAY_US         10U
  94:Drivers/STM32F1xx_HAL_Driver/Src/stm32f1xx_hal_adc_ex.c **** 
  95:Drivers/STM32F1xx_HAL_Driver/Src/stm32f1xx_hal_adc_ex.c **** /**
  96:Drivers/STM32F1xx_HAL_Driver/Src/stm32f1xx_hal_adc_ex.c ****   * @}
  97:Drivers/STM32F1xx_HAL_Driver/Src/stm32f1xx_hal_adc_ex.c ****   */
  98:Drivers/STM32F1xx_HAL_Driver/Src/stm32f1xx_hal_adc_ex.c **** 
  99:Drivers/STM32F1xx_HAL_Driver/Src/stm32f1xx_hal_adc_ex.c **** /* Private macro -------------------------------------------------------------*/
 100:Drivers/STM32F1xx_HAL_Driver/Src/stm32f1xx_hal_adc_ex.c **** /* Private variables ---------------------------------------------------------*/
 101:Drivers/STM32F1xx_HAL_Driver/Src/stm32f1xx_hal_adc_ex.c **** /* Private function prototypes -----------------------------------------------*/
 102:Drivers/STM32F1xx_HAL_Driver/Src/stm32f1xx_hal_adc_ex.c **** /* Private functions ---------------------------------------------------------*/
 103:Drivers/STM32F1xx_HAL_Driver/Src/stm32f1xx_hal_adc_ex.c **** 
 104:Drivers/STM32F1xx_HAL_Driver/Src/stm32f1xx_hal_adc_ex.c **** /** @defgroup ADCEx_Exported_Functions ADCEx Exported Functions
 105:Drivers/STM32F1xx_HAL_Driver/Src/stm32f1xx_hal_adc_ex.c ****   * @{
 106:Drivers/STM32F1xx_HAL_Driver/Src/stm32f1xx_hal_adc_ex.c ****   */
 107:Drivers/STM32F1xx_HAL_Driver/Src/stm32f1xx_hal_adc_ex.c **** 
 108:Drivers/STM32F1xx_HAL_Driver/Src/stm32f1xx_hal_adc_ex.c **** /** @defgroup ADCEx_Exported_Functions_Group1 Extended Extended IO operation functions
 109:Drivers/STM32F1xx_HAL_Driver/Src/stm32f1xx_hal_adc_ex.c ****  *  @brief    Extended Extended Input and Output operation functions
 110:Drivers/STM32F1xx_HAL_Driver/Src/stm32f1xx_hal_adc_ex.c ****  *
 111:Drivers/STM32F1xx_HAL_Driver/Src/stm32f1xx_hal_adc_ex.c **** @verbatim    
 112:Drivers/STM32F1xx_HAL_Driver/Src/stm32f1xx_hal_adc_ex.c ****  ===============================================================================
 113:Drivers/STM32F1xx_HAL_Driver/Src/stm32f1xx_hal_adc_ex.c ****                       ##### IO operation functions #####
 114:Drivers/STM32F1xx_HAL_Driver/Src/stm32f1xx_hal_adc_ex.c ****  ===============================================================================
 115:Drivers/STM32F1xx_HAL_Driver/Src/stm32f1xx_hal_adc_ex.c ****     [..]  This section provides functions allowing to:
 116:Drivers/STM32F1xx_HAL_Driver/Src/stm32f1xx_hal_adc_ex.c ****       (+) Start conversion of injected group.
 117:Drivers/STM32F1xx_HAL_Driver/Src/stm32f1xx_hal_adc_ex.c ****       (+) Stop conversion of injected group.
 118:Drivers/STM32F1xx_HAL_Driver/Src/stm32f1xx_hal_adc_ex.c ****       (+) Poll for conversion complete on injected group.
 119:Drivers/STM32F1xx_HAL_Driver/Src/stm32f1xx_hal_adc_ex.c ****       (+) Get result of injected channel conversion.
 120:Drivers/STM32F1xx_HAL_Driver/Src/stm32f1xx_hal_adc_ex.c ****       (+) Start conversion of injected group and enable interruptions.
 121:Drivers/STM32F1xx_HAL_Driver/Src/stm32f1xx_hal_adc_ex.c ****       (+) Stop conversion of injected group and disable interruptions.
 122:Drivers/STM32F1xx_HAL_Driver/Src/stm32f1xx_hal_adc_ex.c **** 
 123:Drivers/STM32F1xx_HAL_Driver/Src/stm32f1xx_hal_adc_ex.c ****       (+) Start multimode and enable DMA transfer.
 124:Drivers/STM32F1xx_HAL_Driver/Src/stm32f1xx_hal_adc_ex.c ****       (+) Stop multimode and disable ADC DMA transfer.
 125:Drivers/STM32F1xx_HAL_Driver/Src/stm32f1xx_hal_adc_ex.c ****       (+) Get result of multimode conversion.
 126:Drivers/STM32F1xx_HAL_Driver/Src/stm32f1xx_hal_adc_ex.c **** 
 127:Drivers/STM32F1xx_HAL_Driver/Src/stm32f1xx_hal_adc_ex.c ****       (+) Perform the ADC self-calibration for single or differential ending.
 128:Drivers/STM32F1xx_HAL_Driver/Src/stm32f1xx_hal_adc_ex.c ****       (+) Get calibration factors for single or differential ending.
 129:Drivers/STM32F1xx_HAL_Driver/Src/stm32f1xx_hal_adc_ex.c ****       (+) Set calibration factors for single or differential ending.
 130:Drivers/STM32F1xx_HAL_Driver/Src/stm32f1xx_hal_adc_ex.c ****       
 131:Drivers/STM32F1xx_HAL_Driver/Src/stm32f1xx_hal_adc_ex.c **** @endverbatim
 132:Drivers/STM32F1xx_HAL_Driver/Src/stm32f1xx_hal_adc_ex.c ****   * @{
 133:Drivers/STM32F1xx_HAL_Driver/Src/stm32f1xx_hal_adc_ex.c ****   */
 134:Drivers/STM32F1xx_HAL_Driver/Src/stm32f1xx_hal_adc_ex.c **** 
 135:Drivers/STM32F1xx_HAL_Driver/Src/stm32f1xx_hal_adc_ex.c **** /**
 136:Drivers/STM32F1xx_HAL_Driver/Src/stm32f1xx_hal_adc_ex.c ****   * @brief  Perform an ADC automatic self-calibration
 137:Drivers/STM32F1xx_HAL_Driver/Src/stm32f1xx_hal_adc_ex.c ****   *         Calibration prerequisite: ADC must be disabled (execute this
 138:Drivers/STM32F1xx_HAL_Driver/Src/stm32f1xx_hal_adc_ex.c ****   *         function before HAL_ADC_Start() or after HAL_ADC_Stop() ).
 139:Drivers/STM32F1xx_HAL_Driver/Src/stm32f1xx_hal_adc_ex.c ****   *         During calibration process, ADC is enabled. ADC is let enabled at
 140:Drivers/STM32F1xx_HAL_Driver/Src/stm32f1xx_hal_adc_ex.c ****   *         the completion of this function.
 141:Drivers/STM32F1xx_HAL_Driver/Src/stm32f1xx_hal_adc_ex.c ****   * @param  hadc: ADC handle
 142:Drivers/STM32F1xx_HAL_Driver/Src/stm32f1xx_hal_adc_ex.c ****   * @retval HAL status
 143:Drivers/STM32F1xx_HAL_Driver/Src/stm32f1xx_hal_adc_ex.c ****   */
 144:Drivers/STM32F1xx_HAL_Driver/Src/stm32f1xx_hal_adc_ex.c **** HAL_StatusTypeDef HAL_ADCEx_Calibration_Start(ADC_HandleTypeDef* hadc)
 145:Drivers/STM32F1xx_HAL_Driver/Src/stm32f1xx_hal_adc_ex.c **** {
ARM GAS  /tmp/cc6gSbL8.s 			page 4


  28              		.loc 1 145 1 view -0
  29              		.cfi_startproc
  30              		@ args = 0, pretend = 0, frame = 8
  31              		@ frame_needed = 0, uses_anonymous_args = 0
  32              		.loc 1 145 1 is_stmt 0 view .LVU1
  33 0000 70B5     		push	{r4, r5, r6, lr}
  34              	.LCFI0:
  35              		.cfi_def_cfa_offset 16
  36              		.cfi_offset 4, -16
  37              		.cfi_offset 5, -12
  38              		.cfi_offset 6, -8
  39              		.cfi_offset 14, -4
  40 0002 82B0     		sub	sp, sp, #8
  41              	.LCFI1:
  42              		.cfi_def_cfa_offset 24
 146:Drivers/STM32F1xx_HAL_Driver/Src/stm32f1xx_hal_adc_ex.c ****   HAL_StatusTypeDef tmp_hal_status = HAL_OK;
  43              		.loc 1 146 3 is_stmt 1 view .LVU2
  44              	.LVL1:
 147:Drivers/STM32F1xx_HAL_Driver/Src/stm32f1xx_hal_adc_ex.c ****   uint32_t tickstart;
  45              		.loc 1 147 3 view .LVU3
 148:Drivers/STM32F1xx_HAL_Driver/Src/stm32f1xx_hal_adc_ex.c ****   __IO uint32_t wait_loop_index = 0U;
  46              		.loc 1 148 3 view .LVU4
  47              		.loc 1 148 17 is_stmt 0 view .LVU5
  48 0004 0023     		movs	r3, #0
  49 0006 0193     		str	r3, [sp, #4]
 149:Drivers/STM32F1xx_HAL_Driver/Src/stm32f1xx_hal_adc_ex.c ****   
 150:Drivers/STM32F1xx_HAL_Driver/Src/stm32f1xx_hal_adc_ex.c ****   /* Check the parameters */
 151:Drivers/STM32F1xx_HAL_Driver/Src/stm32f1xx_hal_adc_ex.c ****   assert_param(IS_ADC_ALL_INSTANCE(hadc->Instance));
  50              		.loc 1 151 3 is_stmt 1 view .LVU6
 152:Drivers/STM32F1xx_HAL_Driver/Src/stm32f1xx_hal_adc_ex.c **** 
 153:Drivers/STM32F1xx_HAL_Driver/Src/stm32f1xx_hal_adc_ex.c ****   /* Process locked */
 154:Drivers/STM32F1xx_HAL_Driver/Src/stm32f1xx_hal_adc_ex.c ****   __HAL_LOCK(hadc);
  51              		.loc 1 154 3 view .LVU7
  52              		.loc 1 154 3 view .LVU8
  53 0008 90F82430 		ldrb	r3, [r0, #36]	@ zero_extendqisi2
  54 000c 012B     		cmp	r3, #1
  55 000e 67D0     		beq	.L10
  56 0010 0446     		mov	r4, r0
  57              		.loc 1 154 3 discriminator 2 view .LVU9
  58 0012 0123     		movs	r3, #1
  59 0014 80F82430 		strb	r3, [r0, #36]
  60              		.loc 1 154 3 discriminator 2 view .LVU10
 155:Drivers/STM32F1xx_HAL_Driver/Src/stm32f1xx_hal_adc_ex.c ****     
 156:Drivers/STM32F1xx_HAL_Driver/Src/stm32f1xx_hal_adc_ex.c ****   /* 1. Calibration prerequisite:                                             */
 157:Drivers/STM32F1xx_HAL_Driver/Src/stm32f1xx_hal_adc_ex.c ****   /*    - ADC must be disabled for at least two ADC clock cycles in disable   */
 158:Drivers/STM32F1xx_HAL_Driver/Src/stm32f1xx_hal_adc_ex.c ****   /*      mode before ADC enable                                              */
 159:Drivers/STM32F1xx_HAL_Driver/Src/stm32f1xx_hal_adc_ex.c ****   /* Stop potential conversion on going, on regular and injected groups       */
 160:Drivers/STM32F1xx_HAL_Driver/Src/stm32f1xx_hal_adc_ex.c ****   /* Disable ADC peripheral */
 161:Drivers/STM32F1xx_HAL_Driver/Src/stm32f1xx_hal_adc_ex.c ****   tmp_hal_status = ADC_ConversionStop_Disable(hadc);
  61              		.loc 1 161 3 discriminator 2 view .LVU11
  62              		.loc 1 161 20 is_stmt 0 discriminator 2 view .LVU12
  63 0018 FFF7FEFF 		bl	ADC_ConversionStop_Disable
  64              	.LVL2:
 162:Drivers/STM32F1xx_HAL_Driver/Src/stm32f1xx_hal_adc_ex.c ****   
 163:Drivers/STM32F1xx_HAL_Driver/Src/stm32f1xx_hal_adc_ex.c ****   /* Check if ADC is effectively disabled */
 164:Drivers/STM32F1xx_HAL_Driver/Src/stm32f1xx_hal_adc_ex.c ****   if (tmp_hal_status == HAL_OK)
  65              		.loc 1 164 3 is_stmt 1 discriminator 2 view .LVU13
ARM GAS  /tmp/cc6gSbL8.s 			page 5


  66              		.loc 1 164 6 is_stmt 0 discriminator 2 view .LVU14
  67 001c 0546     		mov	r5, r0
  68 001e 28B1     		cbz	r0, .L12
  69              	.LVL3:
  70              	.L3:
 165:Drivers/STM32F1xx_HAL_Driver/Src/stm32f1xx_hal_adc_ex.c ****   {
 166:Drivers/STM32F1xx_HAL_Driver/Src/stm32f1xx_hal_adc_ex.c ****     /* Set ADC state */
 167:Drivers/STM32F1xx_HAL_Driver/Src/stm32f1xx_hal_adc_ex.c ****     ADC_STATE_CLR_SET(hadc->State,
 168:Drivers/STM32F1xx_HAL_Driver/Src/stm32f1xx_hal_adc_ex.c ****                       HAL_ADC_STATE_REG_BUSY | HAL_ADC_STATE_INJ_BUSY,
 169:Drivers/STM32F1xx_HAL_Driver/Src/stm32f1xx_hal_adc_ex.c ****                       HAL_ADC_STATE_BUSY_INTERNAL);
 170:Drivers/STM32F1xx_HAL_Driver/Src/stm32f1xx_hal_adc_ex.c ****     
 171:Drivers/STM32F1xx_HAL_Driver/Src/stm32f1xx_hal_adc_ex.c ****     /* Hardware prerequisite: delay before starting the calibration.          */
 172:Drivers/STM32F1xx_HAL_Driver/Src/stm32f1xx_hal_adc_ex.c ****     /*  - Computation of CPU clock cycles corresponding to ADC clock cycles.  */
 173:Drivers/STM32F1xx_HAL_Driver/Src/stm32f1xx_hal_adc_ex.c ****     /*  - Wait for the expected ADC clock cycles delay */
 174:Drivers/STM32F1xx_HAL_Driver/Src/stm32f1xx_hal_adc_ex.c ****     wait_loop_index = ((SystemCoreClock
 175:Drivers/STM32F1xx_HAL_Driver/Src/stm32f1xx_hal_adc_ex.c ****                         / HAL_RCCEx_GetPeriphCLKFreq(RCC_PERIPHCLK_ADC))
 176:Drivers/STM32F1xx_HAL_Driver/Src/stm32f1xx_hal_adc_ex.c ****                        * ADC_PRECALIBRATION_DELAY_ADCCLOCKCYCLES        );
 177:Drivers/STM32F1xx_HAL_Driver/Src/stm32f1xx_hal_adc_ex.c **** 
 178:Drivers/STM32F1xx_HAL_Driver/Src/stm32f1xx_hal_adc_ex.c ****     while(wait_loop_index != 0U)
 179:Drivers/STM32F1xx_HAL_Driver/Src/stm32f1xx_hal_adc_ex.c ****     {
 180:Drivers/STM32F1xx_HAL_Driver/Src/stm32f1xx_hal_adc_ex.c ****       wait_loop_index--;
 181:Drivers/STM32F1xx_HAL_Driver/Src/stm32f1xx_hal_adc_ex.c ****     }
 182:Drivers/STM32F1xx_HAL_Driver/Src/stm32f1xx_hal_adc_ex.c ****     
 183:Drivers/STM32F1xx_HAL_Driver/Src/stm32f1xx_hal_adc_ex.c ****     /* 2. Enable the ADC peripheral */
 184:Drivers/STM32F1xx_HAL_Driver/Src/stm32f1xx_hal_adc_ex.c ****     ADC_Enable(hadc);
 185:Drivers/STM32F1xx_HAL_Driver/Src/stm32f1xx_hal_adc_ex.c ****     
 186:Drivers/STM32F1xx_HAL_Driver/Src/stm32f1xx_hal_adc_ex.c ****     /* 3. Resets ADC calibration registers */  
 187:Drivers/STM32F1xx_HAL_Driver/Src/stm32f1xx_hal_adc_ex.c ****     SET_BIT(hadc->Instance->CR2, ADC_CR2_RSTCAL);
 188:Drivers/STM32F1xx_HAL_Driver/Src/stm32f1xx_hal_adc_ex.c ****     
 189:Drivers/STM32F1xx_HAL_Driver/Src/stm32f1xx_hal_adc_ex.c ****     tickstart = HAL_GetTick();  
 190:Drivers/STM32F1xx_HAL_Driver/Src/stm32f1xx_hal_adc_ex.c **** 
 191:Drivers/STM32F1xx_HAL_Driver/Src/stm32f1xx_hal_adc_ex.c ****     /* Wait for calibration reset completion */
 192:Drivers/STM32F1xx_HAL_Driver/Src/stm32f1xx_hal_adc_ex.c ****     while(HAL_IS_BIT_SET(hadc->Instance->CR2, ADC_CR2_RSTCAL))
 193:Drivers/STM32F1xx_HAL_Driver/Src/stm32f1xx_hal_adc_ex.c ****     {
 194:Drivers/STM32F1xx_HAL_Driver/Src/stm32f1xx_hal_adc_ex.c ****       if((HAL_GetTick() - tickstart) > ADC_CALIBRATION_TIMEOUT)
 195:Drivers/STM32F1xx_HAL_Driver/Src/stm32f1xx_hal_adc_ex.c ****       {
 196:Drivers/STM32F1xx_HAL_Driver/Src/stm32f1xx_hal_adc_ex.c ****         /* Update ADC state machine to error */
 197:Drivers/STM32F1xx_HAL_Driver/Src/stm32f1xx_hal_adc_ex.c ****         ADC_STATE_CLR_SET(hadc->State,
 198:Drivers/STM32F1xx_HAL_Driver/Src/stm32f1xx_hal_adc_ex.c ****                           HAL_ADC_STATE_BUSY_INTERNAL,
 199:Drivers/STM32F1xx_HAL_Driver/Src/stm32f1xx_hal_adc_ex.c ****                           HAL_ADC_STATE_ERROR_INTERNAL);
 200:Drivers/STM32F1xx_HAL_Driver/Src/stm32f1xx_hal_adc_ex.c ****         
 201:Drivers/STM32F1xx_HAL_Driver/Src/stm32f1xx_hal_adc_ex.c ****         /* Process unlocked */
 202:Drivers/STM32F1xx_HAL_Driver/Src/stm32f1xx_hal_adc_ex.c ****         __HAL_UNLOCK(hadc);
 203:Drivers/STM32F1xx_HAL_Driver/Src/stm32f1xx_hal_adc_ex.c ****         
 204:Drivers/STM32F1xx_HAL_Driver/Src/stm32f1xx_hal_adc_ex.c ****         return HAL_ERROR;
 205:Drivers/STM32F1xx_HAL_Driver/Src/stm32f1xx_hal_adc_ex.c ****       }
 206:Drivers/STM32F1xx_HAL_Driver/Src/stm32f1xx_hal_adc_ex.c ****     }
 207:Drivers/STM32F1xx_HAL_Driver/Src/stm32f1xx_hal_adc_ex.c ****     
 208:Drivers/STM32F1xx_HAL_Driver/Src/stm32f1xx_hal_adc_ex.c ****     
 209:Drivers/STM32F1xx_HAL_Driver/Src/stm32f1xx_hal_adc_ex.c ****     /* 4. Start ADC calibration */
 210:Drivers/STM32F1xx_HAL_Driver/Src/stm32f1xx_hal_adc_ex.c ****     SET_BIT(hadc->Instance->CR2, ADC_CR2_CAL);
 211:Drivers/STM32F1xx_HAL_Driver/Src/stm32f1xx_hal_adc_ex.c ****     
 212:Drivers/STM32F1xx_HAL_Driver/Src/stm32f1xx_hal_adc_ex.c ****     tickstart = HAL_GetTick();  
 213:Drivers/STM32F1xx_HAL_Driver/Src/stm32f1xx_hal_adc_ex.c **** 
 214:Drivers/STM32F1xx_HAL_Driver/Src/stm32f1xx_hal_adc_ex.c ****     /* Wait for calibration completion */
 215:Drivers/STM32F1xx_HAL_Driver/Src/stm32f1xx_hal_adc_ex.c ****     while(HAL_IS_BIT_SET(hadc->Instance->CR2, ADC_CR2_CAL))
 216:Drivers/STM32F1xx_HAL_Driver/Src/stm32f1xx_hal_adc_ex.c ****     {
ARM GAS  /tmp/cc6gSbL8.s 			page 6


 217:Drivers/STM32F1xx_HAL_Driver/Src/stm32f1xx_hal_adc_ex.c ****       if((HAL_GetTick() - tickstart) > ADC_CALIBRATION_TIMEOUT)
 218:Drivers/STM32F1xx_HAL_Driver/Src/stm32f1xx_hal_adc_ex.c ****       {
 219:Drivers/STM32F1xx_HAL_Driver/Src/stm32f1xx_hal_adc_ex.c ****         /* Update ADC state machine to error */
 220:Drivers/STM32F1xx_HAL_Driver/Src/stm32f1xx_hal_adc_ex.c ****         ADC_STATE_CLR_SET(hadc->State,
 221:Drivers/STM32F1xx_HAL_Driver/Src/stm32f1xx_hal_adc_ex.c ****                           HAL_ADC_STATE_BUSY_INTERNAL,
 222:Drivers/STM32F1xx_HAL_Driver/Src/stm32f1xx_hal_adc_ex.c ****                           HAL_ADC_STATE_ERROR_INTERNAL);
 223:Drivers/STM32F1xx_HAL_Driver/Src/stm32f1xx_hal_adc_ex.c ****         
 224:Drivers/STM32F1xx_HAL_Driver/Src/stm32f1xx_hal_adc_ex.c ****         /* Process unlocked */
 225:Drivers/STM32F1xx_HAL_Driver/Src/stm32f1xx_hal_adc_ex.c ****         __HAL_UNLOCK(hadc);
 226:Drivers/STM32F1xx_HAL_Driver/Src/stm32f1xx_hal_adc_ex.c ****         
 227:Drivers/STM32F1xx_HAL_Driver/Src/stm32f1xx_hal_adc_ex.c ****         return HAL_ERROR;
 228:Drivers/STM32F1xx_HAL_Driver/Src/stm32f1xx_hal_adc_ex.c ****       }
 229:Drivers/STM32F1xx_HAL_Driver/Src/stm32f1xx_hal_adc_ex.c ****     }
 230:Drivers/STM32F1xx_HAL_Driver/Src/stm32f1xx_hal_adc_ex.c ****     
 231:Drivers/STM32F1xx_HAL_Driver/Src/stm32f1xx_hal_adc_ex.c ****     /* Set ADC state */
 232:Drivers/STM32F1xx_HAL_Driver/Src/stm32f1xx_hal_adc_ex.c ****     ADC_STATE_CLR_SET(hadc->State,
 233:Drivers/STM32F1xx_HAL_Driver/Src/stm32f1xx_hal_adc_ex.c ****                       HAL_ADC_STATE_BUSY_INTERNAL,
 234:Drivers/STM32F1xx_HAL_Driver/Src/stm32f1xx_hal_adc_ex.c ****                       HAL_ADC_STATE_READY);
 235:Drivers/STM32F1xx_HAL_Driver/Src/stm32f1xx_hal_adc_ex.c ****   }
 236:Drivers/STM32F1xx_HAL_Driver/Src/stm32f1xx_hal_adc_ex.c ****   
 237:Drivers/STM32F1xx_HAL_Driver/Src/stm32f1xx_hal_adc_ex.c ****   /* Process unlocked */
 238:Drivers/STM32F1xx_HAL_Driver/Src/stm32f1xx_hal_adc_ex.c ****   __HAL_UNLOCK(hadc);
  71              		.loc 1 238 3 is_stmt 1 view .LVU15
  72              		.loc 1 238 3 view .LVU16
  73 0020 0023     		movs	r3, #0
  74 0022 84F82430 		strb	r3, [r4, #36]
  75              		.loc 1 238 3 view .LVU17
 239:Drivers/STM32F1xx_HAL_Driver/Src/stm32f1xx_hal_adc_ex.c ****   
 240:Drivers/STM32F1xx_HAL_Driver/Src/stm32f1xx_hal_adc_ex.c ****   /* Return function status */
 241:Drivers/STM32F1xx_HAL_Driver/Src/stm32f1xx_hal_adc_ex.c ****   return tmp_hal_status;
  76              		.loc 1 241 3 view .LVU18
  77              	.LVL4:
  78              	.L2:
 242:Drivers/STM32F1xx_HAL_Driver/Src/stm32f1xx_hal_adc_ex.c **** }
  79              		.loc 1 242 1 is_stmt 0 view .LVU19
  80 0026 2846     		mov	r0, r5
  81 0028 02B0     		add	sp, sp, #8
  82              	.LCFI2:
  83              		.cfi_remember_state
  84              		.cfi_def_cfa_offset 16
  85              		@ sp needed
  86 002a 70BD     		pop	{r4, r5, r6, pc}
  87              	.LVL5:
  88              	.L12:
  89              	.LCFI3:
  90              		.cfi_restore_state
 167:Drivers/STM32F1xx_HAL_Driver/Src/stm32f1xx_hal_adc_ex.c ****                       HAL_ADC_STATE_REG_BUSY | HAL_ADC_STATE_INJ_BUSY,
  91              		.loc 1 167 5 is_stmt 1 view .LVU20
  92 002c A36A     		ldr	r3, [r4, #40]
  93 002e 23F48853 		bic	r3, r3, #4352
  94 0032 23F00203 		bic	r3, r3, #2
  95 0036 43F00203 		orr	r3, r3, #2
  96 003a A362     		str	r3, [r4, #40]
 174:Drivers/STM32F1xx_HAL_Driver/Src/stm32f1xx_hal_adc_ex.c ****                         / HAL_RCCEx_GetPeriphCLKFreq(RCC_PERIPHCLK_ADC))
  97              		.loc 1 174 5 view .LVU21
 175:Drivers/STM32F1xx_HAL_Driver/Src/stm32f1xx_hal_adc_ex.c ****                        * ADC_PRECALIBRATION_DELAY_ADCCLOCKCYCLES        );
  98              		.loc 1 175 25 is_stmt 0 view .LVU22
ARM GAS  /tmp/cc6gSbL8.s 			page 7


  99 003c 294B     		ldr	r3, .L16
 100 003e 1E68     		ldr	r6, [r3]
 175:Drivers/STM32F1xx_HAL_Driver/Src/stm32f1xx_hal_adc_ex.c ****                        * ADC_PRECALIBRATION_DELAY_ADCCLOCKCYCLES        );
 101              		.loc 1 175 27 view .LVU23
 102 0040 0220     		movs	r0, #2
 103              	.LVL6:
 175:Drivers/STM32F1xx_HAL_Driver/Src/stm32f1xx_hal_adc_ex.c ****                        * ADC_PRECALIBRATION_DELAY_ADCCLOCKCYCLES        );
 104              		.loc 1 175 27 view .LVU24
 105 0042 FFF7FEFF 		bl	HAL_RCCEx_GetPeriphCLKFreq
 106              	.LVL7:
 175:Drivers/STM32F1xx_HAL_Driver/Src/stm32f1xx_hal_adc_ex.c ****                        * ADC_PRECALIBRATION_DELAY_ADCCLOCKCYCLES        );
 107              		.loc 1 175 25 view .LVU25
 108 0046 B6FBF0F6 		udiv	r6, r6, r0
 176:Drivers/STM32F1xx_HAL_Driver/Src/stm32f1xx_hal_adc_ex.c **** 
 109              		.loc 1 176 24 view .LVU26
 110 004a 7600     		lsls	r6, r6, #1
 174:Drivers/STM32F1xx_HAL_Driver/Src/stm32f1xx_hal_adc_ex.c ****                         / HAL_RCCEx_GetPeriphCLKFreq(RCC_PERIPHCLK_ADC))
 111              		.loc 1 174 21 view .LVU27
 112 004c 0196     		str	r6, [sp, #4]
 178:Drivers/STM32F1xx_HAL_Driver/Src/stm32f1xx_hal_adc_ex.c ****     {
 113              		.loc 1 178 5 is_stmt 1 view .LVU28
 114              	.L4:
 178:Drivers/STM32F1xx_HAL_Driver/Src/stm32f1xx_hal_adc_ex.c ****     {
 115              		.loc 1 178 10 view .LVU29
 178:Drivers/STM32F1xx_HAL_Driver/Src/stm32f1xx_hal_adc_ex.c ****     {
 116              		.loc 1 178 27 is_stmt 0 view .LVU30
 117 004e 019B     		ldr	r3, [sp, #4]
 178:Drivers/STM32F1xx_HAL_Driver/Src/stm32f1xx_hal_adc_ex.c ****     {
 118              		.loc 1 178 10 view .LVU31
 119 0050 1BB1     		cbz	r3, .L13
 180:Drivers/STM32F1xx_HAL_Driver/Src/stm32f1xx_hal_adc_ex.c ****     }
 120              		.loc 1 180 7 is_stmt 1 view .LVU32
 180:Drivers/STM32F1xx_HAL_Driver/Src/stm32f1xx_hal_adc_ex.c ****     }
 121              		.loc 1 180 22 is_stmt 0 view .LVU33
 122 0052 019B     		ldr	r3, [sp, #4]
 123 0054 013B     		subs	r3, r3, #1
 124 0056 0193     		str	r3, [sp, #4]
 125 0058 F9E7     		b	.L4
 126              	.L13:
 184:Drivers/STM32F1xx_HAL_Driver/Src/stm32f1xx_hal_adc_ex.c ****     
 127              		.loc 1 184 5 is_stmt 1 view .LVU34
 128 005a 2046     		mov	r0, r4
 129 005c FFF7FEFF 		bl	ADC_Enable
 130              	.LVL8:
 187:Drivers/STM32F1xx_HAL_Driver/Src/stm32f1xx_hal_adc_ex.c ****     
 131              		.loc 1 187 5 view .LVU35
 132 0060 2268     		ldr	r2, [r4]
 133 0062 9368     		ldr	r3, [r2, #8]
 134 0064 43F00803 		orr	r3, r3, #8
 135 0068 9360     		str	r3, [r2, #8]
 189:Drivers/STM32F1xx_HAL_Driver/Src/stm32f1xx_hal_adc_ex.c **** 
 136              		.loc 1 189 5 view .LVU36
 189:Drivers/STM32F1xx_HAL_Driver/Src/stm32f1xx_hal_adc_ex.c **** 
 137              		.loc 1 189 17 is_stmt 0 view .LVU37
 138 006a FFF7FEFF 		bl	HAL_GetTick
 139              	.LVL9:
 140 006e 0646     		mov	r6, r0
ARM GAS  /tmp/cc6gSbL8.s 			page 8


 141              	.LVL10:
 192:Drivers/STM32F1xx_HAL_Driver/Src/stm32f1xx_hal_adc_ex.c ****     {
 142              		.loc 1 192 5 is_stmt 1 view .LVU38
 143              	.L6:
 192:Drivers/STM32F1xx_HAL_Driver/Src/stm32f1xx_hal_adc_ex.c ****     {
 144              		.loc 1 192 10 view .LVU39
 192:Drivers/STM32F1xx_HAL_Driver/Src/stm32f1xx_hal_adc_ex.c ****     {
 145              		.loc 1 192 11 is_stmt 0 view .LVU40
 146 0070 2368     		ldr	r3, [r4]
 147 0072 9A68     		ldr	r2, [r3, #8]
 192:Drivers/STM32F1xx_HAL_Driver/Src/stm32f1xx_hal_adc_ex.c ****     {
 148              		.loc 1 192 10 view .LVU41
 149 0074 12F0080F 		tst	r2, #8
 150 0078 0FD0     		beq	.L14
 194:Drivers/STM32F1xx_HAL_Driver/Src/stm32f1xx_hal_adc_ex.c ****       {
 151              		.loc 1 194 7 is_stmt 1 view .LVU42
 194:Drivers/STM32F1xx_HAL_Driver/Src/stm32f1xx_hal_adc_ex.c ****       {
 152              		.loc 1 194 11 is_stmt 0 view .LVU43
 153 007a FFF7FEFF 		bl	HAL_GetTick
 154              	.LVL11:
 194:Drivers/STM32F1xx_HAL_Driver/Src/stm32f1xx_hal_adc_ex.c ****       {
 155              		.loc 1 194 25 view .LVU44
 156 007e 801B     		subs	r0, r0, r6
 194:Drivers/STM32F1xx_HAL_Driver/Src/stm32f1xx_hal_adc_ex.c ****       {
 157              		.loc 1 194 9 view .LVU45
 158 0080 0A28     		cmp	r0, #10
 159 0082 F5D9     		bls	.L6
 197:Drivers/STM32F1xx_HAL_Driver/Src/stm32f1xx_hal_adc_ex.c ****                           HAL_ADC_STATE_BUSY_INTERNAL,
 160              		.loc 1 197 9 is_stmt 1 view .LVU46
 161 0084 A36A     		ldr	r3, [r4, #40]
 162 0086 23F01203 		bic	r3, r3, #18
 163 008a 43F01003 		orr	r3, r3, #16
 164 008e A362     		str	r3, [r4, #40]
 202:Drivers/STM32F1xx_HAL_Driver/Src/stm32f1xx_hal_adc_ex.c ****         
 165              		.loc 1 202 9 view .LVU47
 202:Drivers/STM32F1xx_HAL_Driver/Src/stm32f1xx_hal_adc_ex.c ****         
 166              		.loc 1 202 9 view .LVU48
 167 0090 0023     		movs	r3, #0
 168 0092 84F82430 		strb	r3, [r4, #36]
 202:Drivers/STM32F1xx_HAL_Driver/Src/stm32f1xx_hal_adc_ex.c ****         
 169              		.loc 1 202 9 view .LVU49
 204:Drivers/STM32F1xx_HAL_Driver/Src/stm32f1xx_hal_adc_ex.c ****       }
 170              		.loc 1 204 9 view .LVU50
 204:Drivers/STM32F1xx_HAL_Driver/Src/stm32f1xx_hal_adc_ex.c ****       }
 171              		.loc 1 204 16 is_stmt 0 view .LVU51
 172 0096 0125     		movs	r5, #1
 173 0098 C5E7     		b	.L2
 174              	.L14:
 210:Drivers/STM32F1xx_HAL_Driver/Src/stm32f1xx_hal_adc_ex.c ****     
 175              		.loc 1 210 5 is_stmt 1 view .LVU52
 176 009a 9A68     		ldr	r2, [r3, #8]
 177 009c 42F00402 		orr	r2, r2, #4
 178 00a0 9A60     		str	r2, [r3, #8]
 212:Drivers/STM32F1xx_HAL_Driver/Src/stm32f1xx_hal_adc_ex.c **** 
 179              		.loc 1 212 5 view .LVU53
 212:Drivers/STM32F1xx_HAL_Driver/Src/stm32f1xx_hal_adc_ex.c **** 
 180              		.loc 1 212 17 is_stmt 0 view .LVU54
ARM GAS  /tmp/cc6gSbL8.s 			page 9


 181 00a2 FFF7FEFF 		bl	HAL_GetTick
 182              	.LVL12:
 183 00a6 0646     		mov	r6, r0
 184              	.LVL13:
 215:Drivers/STM32F1xx_HAL_Driver/Src/stm32f1xx_hal_adc_ex.c ****     {
 185              		.loc 1 215 5 is_stmt 1 view .LVU55
 186              	.L8:
 215:Drivers/STM32F1xx_HAL_Driver/Src/stm32f1xx_hal_adc_ex.c ****     {
 187              		.loc 1 215 10 view .LVU56
 215:Drivers/STM32F1xx_HAL_Driver/Src/stm32f1xx_hal_adc_ex.c ****     {
 188              		.loc 1 215 11 is_stmt 0 view .LVU57
 189 00a8 2368     		ldr	r3, [r4]
 190 00aa 9B68     		ldr	r3, [r3, #8]
 215:Drivers/STM32F1xx_HAL_Driver/Src/stm32f1xx_hal_adc_ex.c ****     {
 191              		.loc 1 215 10 view .LVU58
 192 00ac 13F0040F 		tst	r3, #4
 193 00b0 0FD0     		beq	.L15
 217:Drivers/STM32F1xx_HAL_Driver/Src/stm32f1xx_hal_adc_ex.c ****       {
 194              		.loc 1 217 7 is_stmt 1 view .LVU59
 217:Drivers/STM32F1xx_HAL_Driver/Src/stm32f1xx_hal_adc_ex.c ****       {
 195              		.loc 1 217 11 is_stmt 0 view .LVU60
 196 00b2 FFF7FEFF 		bl	HAL_GetTick
 197              	.LVL14:
 217:Drivers/STM32F1xx_HAL_Driver/Src/stm32f1xx_hal_adc_ex.c ****       {
 198              		.loc 1 217 25 view .LVU61
 199 00b6 801B     		subs	r0, r0, r6
 217:Drivers/STM32F1xx_HAL_Driver/Src/stm32f1xx_hal_adc_ex.c ****       {
 200              		.loc 1 217 9 view .LVU62
 201 00b8 0A28     		cmp	r0, #10
 202 00ba F5D9     		bls	.L8
 220:Drivers/STM32F1xx_HAL_Driver/Src/stm32f1xx_hal_adc_ex.c ****                           HAL_ADC_STATE_BUSY_INTERNAL,
 203              		.loc 1 220 9 is_stmt 1 view .LVU63
 204 00bc A36A     		ldr	r3, [r4, #40]
 205 00be 23F01203 		bic	r3, r3, #18
 206 00c2 43F01003 		orr	r3, r3, #16
 207 00c6 A362     		str	r3, [r4, #40]
 225:Drivers/STM32F1xx_HAL_Driver/Src/stm32f1xx_hal_adc_ex.c ****         
 208              		.loc 1 225 9 view .LVU64
 225:Drivers/STM32F1xx_HAL_Driver/Src/stm32f1xx_hal_adc_ex.c ****         
 209              		.loc 1 225 9 view .LVU65
 210 00c8 0023     		movs	r3, #0
 211 00ca 84F82430 		strb	r3, [r4, #36]
 225:Drivers/STM32F1xx_HAL_Driver/Src/stm32f1xx_hal_adc_ex.c ****         
 212              		.loc 1 225 9 view .LVU66
 227:Drivers/STM32F1xx_HAL_Driver/Src/stm32f1xx_hal_adc_ex.c ****       }
 213              		.loc 1 227 9 view .LVU67
 227:Drivers/STM32F1xx_HAL_Driver/Src/stm32f1xx_hal_adc_ex.c ****       }
 214              		.loc 1 227 16 is_stmt 0 view .LVU68
 215 00ce 0125     		movs	r5, #1
 216 00d0 A9E7     		b	.L2
 217              	.L15:
 232:Drivers/STM32F1xx_HAL_Driver/Src/stm32f1xx_hal_adc_ex.c ****                       HAL_ADC_STATE_BUSY_INTERNAL,
 218              		.loc 1 232 5 is_stmt 1 view .LVU69
 219 00d2 A36A     		ldr	r3, [r4, #40]
 220 00d4 23F00303 		bic	r3, r3, #3
 221 00d8 43F00103 		orr	r3, r3, #1
 222 00dc A362     		str	r3, [r4, #40]
ARM GAS  /tmp/cc6gSbL8.s 			page 10


 223 00de 9FE7     		b	.L3
 224              	.LVL15:
 225              	.L10:
 154:Drivers/STM32F1xx_HAL_Driver/Src/stm32f1xx_hal_adc_ex.c ****     
 226              		.loc 1 154 3 is_stmt 0 view .LVU70
 227 00e0 0225     		movs	r5, #2
 228 00e2 A0E7     		b	.L2
 229              	.L17:
 230              		.align	2
 231              	.L16:
 232 00e4 00000000 		.word	SystemCoreClock
 233              		.cfi_endproc
 234              	.LFE66:
 236              		.section	.text.HAL_ADCEx_InjectedStart,"ax",%progbits
 237              		.align	1
 238              		.global	HAL_ADCEx_InjectedStart
 239              		.syntax unified
 240              		.thumb
 241              		.thumb_func
 242              		.fpu softvfp
 244              	HAL_ADCEx_InjectedStart:
 245              	.LVL16:
 246              	.LFB67:
 243:Drivers/STM32F1xx_HAL_Driver/Src/stm32f1xx_hal_adc_ex.c **** 
 244:Drivers/STM32F1xx_HAL_Driver/Src/stm32f1xx_hal_adc_ex.c **** /**
 245:Drivers/STM32F1xx_HAL_Driver/Src/stm32f1xx_hal_adc_ex.c ****   * @brief  Enables ADC, starts conversion of injected group.
 246:Drivers/STM32F1xx_HAL_Driver/Src/stm32f1xx_hal_adc_ex.c ****   *         Interruptions enabled in this function: None.
 247:Drivers/STM32F1xx_HAL_Driver/Src/stm32f1xx_hal_adc_ex.c ****   * @param  hadc: ADC handle
 248:Drivers/STM32F1xx_HAL_Driver/Src/stm32f1xx_hal_adc_ex.c ****   * @retval HAL status
 249:Drivers/STM32F1xx_HAL_Driver/Src/stm32f1xx_hal_adc_ex.c ****   */
 250:Drivers/STM32F1xx_HAL_Driver/Src/stm32f1xx_hal_adc_ex.c **** HAL_StatusTypeDef HAL_ADCEx_InjectedStart(ADC_HandleTypeDef* hadc)
 251:Drivers/STM32F1xx_HAL_Driver/Src/stm32f1xx_hal_adc_ex.c **** {
 247              		.loc 1 251 1 is_stmt 1 view -0
 248              		.cfi_startproc
 249              		@ args = 0, pretend = 0, frame = 0
 250              		@ frame_needed = 0, uses_anonymous_args = 0
 252:Drivers/STM32F1xx_HAL_Driver/Src/stm32f1xx_hal_adc_ex.c ****   HAL_StatusTypeDef tmp_hal_status = HAL_OK;
 251              		.loc 1 252 3 view .LVU72
 253:Drivers/STM32F1xx_HAL_Driver/Src/stm32f1xx_hal_adc_ex.c ****   
 254:Drivers/STM32F1xx_HAL_Driver/Src/stm32f1xx_hal_adc_ex.c ****   /* Check the parameters */
 255:Drivers/STM32F1xx_HAL_Driver/Src/stm32f1xx_hal_adc_ex.c ****   assert_param(IS_ADC_ALL_INSTANCE(hadc->Instance));
 252              		.loc 1 255 3 view .LVU73
 256:Drivers/STM32F1xx_HAL_Driver/Src/stm32f1xx_hal_adc_ex.c ****   
 257:Drivers/STM32F1xx_HAL_Driver/Src/stm32f1xx_hal_adc_ex.c ****   /* Process locked */
 258:Drivers/STM32F1xx_HAL_Driver/Src/stm32f1xx_hal_adc_ex.c ****   __HAL_LOCK(hadc);
 253              		.loc 1 258 3 view .LVU74
 254              		.loc 1 258 3 view .LVU75
 255 0000 90F82430 		ldrb	r3, [r0, #36]	@ zero_extendqisi2
 256 0004 012B     		cmp	r3, #1
 257 0006 52D0     		beq	.L27
 251:Drivers/STM32F1xx_HAL_Driver/Src/stm32f1xx_hal_adc_ex.c ****   HAL_StatusTypeDef tmp_hal_status = HAL_OK;
 258              		.loc 1 251 1 is_stmt 0 discriminator 2 view .LVU76
 259 0008 10B5     		push	{r4, lr}
 260              	.LCFI4:
 261              		.cfi_def_cfa_offset 8
 262              		.cfi_offset 4, -8
 263              		.cfi_offset 14, -4
ARM GAS  /tmp/cc6gSbL8.s 			page 11


 264 000a 0446     		mov	r4, r0
 265              		.loc 1 258 3 is_stmt 1 discriminator 2 view .LVU77
 266 000c 0123     		movs	r3, #1
 267 000e 80F82430 		strb	r3, [r0, #36]
 268              		.loc 1 258 3 discriminator 2 view .LVU78
 259:Drivers/STM32F1xx_HAL_Driver/Src/stm32f1xx_hal_adc_ex.c ****     
 260:Drivers/STM32F1xx_HAL_Driver/Src/stm32f1xx_hal_adc_ex.c ****   /* Enable the ADC peripheral */
 261:Drivers/STM32F1xx_HAL_Driver/Src/stm32f1xx_hal_adc_ex.c ****   tmp_hal_status = ADC_Enable(hadc);
 269              		.loc 1 261 3 discriminator 2 view .LVU79
 270              		.loc 1 261 20 is_stmt 0 discriminator 2 view .LVU80
 271 0012 FFF7FEFF 		bl	ADC_Enable
 272              	.LVL17:
 262:Drivers/STM32F1xx_HAL_Driver/Src/stm32f1xx_hal_adc_ex.c ****   
 263:Drivers/STM32F1xx_HAL_Driver/Src/stm32f1xx_hal_adc_ex.c ****   /* Start conversion if ADC is effectively enabled */
 264:Drivers/STM32F1xx_HAL_Driver/Src/stm32f1xx_hal_adc_ex.c ****   if (tmp_hal_status == HAL_OK)
 273              		.loc 1 264 3 is_stmt 1 discriminator 2 view .LVU81
 274              		.loc 1 264 6 is_stmt 0 discriminator 2 view .LVU82
 275 0016 0028     		cmp	r0, #0
 276 0018 45D1     		bne	.L20
 265:Drivers/STM32F1xx_HAL_Driver/Src/stm32f1xx_hal_adc_ex.c ****   {
 266:Drivers/STM32F1xx_HAL_Driver/Src/stm32f1xx_hal_adc_ex.c ****     /* Set ADC state                                                          */
 267:Drivers/STM32F1xx_HAL_Driver/Src/stm32f1xx_hal_adc_ex.c ****     /* - Clear state bitfield related to injected group conversion results    */
 268:Drivers/STM32F1xx_HAL_Driver/Src/stm32f1xx_hal_adc_ex.c ****     /* - Set state bitfield related to injected operation                     */
 269:Drivers/STM32F1xx_HAL_Driver/Src/stm32f1xx_hal_adc_ex.c ****     ADC_STATE_CLR_SET(hadc->State,
 277              		.loc 1 269 5 is_stmt 1 view .LVU83
 278 001a A36A     		ldr	r3, [r4, #40]
 279 001c 23F44053 		bic	r3, r3, #12288
 280 0020 23F00103 		bic	r3, r3, #1
 281 0024 43F48053 		orr	r3, r3, #4096
 282 0028 A362     		str	r3, [r4, #40]
 270:Drivers/STM32F1xx_HAL_Driver/Src/stm32f1xx_hal_adc_ex.c ****                       HAL_ADC_STATE_READY | HAL_ADC_STATE_INJ_EOC,
 271:Drivers/STM32F1xx_HAL_Driver/Src/stm32f1xx_hal_adc_ex.c ****                       HAL_ADC_STATE_INJ_BUSY);
 272:Drivers/STM32F1xx_HAL_Driver/Src/stm32f1xx_hal_adc_ex.c ****     
 273:Drivers/STM32F1xx_HAL_Driver/Src/stm32f1xx_hal_adc_ex.c ****     /* Case of independent mode or multimode (for devices with several ADCs): */
 274:Drivers/STM32F1xx_HAL_Driver/Src/stm32f1xx_hal_adc_ex.c ****     /* Set multimode state.                                                   */
 275:Drivers/STM32F1xx_HAL_Driver/Src/stm32f1xx_hal_adc_ex.c ****     if (ADC_NONMULTIMODE_OR_MULTIMODEMASTER(hadc))
 283              		.loc 1 275 5 view .LVU84
 284              		.loc 1 275 9 is_stmt 0 view .LVU85
 285 002a 2268     		ldr	r2, [r4]
 286              		.loc 1 275 8 view .LVU86
 287 002c 214B     		ldr	r3, .L35
 288 002e 9A42     		cmp	r2, r3
 289 0030 1FD0     		beq	.L32
 290              	.L21:
 276:Drivers/STM32F1xx_HAL_Driver/Src/stm32f1xx_hal_adc_ex.c ****     {
 277:Drivers/STM32F1xx_HAL_Driver/Src/stm32f1xx_hal_adc_ex.c ****       CLEAR_BIT(hadc->State, HAL_ADC_STATE_MULTIMODE_SLAVE);
 291              		.loc 1 277 7 is_stmt 1 view .LVU87
 292 0032 A36A     		ldr	r3, [r4, #40]
 293 0034 23F48013 		bic	r3, r3, #1048576
 294 0038 A362     		str	r3, [r4, #40]
 295              	.L23:
 278:Drivers/STM32F1xx_HAL_Driver/Src/stm32f1xx_hal_adc_ex.c ****     }
 279:Drivers/STM32F1xx_HAL_Driver/Src/stm32f1xx_hal_adc_ex.c ****     else
 280:Drivers/STM32F1xx_HAL_Driver/Src/stm32f1xx_hal_adc_ex.c ****     {
 281:Drivers/STM32F1xx_HAL_Driver/Src/stm32f1xx_hal_adc_ex.c ****       SET_BIT(hadc->State, HAL_ADC_STATE_MULTIMODE_SLAVE);
 282:Drivers/STM32F1xx_HAL_Driver/Src/stm32f1xx_hal_adc_ex.c ****     }
 283:Drivers/STM32F1xx_HAL_Driver/Src/stm32f1xx_hal_adc_ex.c ****     
ARM GAS  /tmp/cc6gSbL8.s 			page 12


 284:Drivers/STM32F1xx_HAL_Driver/Src/stm32f1xx_hal_adc_ex.c ****     /* Check if a regular conversion is ongoing */
 285:Drivers/STM32F1xx_HAL_Driver/Src/stm32f1xx_hal_adc_ex.c ****     /* Note: On this device, there is no ADC error code fields related to     */
 286:Drivers/STM32F1xx_HAL_Driver/Src/stm32f1xx_hal_adc_ex.c ****     /*       conversions on group injected only. In case of conversion on     */
 287:Drivers/STM32F1xx_HAL_Driver/Src/stm32f1xx_hal_adc_ex.c ****     /*       going on group regular, no error code is reset.                  */
 288:Drivers/STM32F1xx_HAL_Driver/Src/stm32f1xx_hal_adc_ex.c ****     if (HAL_IS_BIT_CLR(hadc->State, HAL_ADC_STATE_REG_BUSY))
 296              		.loc 1 288 5 view .LVU88
 297              		.loc 1 288 9 is_stmt 0 view .LVU89
 298 003a A36A     		ldr	r3, [r4, #40]
 299              		.loc 1 288 8 view .LVU90
 300 003c 13F4807F 		tst	r3, #256
 301 0040 01D1     		bne	.L24
 289:Drivers/STM32F1xx_HAL_Driver/Src/stm32f1xx_hal_adc_ex.c ****     {
 290:Drivers/STM32F1xx_HAL_Driver/Src/stm32f1xx_hal_adc_ex.c ****       /* Reset ADC all error code fields */
 291:Drivers/STM32F1xx_HAL_Driver/Src/stm32f1xx_hal_adc_ex.c ****       ADC_CLEAR_ERRORCODE(hadc);
 302              		.loc 1 291 7 is_stmt 1 view .LVU91
 303 0042 0023     		movs	r3, #0
 304 0044 E362     		str	r3, [r4, #44]
 305              	.L24:
 292:Drivers/STM32F1xx_HAL_Driver/Src/stm32f1xx_hal_adc_ex.c ****     }
 293:Drivers/STM32F1xx_HAL_Driver/Src/stm32f1xx_hal_adc_ex.c ****     
 294:Drivers/STM32F1xx_HAL_Driver/Src/stm32f1xx_hal_adc_ex.c ****     /* Process unlocked */
 295:Drivers/STM32F1xx_HAL_Driver/Src/stm32f1xx_hal_adc_ex.c ****     /* Unlock before starting ADC conversions: in case of potential           */
 296:Drivers/STM32F1xx_HAL_Driver/Src/stm32f1xx_hal_adc_ex.c ****     /* interruption, to let the process to ADC IRQ Handler.                   */
 297:Drivers/STM32F1xx_HAL_Driver/Src/stm32f1xx_hal_adc_ex.c ****     __HAL_UNLOCK(hadc);
 306              		.loc 1 297 5 view .LVU92
 307              		.loc 1 297 5 view .LVU93
 308 0046 0023     		movs	r3, #0
 309 0048 84F82430 		strb	r3, [r4, #36]
 310              		.loc 1 297 5 view .LVU94
 298:Drivers/STM32F1xx_HAL_Driver/Src/stm32f1xx_hal_adc_ex.c ****     
 299:Drivers/STM32F1xx_HAL_Driver/Src/stm32f1xx_hal_adc_ex.c ****     /* Clear injected group conversion flag */
 300:Drivers/STM32F1xx_HAL_Driver/Src/stm32f1xx_hal_adc_ex.c ****     /* (To ensure of no unknown state from potential previous ADC operations) */
 301:Drivers/STM32F1xx_HAL_Driver/Src/stm32f1xx_hal_adc_ex.c ****     __HAL_ADC_CLEAR_FLAG(hadc, ADC_FLAG_JEOC);
 311              		.loc 1 301 5 view .LVU95
 312 004c 6FF00403 		mvn	r3, #4
 313 0050 1360     		str	r3, [r2]
 302:Drivers/STM32F1xx_HAL_Driver/Src/stm32f1xx_hal_adc_ex.c ****         
 303:Drivers/STM32F1xx_HAL_Driver/Src/stm32f1xx_hal_adc_ex.c ****     /* Enable conversion of injected group.                                   */
 304:Drivers/STM32F1xx_HAL_Driver/Src/stm32f1xx_hal_adc_ex.c ****     /* If software start has been selected, conversion starts immediately.    */
 305:Drivers/STM32F1xx_HAL_Driver/Src/stm32f1xx_hal_adc_ex.c ****     /* If external trigger has been selected, conversion will start at next   */
 306:Drivers/STM32F1xx_HAL_Driver/Src/stm32f1xx_hal_adc_ex.c ****     /* trigger event.                                                         */
 307:Drivers/STM32F1xx_HAL_Driver/Src/stm32f1xx_hal_adc_ex.c ****     /* If automatic injected conversion is enabled, conversion will start     */
 308:Drivers/STM32F1xx_HAL_Driver/Src/stm32f1xx_hal_adc_ex.c ****     /* after next regular group conversion.                                   */
 309:Drivers/STM32F1xx_HAL_Driver/Src/stm32f1xx_hal_adc_ex.c ****     /* Case of multimode enabled (for devices with several ADCs): if ADC is   */
 310:Drivers/STM32F1xx_HAL_Driver/Src/stm32f1xx_hal_adc_ex.c ****     /* slave, ADC is enabled only (conversion is not started). If ADC is      */
 311:Drivers/STM32F1xx_HAL_Driver/Src/stm32f1xx_hal_adc_ex.c ****     /* master, ADC is enabled and conversion is started.                      */
 312:Drivers/STM32F1xx_HAL_Driver/Src/stm32f1xx_hal_adc_ex.c ****     if (HAL_IS_BIT_CLR(hadc->Instance->CR1, ADC_CR1_JAUTO))
 314              		.loc 1 312 5 view .LVU96
 315              		.loc 1 312 9 is_stmt 0 view .LVU97
 316 0052 2368     		ldr	r3, [r4]
 317 0054 5A68     		ldr	r2, [r3, #4]
 318              		.loc 1 312 8 view .LVU98
 319 0056 12F4806F 		tst	r2, #1024
 320 005a 27D1     		bne	.L19
 313:Drivers/STM32F1xx_HAL_Driver/Src/stm32f1xx_hal_adc_ex.c ****     {
 314:Drivers/STM32F1xx_HAL_Driver/Src/stm32f1xx_hal_adc_ex.c ****       if (ADC_IS_SOFTWARE_START_INJECTED(hadc)     &&
 321              		.loc 1 314 7 is_stmt 1 view .LVU99
ARM GAS  /tmp/cc6gSbL8.s 			page 13


 322              		.loc 1 314 11 is_stmt 0 view .LVU100
 323 005c 9A68     		ldr	r2, [r3, #8]
 324 005e 02F4E042 		and	r2, r2, #28672
 325              		.loc 1 314 10 view .LVU101
 326 0062 B2F5E04F 		cmp	r2, #28672
 327 0066 0FD0     		beq	.L33
 328              	.L25:
 315:Drivers/STM32F1xx_HAL_Driver/Src/stm32f1xx_hal_adc_ex.c ****           ADC_NONMULTIMODE_OR_MULTIMODEMASTER(hadc)  )
 316:Drivers/STM32F1xx_HAL_Driver/Src/stm32f1xx_hal_adc_ex.c ****       {
 317:Drivers/STM32F1xx_HAL_Driver/Src/stm32f1xx_hal_adc_ex.c ****         /* Start ADC conversion on injected group with SW start */
 318:Drivers/STM32F1xx_HAL_Driver/Src/stm32f1xx_hal_adc_ex.c ****         SET_BIT(hadc->Instance->CR2, (ADC_CR2_JSWSTART | ADC_CR2_JEXTTRIG));
 319:Drivers/STM32F1xx_HAL_Driver/Src/stm32f1xx_hal_adc_ex.c ****       }
 320:Drivers/STM32F1xx_HAL_Driver/Src/stm32f1xx_hal_adc_ex.c ****       else
 321:Drivers/STM32F1xx_HAL_Driver/Src/stm32f1xx_hal_adc_ex.c ****       {
 322:Drivers/STM32F1xx_HAL_Driver/Src/stm32f1xx_hal_adc_ex.c ****         /* Start ADC conversion on injected group with external trigger */
 323:Drivers/STM32F1xx_HAL_Driver/Src/stm32f1xx_hal_adc_ex.c ****         SET_BIT(hadc->Instance->CR2, ADC_CR2_JEXTTRIG);
 329              		.loc 1 323 9 is_stmt 1 view .LVU102
 330 0068 9A68     		ldr	r2, [r3, #8]
 331 006a 42F40042 		orr	r2, r2, #32768
 332 006e 9A60     		str	r2, [r3, #8]
 333 0070 1CE0     		b	.L19
 334              	.L32:
 275:Drivers/STM32F1xx_HAL_Driver/Src/stm32f1xx_hal_adc_ex.c ****     {
 335              		.loc 1 275 9 is_stmt 0 discriminator 1 view .LVU103
 336 0072 A3F58063 		sub	r3, r3, #1024
 337 0076 5B68     		ldr	r3, [r3, #4]
 338 0078 13F4702F 		tst	r3, #983040
 339 007c D9D0     		beq	.L21
 281:Drivers/STM32F1xx_HAL_Driver/Src/stm32f1xx_hal_adc_ex.c ****     }
 340              		.loc 1 281 7 is_stmt 1 view .LVU104
 341 007e A36A     		ldr	r3, [r4, #40]
 342 0080 43F48013 		orr	r3, r3, #1048576
 343 0084 A362     		str	r3, [r4, #40]
 344 0086 D8E7     		b	.L23
 345              	.L33:
 314:Drivers/STM32F1xx_HAL_Driver/Src/stm32f1xx_hal_adc_ex.c ****           ADC_NONMULTIMODE_OR_MULTIMODEMASTER(hadc)  )
 346              		.loc 1 314 52 is_stmt 0 discriminator 1 view .LVU105
 347 0088 0A4A     		ldr	r2, .L35
 348 008a 9342     		cmp	r3, r2
 349 008c 04D0     		beq	.L34
 350              	.L26:
 318:Drivers/STM32F1xx_HAL_Driver/Src/stm32f1xx_hal_adc_ex.c ****       }
 351              		.loc 1 318 9 is_stmt 1 view .LVU106
 352 008e 9A68     		ldr	r2, [r3, #8]
 353 0090 42F40212 		orr	r2, r2, #2129920
 354 0094 9A60     		str	r2, [r3, #8]
 355 0096 09E0     		b	.L19
 356              	.L34:
 315:Drivers/STM32F1xx_HAL_Driver/Src/stm32f1xx_hal_adc_ex.c ****       {
 357              		.loc 1 315 11 is_stmt 0 discriminator 2 view .LVU107
 358 0098 A2F58062 		sub	r2, r2, #1024
 359 009c 5268     		ldr	r2, [r2, #4]
 314:Drivers/STM32F1xx_HAL_Driver/Src/stm32f1xx_hal_adc_ex.c ****           ADC_NONMULTIMODE_OR_MULTIMODEMASTER(hadc)  )
 360              		.loc 1 314 52 discriminator 2 view .LVU108
 361 009e 12F4702F 		tst	r2, #983040
 362 00a2 E1D1     		bne	.L25
 363 00a4 F3E7     		b	.L26
ARM GAS  /tmp/cc6gSbL8.s 			page 14


 364              	.L20:
 324:Drivers/STM32F1xx_HAL_Driver/Src/stm32f1xx_hal_adc_ex.c ****       }
 325:Drivers/STM32F1xx_HAL_Driver/Src/stm32f1xx_hal_adc_ex.c ****     }
 326:Drivers/STM32F1xx_HAL_Driver/Src/stm32f1xx_hal_adc_ex.c ****   }
 327:Drivers/STM32F1xx_HAL_Driver/Src/stm32f1xx_hal_adc_ex.c ****   else
 328:Drivers/STM32F1xx_HAL_Driver/Src/stm32f1xx_hal_adc_ex.c ****   {
 329:Drivers/STM32F1xx_HAL_Driver/Src/stm32f1xx_hal_adc_ex.c ****     /* Process unlocked */
 330:Drivers/STM32F1xx_HAL_Driver/Src/stm32f1xx_hal_adc_ex.c ****     __HAL_UNLOCK(hadc);
 365              		.loc 1 330 5 is_stmt 1 view .LVU109
 366              		.loc 1 330 5 view .LVU110
 367 00a6 0023     		movs	r3, #0
 368 00a8 84F82430 		strb	r3, [r4, #36]
 369              	.L19:
 331:Drivers/STM32F1xx_HAL_Driver/Src/stm32f1xx_hal_adc_ex.c ****   }
 332:Drivers/STM32F1xx_HAL_Driver/Src/stm32f1xx_hal_adc_ex.c ****   
 333:Drivers/STM32F1xx_HAL_Driver/Src/stm32f1xx_hal_adc_ex.c ****   /* Return function status */
 334:Drivers/STM32F1xx_HAL_Driver/Src/stm32f1xx_hal_adc_ex.c ****   return tmp_hal_status;
 335:Drivers/STM32F1xx_HAL_Driver/Src/stm32f1xx_hal_adc_ex.c **** }
 370              		.loc 1 335 1 is_stmt 0 view .LVU111
 371 00ac 10BD     		pop	{r4, pc}
 372              	.LVL18:
 373              	.L27:
 374              	.LCFI5:
 375              		.cfi_def_cfa_offset 0
 376              		.cfi_restore 4
 377              		.cfi_restore 14
 258:Drivers/STM32F1xx_HAL_Driver/Src/stm32f1xx_hal_adc_ex.c ****     
 378              		.loc 1 258 3 view .LVU112
 379 00ae 0220     		movs	r0, #2
 380              	.LVL19:
 381              		.loc 1 335 1 view .LVU113
 382 00b0 7047     		bx	lr
 383              	.L36:
 384 00b2 00BF     		.align	2
 385              	.L35:
 386 00b4 00280140 		.word	1073817600
 387              		.cfi_endproc
 388              	.LFE67:
 390              		.section	.text.HAL_ADCEx_InjectedStop,"ax",%progbits
 391              		.align	1
 392              		.global	HAL_ADCEx_InjectedStop
 393              		.syntax unified
 394              		.thumb
 395              		.thumb_func
 396              		.fpu softvfp
 398              	HAL_ADCEx_InjectedStop:
 399              	.LVL20:
 400              	.LFB68:
 336:Drivers/STM32F1xx_HAL_Driver/Src/stm32f1xx_hal_adc_ex.c **** 
 337:Drivers/STM32F1xx_HAL_Driver/Src/stm32f1xx_hal_adc_ex.c **** /**
 338:Drivers/STM32F1xx_HAL_Driver/Src/stm32f1xx_hal_adc_ex.c ****   * @brief  Stop conversion of injected channels. Disable ADC peripheral if
 339:Drivers/STM32F1xx_HAL_Driver/Src/stm32f1xx_hal_adc_ex.c ****   *         no regular conversion is on going.
 340:Drivers/STM32F1xx_HAL_Driver/Src/stm32f1xx_hal_adc_ex.c ****   * @note   If ADC must be disabled and if conversion is on going on 
 341:Drivers/STM32F1xx_HAL_Driver/Src/stm32f1xx_hal_adc_ex.c ****   *         regular group, function HAL_ADC_Stop must be used to stop both
 342:Drivers/STM32F1xx_HAL_Driver/Src/stm32f1xx_hal_adc_ex.c ****   *         injected and regular groups, and disable the ADC.
 343:Drivers/STM32F1xx_HAL_Driver/Src/stm32f1xx_hal_adc_ex.c ****   * @note   If injected group mode auto-injection is enabled,
 344:Drivers/STM32F1xx_HAL_Driver/Src/stm32f1xx_hal_adc_ex.c ****   *         function HAL_ADC_Stop must be used.
ARM GAS  /tmp/cc6gSbL8.s 			page 15


 345:Drivers/STM32F1xx_HAL_Driver/Src/stm32f1xx_hal_adc_ex.c ****   * @note   In case of auto-injection mode, HAL_ADC_Stop must be used.
 346:Drivers/STM32F1xx_HAL_Driver/Src/stm32f1xx_hal_adc_ex.c ****   * @param  hadc: ADC handle
 347:Drivers/STM32F1xx_HAL_Driver/Src/stm32f1xx_hal_adc_ex.c ****   * @retval None
 348:Drivers/STM32F1xx_HAL_Driver/Src/stm32f1xx_hal_adc_ex.c ****   */
 349:Drivers/STM32F1xx_HAL_Driver/Src/stm32f1xx_hal_adc_ex.c **** HAL_StatusTypeDef HAL_ADCEx_InjectedStop(ADC_HandleTypeDef* hadc)
 350:Drivers/STM32F1xx_HAL_Driver/Src/stm32f1xx_hal_adc_ex.c **** {
 401              		.loc 1 350 1 is_stmt 1 view -0
 402              		.cfi_startproc
 403              		@ args = 0, pretend = 0, frame = 0
 404              		@ frame_needed = 0, uses_anonymous_args = 0
 351:Drivers/STM32F1xx_HAL_Driver/Src/stm32f1xx_hal_adc_ex.c ****   HAL_StatusTypeDef tmp_hal_status = HAL_OK;
 405              		.loc 1 351 3 view .LVU115
 352:Drivers/STM32F1xx_HAL_Driver/Src/stm32f1xx_hal_adc_ex.c ****   
 353:Drivers/STM32F1xx_HAL_Driver/Src/stm32f1xx_hal_adc_ex.c ****   /* Check the parameters */
 354:Drivers/STM32F1xx_HAL_Driver/Src/stm32f1xx_hal_adc_ex.c ****   assert_param(IS_ADC_ALL_INSTANCE(hadc->Instance));
 406              		.loc 1 354 3 view .LVU116
 355:Drivers/STM32F1xx_HAL_Driver/Src/stm32f1xx_hal_adc_ex.c **** 
 356:Drivers/STM32F1xx_HAL_Driver/Src/stm32f1xx_hal_adc_ex.c ****   /* Process locked */
 357:Drivers/STM32F1xx_HAL_Driver/Src/stm32f1xx_hal_adc_ex.c ****   __HAL_LOCK(hadc);
 407              		.loc 1 357 3 view .LVU117
 408              		.loc 1 357 3 view .LVU118
 409 0000 90F82430 		ldrb	r3, [r0, #36]	@ zero_extendqisi2
 410 0004 012B     		cmp	r3, #1
 411 0006 23D0     		beq	.L41
 350:Drivers/STM32F1xx_HAL_Driver/Src/stm32f1xx_hal_adc_ex.c ****   HAL_StatusTypeDef tmp_hal_status = HAL_OK;
 412              		.loc 1 350 1 is_stmt 0 discriminator 2 view .LVU119
 413 0008 10B5     		push	{r4, lr}
 414              	.LCFI6:
 415              		.cfi_def_cfa_offset 8
 416              		.cfi_offset 4, -8
 417              		.cfi_offset 14, -4
 418 000a 0446     		mov	r4, r0
 419              		.loc 1 357 3 is_stmt 1 discriminator 2 view .LVU120
 420 000c 0123     		movs	r3, #1
 421 000e 80F82430 		strb	r3, [r0, #36]
 422              		.loc 1 357 3 discriminator 2 view .LVU121
 358:Drivers/STM32F1xx_HAL_Driver/Src/stm32f1xx_hal_adc_ex.c ****     
 359:Drivers/STM32F1xx_HAL_Driver/Src/stm32f1xx_hal_adc_ex.c ****   /* Stop potential conversion and disable ADC peripheral                     */
 360:Drivers/STM32F1xx_HAL_Driver/Src/stm32f1xx_hal_adc_ex.c ****   /* Conditioned to:                                                          */
 361:Drivers/STM32F1xx_HAL_Driver/Src/stm32f1xx_hal_adc_ex.c ****   /* - No conversion on the other group (regular group) is intended to        */
 362:Drivers/STM32F1xx_HAL_Driver/Src/stm32f1xx_hal_adc_ex.c ****   /*   continue (injected and regular groups stop conversion and ADC disable  */
 363:Drivers/STM32F1xx_HAL_Driver/Src/stm32f1xx_hal_adc_ex.c ****   /*   are common)                                                            */
 364:Drivers/STM32F1xx_HAL_Driver/Src/stm32f1xx_hal_adc_ex.c ****   /* - In case of auto-injection mode, HAL_ADC_Stop must be used.             */
 365:Drivers/STM32F1xx_HAL_Driver/Src/stm32f1xx_hal_adc_ex.c ****   if(((hadc->State & HAL_ADC_STATE_REG_BUSY) == RESET)  &&
 423              		.loc 1 365 3 discriminator 2 view .LVU122
 424              		.loc 1 365 12 is_stmt 0 discriminator 2 view .LVU123
 425 0012 836A     		ldr	r3, [r0, #40]
 426              		.loc 1 365 5 discriminator 2 view .LVU124
 427 0014 13F4807F 		tst	r3, #256
 428 0018 04D1     		bne	.L39
 366:Drivers/STM32F1xx_HAL_Driver/Src/stm32f1xx_hal_adc_ex.c ****      HAL_IS_BIT_CLR(hadc->Instance->CR1, ADC_CR1_JAUTO)   )
 429              		.loc 1 366 6 discriminator 1 view .LVU125
 430 001a 0368     		ldr	r3, [r0]
 431 001c 5B68     		ldr	r3, [r3, #4]
 365:Drivers/STM32F1xx_HAL_Driver/Src/stm32f1xx_hal_adc_ex.c ****      HAL_IS_BIT_CLR(hadc->Instance->CR1, ADC_CR1_JAUTO)   )
 432              		.loc 1 365 57 discriminator 1 view .LVU126
 433 001e 13F4806F 		tst	r3, #1024
ARM GAS  /tmp/cc6gSbL8.s 			page 16


 434 0022 08D0     		beq	.L46
 435              	.L39:
 367:Drivers/STM32F1xx_HAL_Driver/Src/stm32f1xx_hal_adc_ex.c ****   {
 368:Drivers/STM32F1xx_HAL_Driver/Src/stm32f1xx_hal_adc_ex.c ****     /* Stop potential conversion on going, on regular and injected groups */
 369:Drivers/STM32F1xx_HAL_Driver/Src/stm32f1xx_hal_adc_ex.c ****     /* Disable ADC peripheral */
 370:Drivers/STM32F1xx_HAL_Driver/Src/stm32f1xx_hal_adc_ex.c ****     tmp_hal_status = ADC_ConversionStop_Disable(hadc);
 371:Drivers/STM32F1xx_HAL_Driver/Src/stm32f1xx_hal_adc_ex.c ****     
 372:Drivers/STM32F1xx_HAL_Driver/Src/stm32f1xx_hal_adc_ex.c ****     /* Check if ADC is effectively disabled */
 373:Drivers/STM32F1xx_HAL_Driver/Src/stm32f1xx_hal_adc_ex.c ****     if (tmp_hal_status == HAL_OK)
 374:Drivers/STM32F1xx_HAL_Driver/Src/stm32f1xx_hal_adc_ex.c ****     {
 375:Drivers/STM32F1xx_HAL_Driver/Src/stm32f1xx_hal_adc_ex.c ****       /* Set ADC state */
 376:Drivers/STM32F1xx_HAL_Driver/Src/stm32f1xx_hal_adc_ex.c ****       ADC_STATE_CLR_SET(hadc->State,
 377:Drivers/STM32F1xx_HAL_Driver/Src/stm32f1xx_hal_adc_ex.c ****                         HAL_ADC_STATE_REG_BUSY | HAL_ADC_STATE_INJ_BUSY,
 378:Drivers/STM32F1xx_HAL_Driver/Src/stm32f1xx_hal_adc_ex.c ****                         HAL_ADC_STATE_READY);
 379:Drivers/STM32F1xx_HAL_Driver/Src/stm32f1xx_hal_adc_ex.c ****     }
 380:Drivers/STM32F1xx_HAL_Driver/Src/stm32f1xx_hal_adc_ex.c ****   }
 381:Drivers/STM32F1xx_HAL_Driver/Src/stm32f1xx_hal_adc_ex.c ****   else
 382:Drivers/STM32F1xx_HAL_Driver/Src/stm32f1xx_hal_adc_ex.c ****   {
 383:Drivers/STM32F1xx_HAL_Driver/Src/stm32f1xx_hal_adc_ex.c ****     /* Update ADC state machine to error */
 384:Drivers/STM32F1xx_HAL_Driver/Src/stm32f1xx_hal_adc_ex.c ****     SET_BIT(hadc->State, HAL_ADC_STATE_ERROR_CONFIG);
 436              		.loc 1 384 5 is_stmt 1 view .LVU127
 437 0024 A36A     		ldr	r3, [r4, #40]
 438 0026 43F02003 		orr	r3, r3, #32
 439 002a A362     		str	r3, [r4, #40]
 385:Drivers/STM32F1xx_HAL_Driver/Src/stm32f1xx_hal_adc_ex.c ****       
 386:Drivers/STM32F1xx_HAL_Driver/Src/stm32f1xx_hal_adc_ex.c ****     tmp_hal_status = HAL_ERROR;
 440              		.loc 1 386 5 view .LVU128
 441              	.LVL21:
 442              		.loc 1 386 20 is_stmt 0 view .LVU129
 443 002c 0120     		movs	r0, #1
 444              	.LVL22:
 445              	.L40:
 387:Drivers/STM32F1xx_HAL_Driver/Src/stm32f1xx_hal_adc_ex.c ****   }
 388:Drivers/STM32F1xx_HAL_Driver/Src/stm32f1xx_hal_adc_ex.c ****   
 389:Drivers/STM32F1xx_HAL_Driver/Src/stm32f1xx_hal_adc_ex.c ****   /* Process unlocked */
 390:Drivers/STM32F1xx_HAL_Driver/Src/stm32f1xx_hal_adc_ex.c ****   __HAL_UNLOCK(hadc);
 446              		.loc 1 390 3 is_stmt 1 view .LVU130
 447              		.loc 1 390 3 view .LVU131
 448 002e 0023     		movs	r3, #0
 449 0030 84F82430 		strb	r3, [r4, #36]
 450              		.loc 1 390 3 view .LVU132
 391:Drivers/STM32F1xx_HAL_Driver/Src/stm32f1xx_hal_adc_ex.c ****   
 392:Drivers/STM32F1xx_HAL_Driver/Src/stm32f1xx_hal_adc_ex.c ****   /* Return function status */
 393:Drivers/STM32F1xx_HAL_Driver/Src/stm32f1xx_hal_adc_ex.c ****   return tmp_hal_status;
 451              		.loc 1 393 3 view .LVU133
 394:Drivers/STM32F1xx_HAL_Driver/Src/stm32f1xx_hal_adc_ex.c **** }
 452              		.loc 1 394 1 is_stmt 0 view .LVU134
 453 0034 10BD     		pop	{r4, pc}
 454              	.LVL23:
 455              	.L46:
 370:Drivers/STM32F1xx_HAL_Driver/Src/stm32f1xx_hal_adc_ex.c ****     
 456              		.loc 1 370 5 is_stmt 1 view .LVU135
 370:Drivers/STM32F1xx_HAL_Driver/Src/stm32f1xx_hal_adc_ex.c ****     
 457              		.loc 1 370 22 is_stmt 0 view .LVU136
 458 0036 FFF7FEFF 		bl	ADC_ConversionStop_Disable
 459              	.LVL24:
 373:Drivers/STM32F1xx_HAL_Driver/Src/stm32f1xx_hal_adc_ex.c ****     {
ARM GAS  /tmp/cc6gSbL8.s 			page 17


 460              		.loc 1 373 5 is_stmt 1 view .LVU137
 373:Drivers/STM32F1xx_HAL_Driver/Src/stm32f1xx_hal_adc_ex.c ****     {
 461              		.loc 1 373 8 is_stmt 0 view .LVU138
 462 003a 0028     		cmp	r0, #0
 463 003c F7D1     		bne	.L40
 376:Drivers/STM32F1xx_HAL_Driver/Src/stm32f1xx_hal_adc_ex.c ****                         HAL_ADC_STATE_REG_BUSY | HAL_ADC_STATE_INJ_BUSY,
 464              		.loc 1 376 7 is_stmt 1 view .LVU139
 465 003e A36A     		ldr	r3, [r4, #40]
 466 0040 23F48853 		bic	r3, r3, #4352
 467 0044 23F00103 		bic	r3, r3, #1
 468 0048 43F00103 		orr	r3, r3, #1
 469 004c A362     		str	r3, [r4, #40]
 470 004e EEE7     		b	.L40
 471              	.LVL25:
 472              	.L41:
 473              	.LCFI7:
 474              		.cfi_def_cfa_offset 0
 475              		.cfi_restore 4
 476              		.cfi_restore 14
 357:Drivers/STM32F1xx_HAL_Driver/Src/stm32f1xx_hal_adc_ex.c ****     
 477              		.loc 1 357 3 is_stmt 0 view .LVU140
 478 0050 0220     		movs	r0, #2
 479              	.LVL26:
 480              		.loc 1 394 1 view .LVU141
 481 0052 7047     		bx	lr
 482              		.cfi_endproc
 483              	.LFE68:
 485              		.section	.text.HAL_ADCEx_InjectedPollForConversion,"ax",%progbits
 486              		.align	1
 487              		.global	HAL_ADCEx_InjectedPollForConversion
 488              		.syntax unified
 489              		.thumb
 490              		.thumb_func
 491              		.fpu softvfp
 493              	HAL_ADCEx_InjectedPollForConversion:
 494              	.LVL27:
 495              	.LFB69:
 395:Drivers/STM32F1xx_HAL_Driver/Src/stm32f1xx_hal_adc_ex.c **** 
 396:Drivers/STM32F1xx_HAL_Driver/Src/stm32f1xx_hal_adc_ex.c **** /**
 397:Drivers/STM32F1xx_HAL_Driver/Src/stm32f1xx_hal_adc_ex.c ****   * @brief  Wait for injected group conversion to be completed.
 398:Drivers/STM32F1xx_HAL_Driver/Src/stm32f1xx_hal_adc_ex.c ****   * @param  hadc: ADC handle
 399:Drivers/STM32F1xx_HAL_Driver/Src/stm32f1xx_hal_adc_ex.c ****   * @param  Timeout: Timeout value in millisecond.
 400:Drivers/STM32F1xx_HAL_Driver/Src/stm32f1xx_hal_adc_ex.c ****   * @retval HAL status
 401:Drivers/STM32F1xx_HAL_Driver/Src/stm32f1xx_hal_adc_ex.c ****   */
 402:Drivers/STM32F1xx_HAL_Driver/Src/stm32f1xx_hal_adc_ex.c **** HAL_StatusTypeDef HAL_ADCEx_InjectedPollForConversion(ADC_HandleTypeDef* hadc, uint32_t Timeout)
 403:Drivers/STM32F1xx_HAL_Driver/Src/stm32f1xx_hal_adc_ex.c **** {
 496              		.loc 1 403 1 is_stmt 1 view -0
 497              		.cfi_startproc
 498              		@ args = 0, pretend = 0, frame = 8
 499              		@ frame_needed = 0, uses_anonymous_args = 0
 500              		.loc 1 403 1 is_stmt 0 view .LVU143
 501 0000 F0B5     		push	{r4, r5, r6, r7, lr}
 502              	.LCFI8:
 503              		.cfi_def_cfa_offset 20
 504              		.cfi_offset 4, -20
 505              		.cfi_offset 5, -16
 506              		.cfi_offset 6, -12
ARM GAS  /tmp/cc6gSbL8.s 			page 18


 507              		.cfi_offset 7, -8
 508              		.cfi_offset 14, -4
 509 0002 83B0     		sub	sp, sp, #12
 510              	.LCFI9:
 511              		.cfi_def_cfa_offset 32
 512 0004 0546     		mov	r5, r0
 513 0006 0C46     		mov	r4, r1
 404:Drivers/STM32F1xx_HAL_Driver/Src/stm32f1xx_hal_adc_ex.c ****   uint32_t tickstart;
 514              		.loc 1 404 3 is_stmt 1 view .LVU144
 405:Drivers/STM32F1xx_HAL_Driver/Src/stm32f1xx_hal_adc_ex.c **** 
 406:Drivers/STM32F1xx_HAL_Driver/Src/stm32f1xx_hal_adc_ex.c ****   /* Variables for polling in case of scan mode enabled and polling for each  */
 407:Drivers/STM32F1xx_HAL_Driver/Src/stm32f1xx_hal_adc_ex.c ****   /* conversion.                                                              */
 408:Drivers/STM32F1xx_HAL_Driver/Src/stm32f1xx_hal_adc_ex.c ****   __IO uint32_t Conversion_Timeout_CPU_cycles = 0U;
 515              		.loc 1 408 3 view .LVU145
 516              		.loc 1 408 17 is_stmt 0 view .LVU146
 517 0008 0023     		movs	r3, #0
 518 000a 0193     		str	r3, [sp, #4]
 409:Drivers/STM32F1xx_HAL_Driver/Src/stm32f1xx_hal_adc_ex.c ****   uint32_t Conversion_Timeout_CPU_cycles_max = 0U;
 519              		.loc 1 409 3 is_stmt 1 view .LVU147
 520              	.LVL28:
 410:Drivers/STM32F1xx_HAL_Driver/Src/stm32f1xx_hal_adc_ex.c ****   
 411:Drivers/STM32F1xx_HAL_Driver/Src/stm32f1xx_hal_adc_ex.c ****   /* Check the parameters */
 412:Drivers/STM32F1xx_HAL_Driver/Src/stm32f1xx_hal_adc_ex.c ****   assert_param(IS_ADC_ALL_INSTANCE(hadc->Instance));
 521              		.loc 1 412 3 view .LVU148
 413:Drivers/STM32F1xx_HAL_Driver/Src/stm32f1xx_hal_adc_ex.c **** 
 414:Drivers/STM32F1xx_HAL_Driver/Src/stm32f1xx_hal_adc_ex.c ****   /* Get timeout */
 415:Drivers/STM32F1xx_HAL_Driver/Src/stm32f1xx_hal_adc_ex.c ****   tickstart = HAL_GetTick();  
 522              		.loc 1 415 3 view .LVU149
 523              		.loc 1 415 15 is_stmt 0 view .LVU150
 524 000c FFF7FEFF 		bl	HAL_GetTick
 525              	.LVL29:
 526              		.loc 1 415 15 view .LVU151
 527 0010 0646     		mov	r6, r0
 528              	.LVL30:
 416:Drivers/STM32F1xx_HAL_Driver/Src/stm32f1xx_hal_adc_ex.c ****      
 417:Drivers/STM32F1xx_HAL_Driver/Src/stm32f1xx_hal_adc_ex.c ****   /* Polling for end of conversion: differentiation if single/sequence        */
 418:Drivers/STM32F1xx_HAL_Driver/Src/stm32f1xx_hal_adc_ex.c ****   /* conversion.                                                              */
 419:Drivers/STM32F1xx_HAL_Driver/Src/stm32f1xx_hal_adc_ex.c ****   /* For injected group, flag JEOC is set only at the end of the sequence,    */
 420:Drivers/STM32F1xx_HAL_Driver/Src/stm32f1xx_hal_adc_ex.c ****   /* not for each conversion within the sequence.                             */
 421:Drivers/STM32F1xx_HAL_Driver/Src/stm32f1xx_hal_adc_ex.c ****   /*  - If single conversion for injected group (scan mode disabled or        */
 422:Drivers/STM32F1xx_HAL_Driver/Src/stm32f1xx_hal_adc_ex.c ****   /*    InjectedNbrOfConversion ==1), flag JEOC is used to determine the      */
 423:Drivers/STM32F1xx_HAL_Driver/Src/stm32f1xx_hal_adc_ex.c ****   /*    conversion completion.                                                */
 424:Drivers/STM32F1xx_HAL_Driver/Src/stm32f1xx_hal_adc_ex.c ****   /*  - If sequence conversion for injected group (scan mode enabled and      */
 425:Drivers/STM32F1xx_HAL_Driver/Src/stm32f1xx_hal_adc_ex.c ****   /*    InjectedNbrOfConversion >=2), flag JEOC is set only at the end of the */
 426:Drivers/STM32F1xx_HAL_Driver/Src/stm32f1xx_hal_adc_ex.c ****   /*    sequence.                                                             */
 427:Drivers/STM32F1xx_HAL_Driver/Src/stm32f1xx_hal_adc_ex.c ****   /*    To poll for each conversion, the maximum conversion time is computed  */
 428:Drivers/STM32F1xx_HAL_Driver/Src/stm32f1xx_hal_adc_ex.c ****   /*    from ADC conversion time (selected sampling time + conversion time of */
 429:Drivers/STM32F1xx_HAL_Driver/Src/stm32f1xx_hal_adc_ex.c ****   /*    12.5 ADC clock cycles) and APB2/ADC clock prescalers (depending on    */
 430:Drivers/STM32F1xx_HAL_Driver/Src/stm32f1xx_hal_adc_ex.c ****   /*    settings, conversion time range can be from 28 to 32256 CPU cycles).  */
 431:Drivers/STM32F1xx_HAL_Driver/Src/stm32f1xx_hal_adc_ex.c ****   /*    As flag JEOC is not set after each conversion, no timeout status can  */
 432:Drivers/STM32F1xx_HAL_Driver/Src/stm32f1xx_hal_adc_ex.c ****   /*    be set.                                                               */
 433:Drivers/STM32F1xx_HAL_Driver/Src/stm32f1xx_hal_adc_ex.c ****   if ((hadc->Instance->JSQR & ADC_JSQR_JL) == RESET)
 529              		.loc 1 433 3 is_stmt 1 view .LVU152
 530              		.loc 1 433 12 is_stmt 0 view .LVU153
 531 0012 2B68     		ldr	r3, [r5]
 532              		.loc 1 433 22 view .LVU154
 533 0014 9B6B     		ldr	r3, [r3, #56]
ARM GAS  /tmp/cc6gSbL8.s 			page 19


 534              		.loc 1 433 6 view .LVU155
 535 0016 13F4401F 		tst	r3, #3145728
 536 001a 16D1     		bne	.L74
 537              	.LVL31:
 538              	.L50:
 434:Drivers/STM32F1xx_HAL_Driver/Src/stm32f1xx_hal_adc_ex.c ****   {
 435:Drivers/STM32F1xx_HAL_Driver/Src/stm32f1xx_hal_adc_ex.c ****     /* Wait until End of Conversion flag is raised */
 436:Drivers/STM32F1xx_HAL_Driver/Src/stm32f1xx_hal_adc_ex.c ****     while(HAL_IS_BIT_CLR(hadc->Instance->SR, ADC_FLAG_JEOC))
 539              		.loc 1 436 10 is_stmt 1 view .LVU156
 540              		.loc 1 436 11 is_stmt 0 view .LVU157
 541 001c 2B68     		ldr	r3, [r5]
 542 001e 1B68     		ldr	r3, [r3]
 543              		.loc 1 436 10 view .LVU158
 544 0020 13F0040F 		tst	r3, #4
 545 0024 63D1     		bne	.L54
 437:Drivers/STM32F1xx_HAL_Driver/Src/stm32f1xx_hal_adc_ex.c ****     {
 438:Drivers/STM32F1xx_HAL_Driver/Src/stm32f1xx_hal_adc_ex.c ****       /* Check if timeout is disabled (set to infinite wait) */
 439:Drivers/STM32F1xx_HAL_Driver/Src/stm32f1xx_hal_adc_ex.c ****       if(Timeout != HAL_MAX_DELAY)
 546              		.loc 1 439 7 is_stmt 1 view .LVU159
 547              		.loc 1 439 9 is_stmt 0 view .LVU160
 548 0026 B4F1FF3F 		cmp	r4, #-1
 549 002a F7D0     		beq	.L50
 440:Drivers/STM32F1xx_HAL_Driver/Src/stm32f1xx_hal_adc_ex.c ****       {
 441:Drivers/STM32F1xx_HAL_Driver/Src/stm32f1xx_hal_adc_ex.c ****         if((Timeout == 0U) || ((HAL_GetTick() - tickstart ) > Timeout))
 550              		.loc 1 441 9 is_stmt 1 view .LVU161
 551              		.loc 1 441 11 is_stmt 0 view .LVU162
 552 002c 24B1     		cbz	r4, .L51
 553              		.loc 1 441 33 discriminator 1 view .LVU163
 554 002e FFF7FEFF 		bl	HAL_GetTick
 555              	.LVL32:
 556              		.loc 1 441 47 discriminator 1 view .LVU164
 557 0032 801B     		subs	r0, r0, r6
 558              		.loc 1 441 28 discriminator 1 view .LVU165
 559 0034 A042     		cmp	r0, r4
 560 0036 F1D9     		bls	.L50
 561              	.L51:
 442:Drivers/STM32F1xx_HAL_Driver/Src/stm32f1xx_hal_adc_ex.c ****         {
 443:Drivers/STM32F1xx_HAL_Driver/Src/stm32f1xx_hal_adc_ex.c ****           /* Update ADC state machine to timeout */
 444:Drivers/STM32F1xx_HAL_Driver/Src/stm32f1xx_hal_adc_ex.c ****           SET_BIT(hadc->State, HAL_ADC_STATE_TIMEOUT);
 562              		.loc 1 444 11 is_stmt 1 view .LVU166
 563 0038 AB6A     		ldr	r3, [r5, #40]
 564 003a 43F00403 		orr	r3, r3, #4
 565 003e AB62     		str	r3, [r5, #40]
 445:Drivers/STM32F1xx_HAL_Driver/Src/stm32f1xx_hal_adc_ex.c ****           
 446:Drivers/STM32F1xx_HAL_Driver/Src/stm32f1xx_hal_adc_ex.c ****           /* Process unlocked */
 447:Drivers/STM32F1xx_HAL_Driver/Src/stm32f1xx_hal_adc_ex.c ****           __HAL_UNLOCK(hadc);
 566              		.loc 1 447 11 view .LVU167
 567              		.loc 1 447 11 view .LVU168
 568 0040 0023     		movs	r3, #0
 569 0042 85F82430 		strb	r3, [r5, #36]
 570              		.loc 1 447 11 view .LVU169
 448:Drivers/STM32F1xx_HAL_Driver/Src/stm32f1xx_hal_adc_ex.c ****           
 449:Drivers/STM32F1xx_HAL_Driver/Src/stm32f1xx_hal_adc_ex.c ****           return HAL_TIMEOUT;
 571              		.loc 1 449 11 view .LVU170
 572              		.loc 1 449 18 is_stmt 0 view .LVU171
 573 0046 0320     		movs	r0, #3
 574 0048 7DE0     		b	.L52
ARM GAS  /tmp/cc6gSbL8.s 			page 20


 575              	.LVL33:
 576              	.L74:
 450:Drivers/STM32F1xx_HAL_Driver/Src/stm32f1xx_hal_adc_ex.c ****         }
 451:Drivers/STM32F1xx_HAL_Driver/Src/stm32f1xx_hal_adc_ex.c ****       }
 452:Drivers/STM32F1xx_HAL_Driver/Src/stm32f1xx_hal_adc_ex.c ****     }
 453:Drivers/STM32F1xx_HAL_Driver/Src/stm32f1xx_hal_adc_ex.c ****   }
 454:Drivers/STM32F1xx_HAL_Driver/Src/stm32f1xx_hal_adc_ex.c ****   else
 455:Drivers/STM32F1xx_HAL_Driver/Src/stm32f1xx_hal_adc_ex.c ****   {
 456:Drivers/STM32F1xx_HAL_Driver/Src/stm32f1xx_hal_adc_ex.c ****     /* Replace polling by wait for maximum conversion time */
 457:Drivers/STM32F1xx_HAL_Driver/Src/stm32f1xx_hal_adc_ex.c ****     /*  - Computation of CPU clock cycles corresponding to ADC clock cycles   */
 458:Drivers/STM32F1xx_HAL_Driver/Src/stm32f1xx_hal_adc_ex.c ****     /*    and ADC maximum conversion cycles on all channels.                  */
 459:Drivers/STM32F1xx_HAL_Driver/Src/stm32f1xx_hal_adc_ex.c ****     /*  - Wait for the expected ADC clock cycles delay                        */
 460:Drivers/STM32F1xx_HAL_Driver/Src/stm32f1xx_hal_adc_ex.c ****     Conversion_Timeout_CPU_cycles_max = ((SystemCoreClock
 577              		.loc 1 460 5 is_stmt 1 view .LVU172
 461:Drivers/STM32F1xx_HAL_Driver/Src/stm32f1xx_hal_adc_ex.c ****                                           / HAL_RCCEx_GetPeriphCLKFreq(RCC_PERIPHCLK_ADC))
 578              		.loc 1 461 43 is_stmt 0 view .LVU173
 579 004a 424B     		ldr	r3, .L76
 580 004c 1F68     		ldr	r7, [r3]
 581              		.loc 1 461 45 view .LVU174
 582 004e 0220     		movs	r0, #2
 583              	.LVL34:
 584              		.loc 1 461 45 view .LVU175
 585 0050 FFF7FEFF 		bl	HAL_RCCEx_GetPeriphCLKFreq
 586              	.LVL35:
 587              		.loc 1 461 43 view .LVU176
 588 0054 B7FBF0F0 		udiv	r0, r7, r0
 462:Drivers/STM32F1xx_HAL_Driver/Src/stm32f1xx_hal_adc_ex.c ****                                          * ADC_CONVCYCLES_MAX_RANGE(hadc)                 );
 589              		.loc 1 462 44 view .LVU177
 590 0058 2B68     		ldr	r3, [r5]
 591 005a 1969     		ldr	r1, [r3, #16]
 592 005c 3E4A     		ldr	r2, .L76+4
 593 005e 1142     		tst	r1, r2
 594 0060 0ED1     		bne	.L55
 595              		.loc 1 462 44 discriminator 1 view .LVU178
 596 0062 D968     		ldr	r1, [r3, #12]
 597 0064 02F15C42 		add	r2, r2, #-603979776
 598 0068 1142     		tst	r1, r2
 599 006a 09D1     		bne	.L55
 600              		.loc 1 462 44 discriminator 3 view .LVU179
 601 006c 1969     		ldr	r1, [r3, #16]
 602 006e 3B4A     		ldr	r2, .L76+8
 603 0070 1142     		tst	r1, r2
 604 0072 18D1     		bne	.L63
 605              		.loc 1 462 44 discriminator 5 view .LVU180
 606 0074 DA68     		ldr	r2, [r3, #12]
 607 0076 3A4B     		ldr	r3, .L76+12
 608 0078 1A42     		tst	r2, r3
 609 007a 16D0     		beq	.L64
 610              		.loc 1 462 44 view .LVU181
 611 007c 2927     		movs	r7, #41
 612 007e 19E0     		b	.L56
 613              	.L55:
 614              		.loc 1 462 44 discriminator 4 view .LVU182
 615 0080 1969     		ldr	r1, [r3, #16]
 616 0082 364A     		ldr	r2, .L76+8
 617 0084 1142     		tst	r1, r2
 618 0086 04D1     		bne	.L57
ARM GAS  /tmp/cc6gSbL8.s 			page 21


 619              		.loc 1 462 44 discriminator 11 view .LVU183
 620 0088 D968     		ldr	r1, [r3, #12]
 621 008a 02F16E42 		add	r2, r2, #-301989888
 622 008e 1142     		tst	r1, r2
 623 0090 0DD0     		beq	.L65
 624              	.L57:
 625              		.loc 1 462 44 discriminator 14 view .LVU184
 626 0092 1969     		ldr	r1, [r3, #16]
 627 0094 334A     		ldr	r2, .L76+16
 628 0096 0A40     		ands	r2, r2, r1
 629 0098 5AB9     		cbnz	r2, .L66
 630              		.loc 1 462 44 discriminator 15 view .LVU185
 631 009a DA68     		ldr	r2, [r3, #12]
 632 009c 314B     		ldr	r3, .L76+16
 633 009e 1340     		ands	r3, r3, r2
 634 00a0 5BB1     		cbz	r3, .L67
 635              		.loc 1 462 44 view .LVU186
 636 00a2 FC27     		movs	r7, #252
 637 00a4 06E0     		b	.L56
 638              	.L63:
 639 00a6 2927     		movs	r7, #41
 640 00a8 04E0     		b	.L56
 641              	.L64:
 642 00aa 1427     		movs	r7, #20
 643 00ac 02E0     		b	.L56
 644              	.L65:
 645 00ae 5427     		movs	r7, #84
 646 00b0 00E0     		b	.L56
 647              	.L66:
 648 00b2 FC27     		movs	r7, #252
 649              	.L56:
 460:Drivers/STM32F1xx_HAL_Driver/Src/stm32f1xx_hal_adc_ex.c ****                                           / HAL_RCCEx_GetPeriphCLKFreq(RCC_PERIPHCLK_ADC))
 650              		.loc 1 460 39 view .LVU187
 651 00b4 07FB00F7 		mul	r7, r7, r0
 652              	.LVL36:
 463:Drivers/STM32F1xx_HAL_Driver/Src/stm32f1xx_hal_adc_ex.c ****     
 464:Drivers/STM32F1xx_HAL_Driver/Src/stm32f1xx_hal_adc_ex.c ****     while(Conversion_Timeout_CPU_cycles < Conversion_Timeout_CPU_cycles_max)
 653              		.loc 1 464 5 is_stmt 1 view .LVU188
 654              		.loc 1 464 10 is_stmt 0 view .LVU189
 655 00b8 04E0     		b	.L58
 656              	.LVL37:
 657              	.L67:
 462:Drivers/STM32F1xx_HAL_Driver/Src/stm32f1xx_hal_adc_ex.c ****     
 658              		.loc 1 462 44 view .LVU190
 659 00ba 5427     		movs	r7, #84
 660 00bc FAE7     		b	.L56
 661              	.LVL38:
 662              	.L59:
 465:Drivers/STM32F1xx_HAL_Driver/Src/stm32f1xx_hal_adc_ex.c ****     {
 466:Drivers/STM32F1xx_HAL_Driver/Src/stm32f1xx_hal_adc_ex.c ****       /* Check if timeout is disabled (set to infinite wait) */
 467:Drivers/STM32F1xx_HAL_Driver/Src/stm32f1xx_hal_adc_ex.c ****       if(Timeout != HAL_MAX_DELAY)
 468:Drivers/STM32F1xx_HAL_Driver/Src/stm32f1xx_hal_adc_ex.c ****       {
 469:Drivers/STM32F1xx_HAL_Driver/Src/stm32f1xx_hal_adc_ex.c ****         if((Timeout == 0)||((HAL_GetTick() - tickstart ) > Timeout))
 470:Drivers/STM32F1xx_HAL_Driver/Src/stm32f1xx_hal_adc_ex.c ****         {
 471:Drivers/STM32F1xx_HAL_Driver/Src/stm32f1xx_hal_adc_ex.c ****           /* Update ADC state machine to timeout */
 472:Drivers/STM32F1xx_HAL_Driver/Src/stm32f1xx_hal_adc_ex.c ****           SET_BIT(hadc->State, HAL_ADC_STATE_TIMEOUT);
 473:Drivers/STM32F1xx_HAL_Driver/Src/stm32f1xx_hal_adc_ex.c **** 
ARM GAS  /tmp/cc6gSbL8.s 			page 22


 474:Drivers/STM32F1xx_HAL_Driver/Src/stm32f1xx_hal_adc_ex.c ****           /* Process unlocked */
 475:Drivers/STM32F1xx_HAL_Driver/Src/stm32f1xx_hal_adc_ex.c ****           __HAL_UNLOCK(hadc);
 476:Drivers/STM32F1xx_HAL_Driver/Src/stm32f1xx_hal_adc_ex.c ****           
 477:Drivers/STM32F1xx_HAL_Driver/Src/stm32f1xx_hal_adc_ex.c ****           return HAL_TIMEOUT;
 478:Drivers/STM32F1xx_HAL_Driver/Src/stm32f1xx_hal_adc_ex.c ****         }
 479:Drivers/STM32F1xx_HAL_Driver/Src/stm32f1xx_hal_adc_ex.c ****       }
 480:Drivers/STM32F1xx_HAL_Driver/Src/stm32f1xx_hal_adc_ex.c ****       Conversion_Timeout_CPU_cycles ++;
 663              		.loc 1 480 7 is_stmt 1 view .LVU191
 664              		.loc 1 480 37 is_stmt 0 view .LVU192
 665 00be 019B     		ldr	r3, [sp, #4]
 666 00c0 0133     		adds	r3, r3, #1
 667 00c2 0193     		str	r3, [sp, #4]
 668              	.L58:
 464:Drivers/STM32F1xx_HAL_Driver/Src/stm32f1xx_hal_adc_ex.c ****     {
 669              		.loc 1 464 10 is_stmt 1 view .LVU193
 464:Drivers/STM32F1xx_HAL_Driver/Src/stm32f1xx_hal_adc_ex.c ****     {
 670              		.loc 1 464 41 is_stmt 0 view .LVU194
 671 00c4 019B     		ldr	r3, [sp, #4]
 464:Drivers/STM32F1xx_HAL_Driver/Src/stm32f1xx_hal_adc_ex.c ****     {
 672              		.loc 1 464 10 view .LVU195
 673 00c6 BB42     		cmp	r3, r7
 674 00c8 11D2     		bcs	.L54
 467:Drivers/STM32F1xx_HAL_Driver/Src/stm32f1xx_hal_adc_ex.c ****       {
 675              		.loc 1 467 7 is_stmt 1 view .LVU196
 467:Drivers/STM32F1xx_HAL_Driver/Src/stm32f1xx_hal_adc_ex.c ****       {
 676              		.loc 1 467 9 is_stmt 0 view .LVU197
 677 00ca B4F1FF3F 		cmp	r4, #-1
 678 00ce F6D0     		beq	.L59
 469:Drivers/STM32F1xx_HAL_Driver/Src/stm32f1xx_hal_adc_ex.c ****         {
 679              		.loc 1 469 9 is_stmt 1 view .LVU198
 469:Drivers/STM32F1xx_HAL_Driver/Src/stm32f1xx_hal_adc_ex.c ****         {
 680              		.loc 1 469 11 is_stmt 0 view .LVU199
 681 00d0 24B1     		cbz	r4, .L60
 469:Drivers/STM32F1xx_HAL_Driver/Src/stm32f1xx_hal_adc_ex.c ****         {
 682              		.loc 1 469 30 discriminator 1 view .LVU200
 683 00d2 FFF7FEFF 		bl	HAL_GetTick
 684              	.LVL39:
 469:Drivers/STM32F1xx_HAL_Driver/Src/stm32f1xx_hal_adc_ex.c ****         {
 685              		.loc 1 469 44 discriminator 1 view .LVU201
 686 00d6 831B     		subs	r3, r0, r6
 469:Drivers/STM32F1xx_HAL_Driver/Src/stm32f1xx_hal_adc_ex.c ****         {
 687              		.loc 1 469 26 discriminator 1 view .LVU202
 688 00d8 A342     		cmp	r3, r4
 689 00da F0D9     		bls	.L59
 690              	.L60:
 472:Drivers/STM32F1xx_HAL_Driver/Src/stm32f1xx_hal_adc_ex.c **** 
 691              		.loc 1 472 11 is_stmt 1 view .LVU203
 692 00dc AB6A     		ldr	r3, [r5, #40]
 693 00de 43F00403 		orr	r3, r3, #4
 694 00e2 AB62     		str	r3, [r5, #40]
 475:Drivers/STM32F1xx_HAL_Driver/Src/stm32f1xx_hal_adc_ex.c ****           
 695              		.loc 1 475 11 view .LVU204
 475:Drivers/STM32F1xx_HAL_Driver/Src/stm32f1xx_hal_adc_ex.c ****           
 696              		.loc 1 475 11 view .LVU205
 697 00e4 0023     		movs	r3, #0
 698 00e6 85F82430 		strb	r3, [r5, #36]
 475:Drivers/STM32F1xx_HAL_Driver/Src/stm32f1xx_hal_adc_ex.c ****           
ARM GAS  /tmp/cc6gSbL8.s 			page 23


 699              		.loc 1 475 11 view .LVU206
 477:Drivers/STM32F1xx_HAL_Driver/Src/stm32f1xx_hal_adc_ex.c ****         }
 700              		.loc 1 477 11 view .LVU207
 477:Drivers/STM32F1xx_HAL_Driver/Src/stm32f1xx_hal_adc_ex.c ****         }
 701              		.loc 1 477 18 is_stmt 0 view .LVU208
 702 00ea 0320     		movs	r0, #3
 703 00ec 2BE0     		b	.L52
 704              	.LVL40:
 705              	.L54:
 481:Drivers/STM32F1xx_HAL_Driver/Src/stm32f1xx_hal_adc_ex.c ****     }
 482:Drivers/STM32F1xx_HAL_Driver/Src/stm32f1xx_hal_adc_ex.c ****   }
 483:Drivers/STM32F1xx_HAL_Driver/Src/stm32f1xx_hal_adc_ex.c **** 
 484:Drivers/STM32F1xx_HAL_Driver/Src/stm32f1xx_hal_adc_ex.c ****   /* Clear injected group conversion flag */
 485:Drivers/STM32F1xx_HAL_Driver/Src/stm32f1xx_hal_adc_ex.c ****   /* Note: On STM32F1 ADC, clear regular conversion flag raised               */
 486:Drivers/STM32F1xx_HAL_Driver/Src/stm32f1xx_hal_adc_ex.c ****   /* simultaneously.                                                          */
 487:Drivers/STM32F1xx_HAL_Driver/Src/stm32f1xx_hal_adc_ex.c ****   __HAL_ADC_CLEAR_FLAG(hadc, ADC_FLAG_JSTRT | ADC_FLAG_JEOC | ADC_FLAG_EOC);
 706              		.loc 1 487 3 is_stmt 1 view .LVU209
 707 00ee 2B68     		ldr	r3, [r5]
 708 00f0 6FF00E02 		mvn	r2, #14
 709 00f4 1A60     		str	r2, [r3]
 488:Drivers/STM32F1xx_HAL_Driver/Src/stm32f1xx_hal_adc_ex.c ****   
 489:Drivers/STM32F1xx_HAL_Driver/Src/stm32f1xx_hal_adc_ex.c ****   /* Update ADC state machine */
 490:Drivers/STM32F1xx_HAL_Driver/Src/stm32f1xx_hal_adc_ex.c ****   SET_BIT(hadc->State, HAL_ADC_STATE_INJ_EOC);
 710              		.loc 1 490 3 view .LVU210
 711 00f6 AB6A     		ldr	r3, [r5, #40]
 712 00f8 43F40053 		orr	r3, r3, #8192
 713 00fc AB62     		str	r3, [r5, #40]
 491:Drivers/STM32F1xx_HAL_Driver/Src/stm32f1xx_hal_adc_ex.c ****   
 492:Drivers/STM32F1xx_HAL_Driver/Src/stm32f1xx_hal_adc_ex.c ****   /* Determine whether any further conversion upcoming on group injected      */
 493:Drivers/STM32F1xx_HAL_Driver/Src/stm32f1xx_hal_adc_ex.c ****   /* by external trigger or by automatic injected conversion                  */
 494:Drivers/STM32F1xx_HAL_Driver/Src/stm32f1xx_hal_adc_ex.c ****   /* from group regular.                                                      */
 495:Drivers/STM32F1xx_HAL_Driver/Src/stm32f1xx_hal_adc_ex.c ****   if(ADC_IS_SOFTWARE_START_INJECTED(hadc)                     || 
 714              		.loc 1 495 3 view .LVU211
 715              		.loc 1 495 6 is_stmt 0 view .LVU212
 716 00fe 2A68     		ldr	r2, [r5]
 717 0100 9368     		ldr	r3, [r2, #8]
 718 0102 03F4E043 		and	r3, r3, #28672
 719              		.loc 1 495 5 view .LVU213
 720 0106 B3F5E04F 		cmp	r3, #28672
 721 010a 0DD0     		beq	.L62
 496:Drivers/STM32F1xx_HAL_Driver/Src/stm32f1xx_hal_adc_ex.c ****      (HAL_IS_BIT_CLR(hadc->Instance->CR1, ADC_CR1_JAUTO) &&     
 722              		.loc 1 496 7 discriminator 1 view .LVU214
 723 010c 5368     		ldr	r3, [r2, #4]
 495:Drivers/STM32F1xx_HAL_Driver/Src/stm32f1xx_hal_adc_ex.c ****      (HAL_IS_BIT_CLR(hadc->Instance->CR1, ADC_CR1_JAUTO) &&     
 724              		.loc 1 495 63 discriminator 1 view .LVU215
 725 010e 13F4806F 		tst	r3, #1024
 726 0112 17D1     		bne	.L68
 497:Drivers/STM32F1xx_HAL_Driver/Src/stm32f1xx_hal_adc_ex.c ****      (ADC_IS_SOFTWARE_START_REGULAR(hadc)        &&
 727              		.loc 1 497 7 view .LVU216
 728 0114 9368     		ldr	r3, [r2, #8]
 729 0116 03F46023 		and	r3, r3, #917504
 496:Drivers/STM32F1xx_HAL_Driver/Src/stm32f1xx_hal_adc_ex.c ****      (HAL_IS_BIT_CLR(hadc->Instance->CR1, ADC_CR1_JAUTO) &&     
 730              		.loc 1 496 58 view .LVU217
 731 011a B3F5602F 		cmp	r3, #917504
 732 011e 01D0     		beq	.L75
 498:Drivers/STM32F1xx_HAL_Driver/Src/stm32f1xx_hal_adc_ex.c ****       (hadc->Init.ContinuousConvMode == DISABLE)   )        )   )
 499:Drivers/STM32F1xx_HAL_Driver/Src/stm32f1xx_hal_adc_ex.c ****   {
ARM GAS  /tmp/cc6gSbL8.s 			page 24


 500:Drivers/STM32F1xx_HAL_Driver/Src/stm32f1xx_hal_adc_ex.c ****     /* Set ADC state */
 501:Drivers/STM32F1xx_HAL_Driver/Src/stm32f1xx_hal_adc_ex.c ****     CLEAR_BIT(hadc->State, HAL_ADC_STATE_INJ_BUSY);   
 502:Drivers/STM32F1xx_HAL_Driver/Src/stm32f1xx_hal_adc_ex.c ****     
 503:Drivers/STM32F1xx_HAL_Driver/Src/stm32f1xx_hal_adc_ex.c ****     if (HAL_IS_BIT_CLR(hadc->State, HAL_ADC_STATE_REG_BUSY))
 504:Drivers/STM32F1xx_HAL_Driver/Src/stm32f1xx_hal_adc_ex.c ****     {
 505:Drivers/STM32F1xx_HAL_Driver/Src/stm32f1xx_hal_adc_ex.c ****       SET_BIT(hadc->State, HAL_ADC_STATE_READY);
 506:Drivers/STM32F1xx_HAL_Driver/Src/stm32f1xx_hal_adc_ex.c ****     }
 507:Drivers/STM32F1xx_HAL_Driver/Src/stm32f1xx_hal_adc_ex.c ****   }
 508:Drivers/STM32F1xx_HAL_Driver/Src/stm32f1xx_hal_adc_ex.c ****   
 509:Drivers/STM32F1xx_HAL_Driver/Src/stm32f1xx_hal_adc_ex.c ****   /* Return ADC state */
 510:Drivers/STM32F1xx_HAL_Driver/Src/stm32f1xx_hal_adc_ex.c ****   return HAL_OK;
 733              		.loc 1 510 10 view .LVU218
 734 0120 0020     		movs	r0, #0
 735 0122 10E0     		b	.L52
 736              	.L75:
 498:Drivers/STM32F1xx_HAL_Driver/Src/stm32f1xx_hal_adc_ex.c ****       (hadc->Init.ContinuousConvMode == DISABLE)   )        )   )
 737              		.loc 1 498 18 view .LVU219
 738 0124 EB68     		ldr	r3, [r5, #12]
 497:Drivers/STM32F1xx_HAL_Driver/Src/stm32f1xx_hal_adc_ex.c ****      (ADC_IS_SOFTWARE_START_REGULAR(hadc)        &&
 739              		.loc 1 497 50 view .LVU220
 740 0126 83B9     		cbnz	r3, .L70
 741              	.L62:
 501:Drivers/STM32F1xx_HAL_Driver/Src/stm32f1xx_hal_adc_ex.c ****     
 742              		.loc 1 501 5 is_stmt 1 view .LVU221
 743 0128 AB6A     		ldr	r3, [r5, #40]
 744 012a 23F48053 		bic	r3, r3, #4096
 745 012e AB62     		str	r3, [r5, #40]
 503:Drivers/STM32F1xx_HAL_Driver/Src/stm32f1xx_hal_adc_ex.c ****     {
 746              		.loc 1 503 5 view .LVU222
 503:Drivers/STM32F1xx_HAL_Driver/Src/stm32f1xx_hal_adc_ex.c ****     {
 747              		.loc 1 503 9 is_stmt 0 view .LVU223
 748 0130 AB6A     		ldr	r3, [r5, #40]
 503:Drivers/STM32F1xx_HAL_Driver/Src/stm32f1xx_hal_adc_ex.c ****     {
 749              		.loc 1 503 8 view .LVU224
 750 0132 13F4807F 		tst	r3, #256
 751 0136 0AD1     		bne	.L71
 505:Drivers/STM32F1xx_HAL_Driver/Src/stm32f1xx_hal_adc_ex.c ****     }
 752              		.loc 1 505 7 is_stmt 1 view .LVU225
 753 0138 AB6A     		ldr	r3, [r5, #40]
 754 013a 43F00103 		orr	r3, r3, #1
 755 013e AB62     		str	r3, [r5, #40]
 756              		.loc 1 510 10 is_stmt 0 view .LVU226
 757 0140 0020     		movs	r0, #0
 758 0142 00E0     		b	.L52
 759              	.L68:
 760              		.loc 1 510 10 view .LVU227
 761 0144 0020     		movs	r0, #0
 762              	.L52:
 511:Drivers/STM32F1xx_HAL_Driver/Src/stm32f1xx_hal_adc_ex.c **** }
 763              		.loc 1 511 1 view .LVU228
 764 0146 03B0     		add	sp, sp, #12
 765              	.LCFI10:
 766              		.cfi_remember_state
 767              		.cfi_def_cfa_offset 20
 768              		@ sp needed
 769 0148 F0BD     		pop	{r4, r5, r6, r7, pc}
 770              	.LVL41:
ARM GAS  /tmp/cc6gSbL8.s 			page 25


 771              	.L70:
 772              	.LCFI11:
 773              		.cfi_restore_state
 510:Drivers/STM32F1xx_HAL_Driver/Src/stm32f1xx_hal_adc_ex.c **** }
 774              		.loc 1 510 10 view .LVU229
 775 014a 0020     		movs	r0, #0
 776 014c FBE7     		b	.L52
 777              	.L71:
 510:Drivers/STM32F1xx_HAL_Driver/Src/stm32f1xx_hal_adc_ex.c **** }
 778              		.loc 1 510 10 view .LVU230
 779 014e 0020     		movs	r0, #0
 780 0150 F9E7     		b	.L52
 781              	.L77:
 782 0152 00BF     		.align	2
 783              	.L76:
 784 0154 00000000 		.word	SystemCoreClock
 785 0158 24499224 		.word	613566756
 786 015c 92244912 		.word	306783378
 787 0160 92244900 		.word	4793490
 788 0164 49922400 		.word	2396745
 789              		.cfi_endproc
 790              	.LFE69:
 792              		.section	.text.HAL_ADCEx_InjectedStart_IT,"ax",%progbits
 793              		.align	1
 794              		.global	HAL_ADCEx_InjectedStart_IT
 795              		.syntax unified
 796              		.thumb
 797              		.thumb_func
 798              		.fpu softvfp
 800              	HAL_ADCEx_InjectedStart_IT:
 801              	.LVL42:
 802              	.LFB70:
 512:Drivers/STM32F1xx_HAL_Driver/Src/stm32f1xx_hal_adc_ex.c **** 
 513:Drivers/STM32F1xx_HAL_Driver/Src/stm32f1xx_hal_adc_ex.c **** /**
 514:Drivers/STM32F1xx_HAL_Driver/Src/stm32f1xx_hal_adc_ex.c ****   * @brief  Enables ADC, starts conversion of injected group with interruption.
 515:Drivers/STM32F1xx_HAL_Driver/Src/stm32f1xx_hal_adc_ex.c ****   *          - JEOC (end of conversion of injected group)
 516:Drivers/STM32F1xx_HAL_Driver/Src/stm32f1xx_hal_adc_ex.c ****   *         Each of these interruptions has its dedicated callback function.
 517:Drivers/STM32F1xx_HAL_Driver/Src/stm32f1xx_hal_adc_ex.c ****   * @param  hadc: ADC handle
 518:Drivers/STM32F1xx_HAL_Driver/Src/stm32f1xx_hal_adc_ex.c ****   * @retval HAL status.
 519:Drivers/STM32F1xx_HAL_Driver/Src/stm32f1xx_hal_adc_ex.c ****   */
 520:Drivers/STM32F1xx_HAL_Driver/Src/stm32f1xx_hal_adc_ex.c **** HAL_StatusTypeDef HAL_ADCEx_InjectedStart_IT(ADC_HandleTypeDef* hadc)
 521:Drivers/STM32F1xx_HAL_Driver/Src/stm32f1xx_hal_adc_ex.c **** {
 803              		.loc 1 521 1 is_stmt 1 view -0
 804              		.cfi_startproc
 805              		@ args = 0, pretend = 0, frame = 0
 806              		@ frame_needed = 0, uses_anonymous_args = 0
 522:Drivers/STM32F1xx_HAL_Driver/Src/stm32f1xx_hal_adc_ex.c ****   HAL_StatusTypeDef tmp_hal_status = HAL_OK;
 807              		.loc 1 522 3 view .LVU232
 523:Drivers/STM32F1xx_HAL_Driver/Src/stm32f1xx_hal_adc_ex.c ****   
 524:Drivers/STM32F1xx_HAL_Driver/Src/stm32f1xx_hal_adc_ex.c ****   /* Check the parameters */
 525:Drivers/STM32F1xx_HAL_Driver/Src/stm32f1xx_hal_adc_ex.c ****   assert_param(IS_ADC_ALL_INSTANCE(hadc->Instance));
 808              		.loc 1 525 3 view .LVU233
 526:Drivers/STM32F1xx_HAL_Driver/Src/stm32f1xx_hal_adc_ex.c ****   
 527:Drivers/STM32F1xx_HAL_Driver/Src/stm32f1xx_hal_adc_ex.c ****   /* Process locked */
 528:Drivers/STM32F1xx_HAL_Driver/Src/stm32f1xx_hal_adc_ex.c ****   __HAL_LOCK(hadc);
 809              		.loc 1 528 3 view .LVU234
 810              		.loc 1 528 3 view .LVU235
ARM GAS  /tmp/cc6gSbL8.s 			page 26


 811 0000 90F82430 		ldrb	r3, [r0, #36]	@ zero_extendqisi2
 812 0004 012B     		cmp	r3, #1
 813 0006 57D0     		beq	.L87
 521:Drivers/STM32F1xx_HAL_Driver/Src/stm32f1xx_hal_adc_ex.c ****   HAL_StatusTypeDef tmp_hal_status = HAL_OK;
 814              		.loc 1 521 1 is_stmt 0 discriminator 2 view .LVU236
 815 0008 10B5     		push	{r4, lr}
 816              	.LCFI12:
 817              		.cfi_def_cfa_offset 8
 818              		.cfi_offset 4, -8
 819              		.cfi_offset 14, -4
 820 000a 0446     		mov	r4, r0
 821              		.loc 1 528 3 is_stmt 1 discriminator 2 view .LVU237
 822 000c 0123     		movs	r3, #1
 823 000e 80F82430 		strb	r3, [r0, #36]
 824              		.loc 1 528 3 discriminator 2 view .LVU238
 529:Drivers/STM32F1xx_HAL_Driver/Src/stm32f1xx_hal_adc_ex.c ****     
 530:Drivers/STM32F1xx_HAL_Driver/Src/stm32f1xx_hal_adc_ex.c ****   /* Enable the ADC peripheral */
 531:Drivers/STM32F1xx_HAL_Driver/Src/stm32f1xx_hal_adc_ex.c ****   tmp_hal_status = ADC_Enable(hadc);
 825              		.loc 1 531 3 discriminator 2 view .LVU239
 826              		.loc 1 531 20 is_stmt 0 discriminator 2 view .LVU240
 827 0012 FFF7FEFF 		bl	ADC_Enable
 828              	.LVL43:
 532:Drivers/STM32F1xx_HAL_Driver/Src/stm32f1xx_hal_adc_ex.c ****   
 533:Drivers/STM32F1xx_HAL_Driver/Src/stm32f1xx_hal_adc_ex.c ****   /* Start conversion if ADC is effectively enabled */
 534:Drivers/STM32F1xx_HAL_Driver/Src/stm32f1xx_hal_adc_ex.c ****   if (tmp_hal_status == HAL_OK)
 829              		.loc 1 534 3 is_stmt 1 discriminator 2 view .LVU241
 830              		.loc 1 534 6 is_stmt 0 discriminator 2 view .LVU242
 831 0016 0028     		cmp	r0, #0
 832 0018 4AD1     		bne	.L80
 535:Drivers/STM32F1xx_HAL_Driver/Src/stm32f1xx_hal_adc_ex.c ****   {
 536:Drivers/STM32F1xx_HAL_Driver/Src/stm32f1xx_hal_adc_ex.c ****     /* Set ADC state                                                          */
 537:Drivers/STM32F1xx_HAL_Driver/Src/stm32f1xx_hal_adc_ex.c ****     /* - Clear state bitfield related to injected group conversion results    */
 538:Drivers/STM32F1xx_HAL_Driver/Src/stm32f1xx_hal_adc_ex.c ****     /* - Set state bitfield related to injected operation                     */
 539:Drivers/STM32F1xx_HAL_Driver/Src/stm32f1xx_hal_adc_ex.c ****     ADC_STATE_CLR_SET(hadc->State,
 833              		.loc 1 539 5 is_stmt 1 view .LVU243
 834 001a A36A     		ldr	r3, [r4, #40]
 835 001c 23F44053 		bic	r3, r3, #12288
 836 0020 23F00103 		bic	r3, r3, #1
 837 0024 43F48053 		orr	r3, r3, #4096
 838 0028 A362     		str	r3, [r4, #40]
 540:Drivers/STM32F1xx_HAL_Driver/Src/stm32f1xx_hal_adc_ex.c ****                       HAL_ADC_STATE_READY | HAL_ADC_STATE_INJ_EOC,
 541:Drivers/STM32F1xx_HAL_Driver/Src/stm32f1xx_hal_adc_ex.c ****                       HAL_ADC_STATE_INJ_BUSY);
 542:Drivers/STM32F1xx_HAL_Driver/Src/stm32f1xx_hal_adc_ex.c ****     
 543:Drivers/STM32F1xx_HAL_Driver/Src/stm32f1xx_hal_adc_ex.c ****     /* Case of independent mode or multimode (for devices with several ADCs): */
 544:Drivers/STM32F1xx_HAL_Driver/Src/stm32f1xx_hal_adc_ex.c ****     /* Set multimode state.                                                   */
 545:Drivers/STM32F1xx_HAL_Driver/Src/stm32f1xx_hal_adc_ex.c ****     if (ADC_NONMULTIMODE_OR_MULTIMODEMASTER(hadc))
 839              		.loc 1 545 5 view .LVU244
 840              		.loc 1 545 9 is_stmt 0 view .LVU245
 841 002a 2268     		ldr	r2, [r4]
 842              		.loc 1 545 8 view .LVU246
 843 002c 234B     		ldr	r3, .L95
 844 002e 9A42     		cmp	r2, r3
 845 0030 24D0     		beq	.L92
 846              	.L81:
 546:Drivers/STM32F1xx_HAL_Driver/Src/stm32f1xx_hal_adc_ex.c ****     {
 547:Drivers/STM32F1xx_HAL_Driver/Src/stm32f1xx_hal_adc_ex.c ****       CLEAR_BIT(hadc->State, HAL_ADC_STATE_MULTIMODE_SLAVE);
 847              		.loc 1 547 7 is_stmt 1 view .LVU247
ARM GAS  /tmp/cc6gSbL8.s 			page 27


 848 0032 A36A     		ldr	r3, [r4, #40]
 849 0034 23F48013 		bic	r3, r3, #1048576
 850 0038 A362     		str	r3, [r4, #40]
 851              	.L83:
 548:Drivers/STM32F1xx_HAL_Driver/Src/stm32f1xx_hal_adc_ex.c ****     }
 549:Drivers/STM32F1xx_HAL_Driver/Src/stm32f1xx_hal_adc_ex.c ****     else
 550:Drivers/STM32F1xx_HAL_Driver/Src/stm32f1xx_hal_adc_ex.c ****     {
 551:Drivers/STM32F1xx_HAL_Driver/Src/stm32f1xx_hal_adc_ex.c ****       SET_BIT(hadc->State, HAL_ADC_STATE_MULTIMODE_SLAVE);
 552:Drivers/STM32F1xx_HAL_Driver/Src/stm32f1xx_hal_adc_ex.c ****     }
 553:Drivers/STM32F1xx_HAL_Driver/Src/stm32f1xx_hal_adc_ex.c ****     
 554:Drivers/STM32F1xx_HAL_Driver/Src/stm32f1xx_hal_adc_ex.c ****     /* Check if a regular conversion is ongoing */
 555:Drivers/STM32F1xx_HAL_Driver/Src/stm32f1xx_hal_adc_ex.c ****     /* Note: On this device, there is no ADC error code fields related to     */
 556:Drivers/STM32F1xx_HAL_Driver/Src/stm32f1xx_hal_adc_ex.c ****     /*       conversions on group injected only. In case of conversion on     */
 557:Drivers/STM32F1xx_HAL_Driver/Src/stm32f1xx_hal_adc_ex.c ****     /*       going on group regular, no error code is reset.                  */
 558:Drivers/STM32F1xx_HAL_Driver/Src/stm32f1xx_hal_adc_ex.c ****     if (HAL_IS_BIT_CLR(hadc->State, HAL_ADC_STATE_REG_BUSY))
 852              		.loc 1 558 5 view .LVU248
 853              		.loc 1 558 9 is_stmt 0 view .LVU249
 854 003a A36A     		ldr	r3, [r4, #40]
 855              		.loc 1 558 8 view .LVU250
 856 003c 13F4807F 		tst	r3, #256
 857 0040 01D1     		bne	.L84
 559:Drivers/STM32F1xx_HAL_Driver/Src/stm32f1xx_hal_adc_ex.c ****     {
 560:Drivers/STM32F1xx_HAL_Driver/Src/stm32f1xx_hal_adc_ex.c ****       /* Reset ADC all error code fields */
 561:Drivers/STM32F1xx_HAL_Driver/Src/stm32f1xx_hal_adc_ex.c ****       ADC_CLEAR_ERRORCODE(hadc);
 858              		.loc 1 561 7 is_stmt 1 view .LVU251
 859 0042 0023     		movs	r3, #0
 860 0044 E362     		str	r3, [r4, #44]
 861              	.L84:
 562:Drivers/STM32F1xx_HAL_Driver/Src/stm32f1xx_hal_adc_ex.c ****     }
 563:Drivers/STM32F1xx_HAL_Driver/Src/stm32f1xx_hal_adc_ex.c ****     
 564:Drivers/STM32F1xx_HAL_Driver/Src/stm32f1xx_hal_adc_ex.c ****     /* Process unlocked */
 565:Drivers/STM32F1xx_HAL_Driver/Src/stm32f1xx_hal_adc_ex.c ****     /* Unlock before starting ADC conversions: in case of potential           */
 566:Drivers/STM32F1xx_HAL_Driver/Src/stm32f1xx_hal_adc_ex.c ****     /* interruption, to let the process to ADC IRQ Handler.                   */
 567:Drivers/STM32F1xx_HAL_Driver/Src/stm32f1xx_hal_adc_ex.c ****     __HAL_UNLOCK(hadc);
 862              		.loc 1 567 5 view .LVU252
 863              		.loc 1 567 5 view .LVU253
 864 0046 0023     		movs	r3, #0
 865 0048 84F82430 		strb	r3, [r4, #36]
 866              		.loc 1 567 5 view .LVU254
 568:Drivers/STM32F1xx_HAL_Driver/Src/stm32f1xx_hal_adc_ex.c ****     
 569:Drivers/STM32F1xx_HAL_Driver/Src/stm32f1xx_hal_adc_ex.c ****     /* Clear injected group conversion flag */
 570:Drivers/STM32F1xx_HAL_Driver/Src/stm32f1xx_hal_adc_ex.c ****     /* (To ensure of no unknown state from potential previous ADC operations) */
 571:Drivers/STM32F1xx_HAL_Driver/Src/stm32f1xx_hal_adc_ex.c ****     __HAL_ADC_CLEAR_FLAG(hadc, ADC_FLAG_JEOC);
 867              		.loc 1 571 5 view .LVU255
 868 004c 6FF00403 		mvn	r3, #4
 869 0050 1360     		str	r3, [r2]
 572:Drivers/STM32F1xx_HAL_Driver/Src/stm32f1xx_hal_adc_ex.c ****     
 573:Drivers/STM32F1xx_HAL_Driver/Src/stm32f1xx_hal_adc_ex.c ****     /* Enable end of conversion interrupt for injected channels */
 574:Drivers/STM32F1xx_HAL_Driver/Src/stm32f1xx_hal_adc_ex.c ****     __HAL_ADC_ENABLE_IT(hadc, ADC_IT_JEOC);
 870              		.loc 1 574 5 view .LVU256
 871 0052 2268     		ldr	r2, [r4]
 872 0054 5368     		ldr	r3, [r2, #4]
 873 0056 43F08003 		orr	r3, r3, #128
 874 005a 5360     		str	r3, [r2, #4]
 575:Drivers/STM32F1xx_HAL_Driver/Src/stm32f1xx_hal_adc_ex.c ****     
 576:Drivers/STM32F1xx_HAL_Driver/Src/stm32f1xx_hal_adc_ex.c ****     /* Start conversion of injected group if software start has been selected */
 577:Drivers/STM32F1xx_HAL_Driver/Src/stm32f1xx_hal_adc_ex.c ****     /* and if automatic injected conversion is disabled.                      */
ARM GAS  /tmp/cc6gSbL8.s 			page 28


 578:Drivers/STM32F1xx_HAL_Driver/Src/stm32f1xx_hal_adc_ex.c ****     /* If external trigger has been selected, conversion will start at next   */
 579:Drivers/STM32F1xx_HAL_Driver/Src/stm32f1xx_hal_adc_ex.c ****     /* trigger event.                                                         */
 580:Drivers/STM32F1xx_HAL_Driver/Src/stm32f1xx_hal_adc_ex.c ****     /* If automatic injected conversion is enabled, conversion will start     */
 581:Drivers/STM32F1xx_HAL_Driver/Src/stm32f1xx_hal_adc_ex.c ****     /* after next regular group conversion.                                   */
 582:Drivers/STM32F1xx_HAL_Driver/Src/stm32f1xx_hal_adc_ex.c ****     if (HAL_IS_BIT_CLR(hadc->Instance->CR1, ADC_CR1_JAUTO))
 875              		.loc 1 582 5 view .LVU257
 876              		.loc 1 582 9 is_stmt 0 view .LVU258
 877 005c 2368     		ldr	r3, [r4]
 878 005e 5A68     		ldr	r2, [r3, #4]
 879              		.loc 1 582 8 view .LVU259
 880 0060 12F4806F 		tst	r2, #1024
 881 0064 27D1     		bne	.L79
 583:Drivers/STM32F1xx_HAL_Driver/Src/stm32f1xx_hal_adc_ex.c ****     {
 584:Drivers/STM32F1xx_HAL_Driver/Src/stm32f1xx_hal_adc_ex.c ****       if (ADC_IS_SOFTWARE_START_INJECTED(hadc)     &&
 882              		.loc 1 584 7 is_stmt 1 view .LVU260
 883              		.loc 1 584 11 is_stmt 0 view .LVU261
 884 0066 9A68     		ldr	r2, [r3, #8]
 885 0068 02F4E042 		and	r2, r2, #28672
 886              		.loc 1 584 10 view .LVU262
 887 006c B2F5E04F 		cmp	r2, #28672
 888 0070 0FD0     		beq	.L93
 889              	.L85:
 585:Drivers/STM32F1xx_HAL_Driver/Src/stm32f1xx_hal_adc_ex.c ****           ADC_NONMULTIMODE_OR_MULTIMODEMASTER(hadc)  )
 586:Drivers/STM32F1xx_HAL_Driver/Src/stm32f1xx_hal_adc_ex.c ****       {
 587:Drivers/STM32F1xx_HAL_Driver/Src/stm32f1xx_hal_adc_ex.c ****         /* Start ADC conversion on injected group with SW start */
 588:Drivers/STM32F1xx_HAL_Driver/Src/stm32f1xx_hal_adc_ex.c ****         SET_BIT(hadc->Instance->CR2, (ADC_CR2_JSWSTART | ADC_CR2_JEXTTRIG));
 589:Drivers/STM32F1xx_HAL_Driver/Src/stm32f1xx_hal_adc_ex.c ****       }
 590:Drivers/STM32F1xx_HAL_Driver/Src/stm32f1xx_hal_adc_ex.c ****       else
 591:Drivers/STM32F1xx_HAL_Driver/Src/stm32f1xx_hal_adc_ex.c ****       {
 592:Drivers/STM32F1xx_HAL_Driver/Src/stm32f1xx_hal_adc_ex.c ****         /* Start ADC conversion on injected group with external trigger */
 593:Drivers/STM32F1xx_HAL_Driver/Src/stm32f1xx_hal_adc_ex.c ****         SET_BIT(hadc->Instance->CR2, ADC_CR2_JEXTTRIG);
 890              		.loc 1 593 9 is_stmt 1 view .LVU263
 891 0072 9A68     		ldr	r2, [r3, #8]
 892 0074 42F40042 		orr	r2, r2, #32768
 893 0078 9A60     		str	r2, [r3, #8]
 894 007a 1CE0     		b	.L79
 895              	.L92:
 545:Drivers/STM32F1xx_HAL_Driver/Src/stm32f1xx_hal_adc_ex.c ****     {
 896              		.loc 1 545 9 is_stmt 0 discriminator 1 view .LVU264
 897 007c A3F58063 		sub	r3, r3, #1024
 898 0080 5B68     		ldr	r3, [r3, #4]
 899 0082 13F4702F 		tst	r3, #983040
 900 0086 D4D0     		beq	.L81
 551:Drivers/STM32F1xx_HAL_Driver/Src/stm32f1xx_hal_adc_ex.c ****     }
 901              		.loc 1 551 7 is_stmt 1 view .LVU265
 902 0088 A36A     		ldr	r3, [r4, #40]
 903 008a 43F48013 		orr	r3, r3, #1048576
 904 008e A362     		str	r3, [r4, #40]
 905 0090 D3E7     		b	.L83
 906              	.L93:
 584:Drivers/STM32F1xx_HAL_Driver/Src/stm32f1xx_hal_adc_ex.c ****           ADC_NONMULTIMODE_OR_MULTIMODEMASTER(hadc)  )
 907              		.loc 1 584 52 is_stmt 0 discriminator 1 view .LVU266
 908 0092 0A4A     		ldr	r2, .L95
 909 0094 9342     		cmp	r3, r2
 910 0096 04D0     		beq	.L94
 911              	.L86:
 588:Drivers/STM32F1xx_HAL_Driver/Src/stm32f1xx_hal_adc_ex.c ****       }
ARM GAS  /tmp/cc6gSbL8.s 			page 29


 912              		.loc 1 588 9 is_stmt 1 view .LVU267
 913 0098 9A68     		ldr	r2, [r3, #8]
 914 009a 42F40212 		orr	r2, r2, #2129920
 915 009e 9A60     		str	r2, [r3, #8]
 916 00a0 09E0     		b	.L79
 917              	.L94:
 585:Drivers/STM32F1xx_HAL_Driver/Src/stm32f1xx_hal_adc_ex.c ****       {
 918              		.loc 1 585 11 is_stmt 0 discriminator 2 view .LVU268
 919 00a2 A2F58062 		sub	r2, r2, #1024
 920 00a6 5268     		ldr	r2, [r2, #4]
 584:Drivers/STM32F1xx_HAL_Driver/Src/stm32f1xx_hal_adc_ex.c ****           ADC_NONMULTIMODE_OR_MULTIMODEMASTER(hadc)  )
 921              		.loc 1 584 52 discriminator 2 view .LVU269
 922 00a8 12F4702F 		tst	r2, #983040
 923 00ac E1D1     		bne	.L85
 924 00ae F3E7     		b	.L86
 925              	.L80:
 594:Drivers/STM32F1xx_HAL_Driver/Src/stm32f1xx_hal_adc_ex.c ****       }
 595:Drivers/STM32F1xx_HAL_Driver/Src/stm32f1xx_hal_adc_ex.c ****     }
 596:Drivers/STM32F1xx_HAL_Driver/Src/stm32f1xx_hal_adc_ex.c ****   }
 597:Drivers/STM32F1xx_HAL_Driver/Src/stm32f1xx_hal_adc_ex.c ****   else
 598:Drivers/STM32F1xx_HAL_Driver/Src/stm32f1xx_hal_adc_ex.c ****   {
 599:Drivers/STM32F1xx_HAL_Driver/Src/stm32f1xx_hal_adc_ex.c ****     /* Process unlocked */
 600:Drivers/STM32F1xx_HAL_Driver/Src/stm32f1xx_hal_adc_ex.c ****     __HAL_UNLOCK(hadc);
 926              		.loc 1 600 5 is_stmt 1 view .LVU270
 927              		.loc 1 600 5 view .LVU271
 928 00b0 0023     		movs	r3, #0
 929 00b2 84F82430 		strb	r3, [r4, #36]
 930              	.L79:
 601:Drivers/STM32F1xx_HAL_Driver/Src/stm32f1xx_hal_adc_ex.c ****   }
 602:Drivers/STM32F1xx_HAL_Driver/Src/stm32f1xx_hal_adc_ex.c ****   
 603:Drivers/STM32F1xx_HAL_Driver/Src/stm32f1xx_hal_adc_ex.c ****   /* Return function status */
 604:Drivers/STM32F1xx_HAL_Driver/Src/stm32f1xx_hal_adc_ex.c ****   return tmp_hal_status;
 605:Drivers/STM32F1xx_HAL_Driver/Src/stm32f1xx_hal_adc_ex.c **** }
 931              		.loc 1 605 1 is_stmt 0 view .LVU272
 932 00b6 10BD     		pop	{r4, pc}
 933              	.LVL44:
 934              	.L87:
 935              	.LCFI13:
 936              		.cfi_def_cfa_offset 0
 937              		.cfi_restore 4
 938              		.cfi_restore 14
 528:Drivers/STM32F1xx_HAL_Driver/Src/stm32f1xx_hal_adc_ex.c ****     
 939              		.loc 1 528 3 view .LVU273
 940 00b8 0220     		movs	r0, #2
 941              	.LVL45:
 942              		.loc 1 605 1 view .LVU274
 943 00ba 7047     		bx	lr
 944              	.L96:
 945              		.align	2
 946              	.L95:
 947 00bc 00280140 		.word	1073817600
 948              		.cfi_endproc
 949              	.LFE70:
 951              		.section	.text.HAL_ADCEx_InjectedStop_IT,"ax",%progbits
 952              		.align	1
 953              		.global	HAL_ADCEx_InjectedStop_IT
 954              		.syntax unified
ARM GAS  /tmp/cc6gSbL8.s 			page 30


 955              		.thumb
 956              		.thumb_func
 957              		.fpu softvfp
 959              	HAL_ADCEx_InjectedStop_IT:
 960              	.LVL46:
 961              	.LFB71:
 606:Drivers/STM32F1xx_HAL_Driver/Src/stm32f1xx_hal_adc_ex.c **** 
 607:Drivers/STM32F1xx_HAL_Driver/Src/stm32f1xx_hal_adc_ex.c **** /**
 608:Drivers/STM32F1xx_HAL_Driver/Src/stm32f1xx_hal_adc_ex.c ****   * @brief  Stop conversion of injected channels, disable interruption of 
 609:Drivers/STM32F1xx_HAL_Driver/Src/stm32f1xx_hal_adc_ex.c ****   *         end-of-conversion. Disable ADC peripheral if no regular conversion
 610:Drivers/STM32F1xx_HAL_Driver/Src/stm32f1xx_hal_adc_ex.c ****   *         is on going.
 611:Drivers/STM32F1xx_HAL_Driver/Src/stm32f1xx_hal_adc_ex.c ****   * @note   If ADC must be disabled and if conversion is on going on 
 612:Drivers/STM32F1xx_HAL_Driver/Src/stm32f1xx_hal_adc_ex.c ****   *         regular group, function HAL_ADC_Stop must be used to stop both
 613:Drivers/STM32F1xx_HAL_Driver/Src/stm32f1xx_hal_adc_ex.c ****   *         injected and regular groups, and disable the ADC.
 614:Drivers/STM32F1xx_HAL_Driver/Src/stm32f1xx_hal_adc_ex.c ****   * @note   If injected group mode auto-injection is enabled,
 615:Drivers/STM32F1xx_HAL_Driver/Src/stm32f1xx_hal_adc_ex.c ****   *         function HAL_ADC_Stop must be used.
 616:Drivers/STM32F1xx_HAL_Driver/Src/stm32f1xx_hal_adc_ex.c ****   * @param  hadc: ADC handle
 617:Drivers/STM32F1xx_HAL_Driver/Src/stm32f1xx_hal_adc_ex.c ****   * @retval None
 618:Drivers/STM32F1xx_HAL_Driver/Src/stm32f1xx_hal_adc_ex.c ****   */
 619:Drivers/STM32F1xx_HAL_Driver/Src/stm32f1xx_hal_adc_ex.c **** HAL_StatusTypeDef HAL_ADCEx_InjectedStop_IT(ADC_HandleTypeDef* hadc)
 620:Drivers/STM32F1xx_HAL_Driver/Src/stm32f1xx_hal_adc_ex.c **** {
 962              		.loc 1 620 1 is_stmt 1 view -0
 963              		.cfi_startproc
 964              		@ args = 0, pretend = 0, frame = 0
 965              		@ frame_needed = 0, uses_anonymous_args = 0
 621:Drivers/STM32F1xx_HAL_Driver/Src/stm32f1xx_hal_adc_ex.c ****   HAL_StatusTypeDef tmp_hal_status = HAL_OK;
 966              		.loc 1 621 3 view .LVU276
 622:Drivers/STM32F1xx_HAL_Driver/Src/stm32f1xx_hal_adc_ex.c ****   
 623:Drivers/STM32F1xx_HAL_Driver/Src/stm32f1xx_hal_adc_ex.c ****   /* Check the parameters */
 624:Drivers/STM32F1xx_HAL_Driver/Src/stm32f1xx_hal_adc_ex.c ****   assert_param(IS_ADC_ALL_INSTANCE(hadc->Instance));
 967              		.loc 1 624 3 view .LVU277
 625:Drivers/STM32F1xx_HAL_Driver/Src/stm32f1xx_hal_adc_ex.c **** 
 626:Drivers/STM32F1xx_HAL_Driver/Src/stm32f1xx_hal_adc_ex.c ****   /* Process locked */
 627:Drivers/STM32F1xx_HAL_Driver/Src/stm32f1xx_hal_adc_ex.c ****   __HAL_LOCK(hadc);
 968              		.loc 1 627 3 view .LVU278
 969              		.loc 1 627 3 view .LVU279
 970 0000 90F82430 		ldrb	r3, [r0, #36]	@ zero_extendqisi2
 971 0004 012B     		cmp	r3, #1
 972 0006 28D0     		beq	.L101
 620:Drivers/STM32F1xx_HAL_Driver/Src/stm32f1xx_hal_adc_ex.c ****   HAL_StatusTypeDef tmp_hal_status = HAL_OK;
 973              		.loc 1 620 1 is_stmt 0 discriminator 2 view .LVU280
 974 0008 10B5     		push	{r4, lr}
 975              	.LCFI14:
 976              		.cfi_def_cfa_offset 8
 977              		.cfi_offset 4, -8
 978              		.cfi_offset 14, -4
 979 000a 0446     		mov	r4, r0
 980              		.loc 1 627 3 is_stmt 1 discriminator 2 view .LVU281
 981 000c 0123     		movs	r3, #1
 982 000e 80F82430 		strb	r3, [r0, #36]
 983              		.loc 1 627 3 discriminator 2 view .LVU282
 628:Drivers/STM32F1xx_HAL_Driver/Src/stm32f1xx_hal_adc_ex.c ****     
 629:Drivers/STM32F1xx_HAL_Driver/Src/stm32f1xx_hal_adc_ex.c ****   /* Stop potential conversion and disable ADC peripheral                     */
 630:Drivers/STM32F1xx_HAL_Driver/Src/stm32f1xx_hal_adc_ex.c ****   /* Conditioned to:                                                          */
 631:Drivers/STM32F1xx_HAL_Driver/Src/stm32f1xx_hal_adc_ex.c ****   /* - No conversion on the other group (regular group) is intended to        */
 632:Drivers/STM32F1xx_HAL_Driver/Src/stm32f1xx_hal_adc_ex.c ****   /*   continue (injected and regular groups stop conversion and ADC disable  */
 633:Drivers/STM32F1xx_HAL_Driver/Src/stm32f1xx_hal_adc_ex.c ****   /*   are common)                                                            */
ARM GAS  /tmp/cc6gSbL8.s 			page 31


 634:Drivers/STM32F1xx_HAL_Driver/Src/stm32f1xx_hal_adc_ex.c ****   /* - In case of auto-injection mode, HAL_ADC_Stop must be used.             */ 
 635:Drivers/STM32F1xx_HAL_Driver/Src/stm32f1xx_hal_adc_ex.c ****   if(((hadc->State & HAL_ADC_STATE_REG_BUSY) == RESET)  &&
 984              		.loc 1 635 3 discriminator 2 view .LVU283
 985              		.loc 1 635 12 is_stmt 0 discriminator 2 view .LVU284
 986 0012 836A     		ldr	r3, [r0, #40]
 987              		.loc 1 635 5 discriminator 2 view .LVU285
 988 0014 13F4807F 		tst	r3, #256
 989 0018 04D1     		bne	.L99
 636:Drivers/STM32F1xx_HAL_Driver/Src/stm32f1xx_hal_adc_ex.c ****      HAL_IS_BIT_CLR(hadc->Instance->CR1, ADC_CR1_JAUTO)   )
 990              		.loc 1 636 6 discriminator 1 view .LVU286
 991 001a 0368     		ldr	r3, [r0]
 992 001c 5B68     		ldr	r3, [r3, #4]
 635:Drivers/STM32F1xx_HAL_Driver/Src/stm32f1xx_hal_adc_ex.c ****      HAL_IS_BIT_CLR(hadc->Instance->CR1, ADC_CR1_JAUTO)   )
 993              		.loc 1 635 57 discriminator 1 view .LVU287
 994 001e 13F4806F 		tst	r3, #1024
 995 0022 08D0     		beq	.L106
 996              	.L99:
 637:Drivers/STM32F1xx_HAL_Driver/Src/stm32f1xx_hal_adc_ex.c ****   {
 638:Drivers/STM32F1xx_HAL_Driver/Src/stm32f1xx_hal_adc_ex.c ****     /* Stop potential conversion on going, on regular and injected groups */
 639:Drivers/STM32F1xx_HAL_Driver/Src/stm32f1xx_hal_adc_ex.c ****     /* Disable ADC peripheral */
 640:Drivers/STM32F1xx_HAL_Driver/Src/stm32f1xx_hal_adc_ex.c ****     tmp_hal_status = ADC_ConversionStop_Disable(hadc);
 641:Drivers/STM32F1xx_HAL_Driver/Src/stm32f1xx_hal_adc_ex.c ****     
 642:Drivers/STM32F1xx_HAL_Driver/Src/stm32f1xx_hal_adc_ex.c ****     /* Check if ADC is effectively disabled */
 643:Drivers/STM32F1xx_HAL_Driver/Src/stm32f1xx_hal_adc_ex.c ****     if (tmp_hal_status == HAL_OK)
 644:Drivers/STM32F1xx_HAL_Driver/Src/stm32f1xx_hal_adc_ex.c ****     {
 645:Drivers/STM32F1xx_HAL_Driver/Src/stm32f1xx_hal_adc_ex.c ****       /* Disable ADC end of conversion interrupt for injected channels */
 646:Drivers/STM32F1xx_HAL_Driver/Src/stm32f1xx_hal_adc_ex.c ****       __HAL_ADC_DISABLE_IT(hadc, ADC_IT_JEOC);
 647:Drivers/STM32F1xx_HAL_Driver/Src/stm32f1xx_hal_adc_ex.c ****       
 648:Drivers/STM32F1xx_HAL_Driver/Src/stm32f1xx_hal_adc_ex.c ****       /* Set ADC state */
 649:Drivers/STM32F1xx_HAL_Driver/Src/stm32f1xx_hal_adc_ex.c ****       ADC_STATE_CLR_SET(hadc->State,
 650:Drivers/STM32F1xx_HAL_Driver/Src/stm32f1xx_hal_adc_ex.c ****                         HAL_ADC_STATE_REG_BUSY | HAL_ADC_STATE_INJ_BUSY,
 651:Drivers/STM32F1xx_HAL_Driver/Src/stm32f1xx_hal_adc_ex.c ****                         HAL_ADC_STATE_READY);
 652:Drivers/STM32F1xx_HAL_Driver/Src/stm32f1xx_hal_adc_ex.c ****     }
 653:Drivers/STM32F1xx_HAL_Driver/Src/stm32f1xx_hal_adc_ex.c ****   }
 654:Drivers/STM32F1xx_HAL_Driver/Src/stm32f1xx_hal_adc_ex.c ****   else
 655:Drivers/STM32F1xx_HAL_Driver/Src/stm32f1xx_hal_adc_ex.c ****   {
 656:Drivers/STM32F1xx_HAL_Driver/Src/stm32f1xx_hal_adc_ex.c ****     /* Update ADC state machine to error */
 657:Drivers/STM32F1xx_HAL_Driver/Src/stm32f1xx_hal_adc_ex.c ****     SET_BIT(hadc->State, HAL_ADC_STATE_ERROR_CONFIG);
 997              		.loc 1 657 5 is_stmt 1 view .LVU288
 998 0024 A36A     		ldr	r3, [r4, #40]
 999 0026 43F02003 		orr	r3, r3, #32
 1000 002a A362     		str	r3, [r4, #40]
 658:Drivers/STM32F1xx_HAL_Driver/Src/stm32f1xx_hal_adc_ex.c ****       
 659:Drivers/STM32F1xx_HAL_Driver/Src/stm32f1xx_hal_adc_ex.c ****     tmp_hal_status = HAL_ERROR;
 1001              		.loc 1 659 5 view .LVU289
 1002              	.LVL47:
 1003              		.loc 1 659 20 is_stmt 0 view .LVU290
 1004 002c 0120     		movs	r0, #1
 1005              	.LVL48:
 1006              	.L100:
 660:Drivers/STM32F1xx_HAL_Driver/Src/stm32f1xx_hal_adc_ex.c ****   }
 661:Drivers/STM32F1xx_HAL_Driver/Src/stm32f1xx_hal_adc_ex.c ****   
 662:Drivers/STM32F1xx_HAL_Driver/Src/stm32f1xx_hal_adc_ex.c ****   /* Process unlocked */
 663:Drivers/STM32F1xx_HAL_Driver/Src/stm32f1xx_hal_adc_ex.c ****   __HAL_UNLOCK(hadc);
 1007              		.loc 1 663 3 is_stmt 1 view .LVU291
 1008              		.loc 1 663 3 view .LVU292
 1009 002e 0023     		movs	r3, #0
ARM GAS  /tmp/cc6gSbL8.s 			page 32


 1010 0030 84F82430 		strb	r3, [r4, #36]
 1011              		.loc 1 663 3 view .LVU293
 664:Drivers/STM32F1xx_HAL_Driver/Src/stm32f1xx_hal_adc_ex.c ****   
 665:Drivers/STM32F1xx_HAL_Driver/Src/stm32f1xx_hal_adc_ex.c ****   /* Return function status */
 666:Drivers/STM32F1xx_HAL_Driver/Src/stm32f1xx_hal_adc_ex.c ****   return tmp_hal_status;
 1012              		.loc 1 666 3 view .LVU294
 667:Drivers/STM32F1xx_HAL_Driver/Src/stm32f1xx_hal_adc_ex.c **** }
 1013              		.loc 1 667 1 is_stmt 0 view .LVU295
 1014 0034 10BD     		pop	{r4, pc}
 1015              	.LVL49:
 1016              	.L106:
 640:Drivers/STM32F1xx_HAL_Driver/Src/stm32f1xx_hal_adc_ex.c ****     
 1017              		.loc 1 640 5 is_stmt 1 view .LVU296
 640:Drivers/STM32F1xx_HAL_Driver/Src/stm32f1xx_hal_adc_ex.c ****     
 1018              		.loc 1 640 22 is_stmt 0 view .LVU297
 1019 0036 FFF7FEFF 		bl	ADC_ConversionStop_Disable
 1020              	.LVL50:
 643:Drivers/STM32F1xx_HAL_Driver/Src/stm32f1xx_hal_adc_ex.c ****     {
 1021              		.loc 1 643 5 is_stmt 1 view .LVU298
 643:Drivers/STM32F1xx_HAL_Driver/Src/stm32f1xx_hal_adc_ex.c ****     {
 1022              		.loc 1 643 8 is_stmt 0 view .LVU299
 1023 003a 0028     		cmp	r0, #0
 1024 003c F7D1     		bne	.L100
 646:Drivers/STM32F1xx_HAL_Driver/Src/stm32f1xx_hal_adc_ex.c ****       
 1025              		.loc 1 646 7 is_stmt 1 view .LVU300
 1026 003e 2268     		ldr	r2, [r4]
 1027 0040 5368     		ldr	r3, [r2, #4]
 1028 0042 23F08003 		bic	r3, r3, #128
 1029 0046 5360     		str	r3, [r2, #4]
 649:Drivers/STM32F1xx_HAL_Driver/Src/stm32f1xx_hal_adc_ex.c ****                         HAL_ADC_STATE_REG_BUSY | HAL_ADC_STATE_INJ_BUSY,
 1030              		.loc 1 649 7 view .LVU301
 1031 0048 A36A     		ldr	r3, [r4, #40]
 1032 004a 23F48853 		bic	r3, r3, #4352
 1033 004e 23F00103 		bic	r3, r3, #1
 1034 0052 43F00103 		orr	r3, r3, #1
 1035 0056 A362     		str	r3, [r4, #40]
 1036 0058 E9E7     		b	.L100
 1037              	.LVL51:
 1038              	.L101:
 1039              	.LCFI15:
 1040              		.cfi_def_cfa_offset 0
 1041              		.cfi_restore 4
 1042              		.cfi_restore 14
 627:Drivers/STM32F1xx_HAL_Driver/Src/stm32f1xx_hal_adc_ex.c ****     
 1043              		.loc 1 627 3 is_stmt 0 view .LVU302
 1044 005a 0220     		movs	r0, #2
 1045              	.LVL52:
 1046              		.loc 1 667 1 view .LVU303
 1047 005c 7047     		bx	lr
 1048              		.cfi_endproc
 1049              	.LFE71:
 1051              		.section	.text.HAL_ADCEx_MultiModeStart_DMA,"ax",%progbits
 1052              		.align	1
 1053              		.global	HAL_ADCEx_MultiModeStart_DMA
 1054              		.syntax unified
 1055              		.thumb
 1056              		.thumb_func
ARM GAS  /tmp/cc6gSbL8.s 			page 33


 1057              		.fpu softvfp
 1059              	HAL_ADCEx_MultiModeStart_DMA:
 1060              	.LVL53:
 1061              	.LFB72:
 668:Drivers/STM32F1xx_HAL_Driver/Src/stm32f1xx_hal_adc_ex.c **** 
 669:Drivers/STM32F1xx_HAL_Driver/Src/stm32f1xx_hal_adc_ex.c **** #if defined (STM32F103x6) || defined (STM32F103xB) || defined (STM32F105xC) || defined (STM32F107xC
 670:Drivers/STM32F1xx_HAL_Driver/Src/stm32f1xx_hal_adc_ex.c **** /**
 671:Drivers/STM32F1xx_HAL_Driver/Src/stm32f1xx_hal_adc_ex.c ****   * @brief  Enables ADC, starts conversion of regular group and transfers result
 672:Drivers/STM32F1xx_HAL_Driver/Src/stm32f1xx_hal_adc_ex.c ****   *         through DMA.
 673:Drivers/STM32F1xx_HAL_Driver/Src/stm32f1xx_hal_adc_ex.c ****   *         Multimode must have been previously configured using 
 674:Drivers/STM32F1xx_HAL_Driver/Src/stm32f1xx_hal_adc_ex.c ****   *         HAL_ADCEx_MultiModeConfigChannel() function.
 675:Drivers/STM32F1xx_HAL_Driver/Src/stm32f1xx_hal_adc_ex.c ****   *         Interruptions enabled in this function:
 676:Drivers/STM32F1xx_HAL_Driver/Src/stm32f1xx_hal_adc_ex.c ****   *          - DMA transfer complete
 677:Drivers/STM32F1xx_HAL_Driver/Src/stm32f1xx_hal_adc_ex.c ****   *          - DMA half transfer
 678:Drivers/STM32F1xx_HAL_Driver/Src/stm32f1xx_hal_adc_ex.c ****   *         Each of these interruptions has its dedicated callback function.
 679:Drivers/STM32F1xx_HAL_Driver/Src/stm32f1xx_hal_adc_ex.c ****   * @note:  On STM32F1 devices, ADC slave regular group must be configured 
 680:Drivers/STM32F1xx_HAL_Driver/Src/stm32f1xx_hal_adc_ex.c ****   *         with conversion trigger ADC_SOFTWARE_START.
 681:Drivers/STM32F1xx_HAL_Driver/Src/stm32f1xx_hal_adc_ex.c ****   * @note:  ADC slave can be enabled preliminarily using single-mode  
 682:Drivers/STM32F1xx_HAL_Driver/Src/stm32f1xx_hal_adc_ex.c ****   *         HAL_ADC_Start() function.
 683:Drivers/STM32F1xx_HAL_Driver/Src/stm32f1xx_hal_adc_ex.c ****   * @param  hadc: ADC handle of ADC master (handle of ADC slave must not be used)
 684:Drivers/STM32F1xx_HAL_Driver/Src/stm32f1xx_hal_adc_ex.c ****   * @param  pData: The destination Buffer address.
 685:Drivers/STM32F1xx_HAL_Driver/Src/stm32f1xx_hal_adc_ex.c ****   * @param  Length: The length of data to be transferred from ADC peripheral to memory.
 686:Drivers/STM32F1xx_HAL_Driver/Src/stm32f1xx_hal_adc_ex.c ****   * @retval None
 687:Drivers/STM32F1xx_HAL_Driver/Src/stm32f1xx_hal_adc_ex.c ****   */
 688:Drivers/STM32F1xx_HAL_Driver/Src/stm32f1xx_hal_adc_ex.c **** HAL_StatusTypeDef HAL_ADCEx_MultiModeStart_DMA(ADC_HandleTypeDef* hadc, uint32_t* pData, uint32_t L
 689:Drivers/STM32F1xx_HAL_Driver/Src/stm32f1xx_hal_adc_ex.c **** {
 1062              		.loc 1 689 1 is_stmt 1 view -0
 1063              		.cfi_startproc
 1064              		@ args = 0, pretend = 0, frame = 48
 1065              		@ frame_needed = 0, uses_anonymous_args = 0
 1066              		.loc 1 689 1 is_stmt 0 view .LVU305
 1067 0000 F0B5     		push	{r4, r5, r6, r7, lr}
 1068              	.LCFI16:
 1069              		.cfi_def_cfa_offset 20
 1070              		.cfi_offset 4, -20
 1071              		.cfi_offset 5, -16
 1072              		.cfi_offset 6, -12
 1073              		.cfi_offset 7, -8
 1074              		.cfi_offset 14, -4
 1075 0002 8DB0     		sub	sp, sp, #52
 1076              	.LCFI17:
 1077              		.cfi_def_cfa_offset 72
 690:Drivers/STM32F1xx_HAL_Driver/Src/stm32f1xx_hal_adc_ex.c ****   HAL_StatusTypeDef tmp_hal_status = HAL_OK;
 1078              		.loc 1 690 3 is_stmt 1 view .LVU306
 1079              	.LVL54:
 691:Drivers/STM32F1xx_HAL_Driver/Src/stm32f1xx_hal_adc_ex.c ****   ADC_HandleTypeDef tmphadcSlave;
 1080              		.loc 1 691 3 view .LVU307
 692:Drivers/STM32F1xx_HAL_Driver/Src/stm32f1xx_hal_adc_ex.c **** 
 693:Drivers/STM32F1xx_HAL_Driver/Src/stm32f1xx_hal_adc_ex.c ****   /* Check the parameters */
 694:Drivers/STM32F1xx_HAL_Driver/Src/stm32f1xx_hal_adc_ex.c ****   assert_param(IS_ADC_MULTIMODE_MASTER_INSTANCE(hadc->Instance));
 1081              		.loc 1 694 3 view .LVU308
 695:Drivers/STM32F1xx_HAL_Driver/Src/stm32f1xx_hal_adc_ex.c ****   assert_param(IS_FUNCTIONAL_STATE(hadc->Init.ContinuousConvMode));
 1082              		.loc 1 695 3 view .LVU309
 696:Drivers/STM32F1xx_HAL_Driver/Src/stm32f1xx_hal_adc_ex.c ****   
 697:Drivers/STM32F1xx_HAL_Driver/Src/stm32f1xx_hal_adc_ex.c ****   /* Process locked */
 698:Drivers/STM32F1xx_HAL_Driver/Src/stm32f1xx_hal_adc_ex.c ****   __HAL_LOCK(hadc);
 1083              		.loc 1 698 3 view .LVU310
ARM GAS  /tmp/cc6gSbL8.s 			page 34


 1084              		.loc 1 698 3 view .LVU311
 1085 0004 90F82430 		ldrb	r3, [r0, #36]	@ zero_extendqisi2
 1086 0008 012B     		cmp	r3, #1
 1087 000a 67D0     		beq	.L114
 1088 000c 0446     		mov	r4, r0
 1089 000e 0D46     		mov	r5, r1
 1090 0010 1746     		mov	r7, r2
 1091              		.loc 1 698 3 discriminator 2 view .LVU312
 1092 0012 0123     		movs	r3, #1
 1093 0014 80F82430 		strb	r3, [r0, #36]
 1094              		.loc 1 698 3 discriminator 2 view .LVU313
 699:Drivers/STM32F1xx_HAL_Driver/Src/stm32f1xx_hal_adc_ex.c **** 
 700:Drivers/STM32F1xx_HAL_Driver/Src/stm32f1xx_hal_adc_ex.c ****   /* Set a temporary handle of the ADC slave associated to the ADC master     */
 701:Drivers/STM32F1xx_HAL_Driver/Src/stm32f1xx_hal_adc_ex.c ****   ADC_MULTI_SLAVE(hadc, &tmphadcSlave);
 1095              		.loc 1 701 3 discriminator 2 view .LVU314
 1096 0018 314B     		ldr	r3, .L118
 1097 001a 0093     		str	r3, [sp]
 702:Drivers/STM32F1xx_HAL_Driver/Src/stm32f1xx_hal_adc_ex.c ****   
 703:Drivers/STM32F1xx_HAL_Driver/Src/stm32f1xx_hal_adc_ex.c ****   /* On STM32F1 devices, ADC slave regular group must be configured with      */
 704:Drivers/STM32F1xx_HAL_Driver/Src/stm32f1xx_hal_adc_ex.c ****   /* conversion trigger ADC_SOFTWARE_START.                                   */
 705:Drivers/STM32F1xx_HAL_Driver/Src/stm32f1xx_hal_adc_ex.c ****   /* Note: External trigger of ADC slave must be enabled, it is already done  */
 706:Drivers/STM32F1xx_HAL_Driver/Src/stm32f1xx_hal_adc_ex.c ****   /*       into function "HAL_ADC_Init()".                                    */
 707:Drivers/STM32F1xx_HAL_Driver/Src/stm32f1xx_hal_adc_ex.c ****   if(!ADC_IS_SOFTWARE_START_REGULAR(&tmphadcSlave))  
 1098              		.loc 1 707 3 discriminator 2 view .LVU315
 1099              		.loc 1 707 7 is_stmt 0 discriminator 2 view .LVU316
 1100 001c 9B68     		ldr	r3, [r3, #8]
 1101 001e 03F46023 		and	r3, r3, #917504
 1102              		.loc 1 707 5 discriminator 2 view .LVU317
 1103 0022 B3F5602F 		cmp	r3, #917504
 1104 0026 0AD0     		beq	.L109
 708:Drivers/STM32F1xx_HAL_Driver/Src/stm32f1xx_hal_adc_ex.c ****   {
 709:Drivers/STM32F1xx_HAL_Driver/Src/stm32f1xx_hal_adc_ex.c ****     /* Update ADC state machine to error */
 710:Drivers/STM32F1xx_HAL_Driver/Src/stm32f1xx_hal_adc_ex.c ****     SET_BIT(hadc->State, HAL_ADC_STATE_ERROR_CONFIG);
 1105              		.loc 1 710 5 is_stmt 1 view .LVU318
 1106 0028 836A     		ldr	r3, [r0, #40]
 1107 002a 43F02003 		orr	r3, r3, #32
 1108 002e 8362     		str	r3, [r0, #40]
 711:Drivers/STM32F1xx_HAL_Driver/Src/stm32f1xx_hal_adc_ex.c ****     
 712:Drivers/STM32F1xx_HAL_Driver/Src/stm32f1xx_hal_adc_ex.c ****     /* Process unlocked */
 713:Drivers/STM32F1xx_HAL_Driver/Src/stm32f1xx_hal_adc_ex.c ****     __HAL_UNLOCK(hadc);
 1109              		.loc 1 713 5 view .LVU319
 1110              		.loc 1 713 5 view .LVU320
 1111 0030 0023     		movs	r3, #0
 1112 0032 80F82430 		strb	r3, [r0, #36]
 1113              		.loc 1 713 5 view .LVU321
 714:Drivers/STM32F1xx_HAL_Driver/Src/stm32f1xx_hal_adc_ex.c ****     
 715:Drivers/STM32F1xx_HAL_Driver/Src/stm32f1xx_hal_adc_ex.c ****     return HAL_ERROR;
 1114              		.loc 1 715 5 view .LVU322
 1115              		.loc 1 715 12 is_stmt 0 view .LVU323
 1116 0036 0126     		movs	r6, #1
 1117              	.LVL55:
 1118              	.L108:
 716:Drivers/STM32F1xx_HAL_Driver/Src/stm32f1xx_hal_adc_ex.c ****   }
 717:Drivers/STM32F1xx_HAL_Driver/Src/stm32f1xx_hal_adc_ex.c ****   
 718:Drivers/STM32F1xx_HAL_Driver/Src/stm32f1xx_hal_adc_ex.c ****   /* Enable the ADC peripherals: master and slave (in case if not already     */
 719:Drivers/STM32F1xx_HAL_Driver/Src/stm32f1xx_hal_adc_ex.c ****   /* enabled previously)                                                      */
 720:Drivers/STM32F1xx_HAL_Driver/Src/stm32f1xx_hal_adc_ex.c ****   tmp_hal_status = ADC_Enable(hadc);
ARM GAS  /tmp/cc6gSbL8.s 			page 35


 721:Drivers/STM32F1xx_HAL_Driver/Src/stm32f1xx_hal_adc_ex.c ****   if (tmp_hal_status == HAL_OK)
 722:Drivers/STM32F1xx_HAL_Driver/Src/stm32f1xx_hal_adc_ex.c ****   {
 723:Drivers/STM32F1xx_HAL_Driver/Src/stm32f1xx_hal_adc_ex.c ****     tmp_hal_status = ADC_Enable(&tmphadcSlave);
 724:Drivers/STM32F1xx_HAL_Driver/Src/stm32f1xx_hal_adc_ex.c ****   }
 725:Drivers/STM32F1xx_HAL_Driver/Src/stm32f1xx_hal_adc_ex.c ****   
 726:Drivers/STM32F1xx_HAL_Driver/Src/stm32f1xx_hal_adc_ex.c ****   /* Start conversion if all ADCs of multimode are effectively enabled */
 727:Drivers/STM32F1xx_HAL_Driver/Src/stm32f1xx_hal_adc_ex.c ****   if (tmp_hal_status == HAL_OK)
 728:Drivers/STM32F1xx_HAL_Driver/Src/stm32f1xx_hal_adc_ex.c ****   {
 729:Drivers/STM32F1xx_HAL_Driver/Src/stm32f1xx_hal_adc_ex.c ****     /* Set ADC state (ADC master)                                             */
 730:Drivers/STM32F1xx_HAL_Driver/Src/stm32f1xx_hal_adc_ex.c ****     /* - Clear state bitfield related to regular group conversion results     */
 731:Drivers/STM32F1xx_HAL_Driver/Src/stm32f1xx_hal_adc_ex.c ****     /* - Set state bitfield related to regular operation                      */
 732:Drivers/STM32F1xx_HAL_Driver/Src/stm32f1xx_hal_adc_ex.c ****     ADC_STATE_CLR_SET(hadc->State,
 733:Drivers/STM32F1xx_HAL_Driver/Src/stm32f1xx_hal_adc_ex.c ****                       HAL_ADC_STATE_READY | HAL_ADC_STATE_REG_EOC | HAL_ADC_STATE_MULTIMODE_SLAVE,
 734:Drivers/STM32F1xx_HAL_Driver/Src/stm32f1xx_hal_adc_ex.c ****                       HAL_ADC_STATE_REG_BUSY);
 735:Drivers/STM32F1xx_HAL_Driver/Src/stm32f1xx_hal_adc_ex.c ****       
 736:Drivers/STM32F1xx_HAL_Driver/Src/stm32f1xx_hal_adc_ex.c ****     /* If conversions on group regular are also triggering group injected,    */
 737:Drivers/STM32F1xx_HAL_Driver/Src/stm32f1xx_hal_adc_ex.c ****     /* update ADC state.                                                      */
 738:Drivers/STM32F1xx_HAL_Driver/Src/stm32f1xx_hal_adc_ex.c ****     if (READ_BIT(hadc->Instance->CR1, ADC_CR1_JAUTO) != RESET)
 739:Drivers/STM32F1xx_HAL_Driver/Src/stm32f1xx_hal_adc_ex.c ****     {
 740:Drivers/STM32F1xx_HAL_Driver/Src/stm32f1xx_hal_adc_ex.c ****       ADC_STATE_CLR_SET(hadc->State, HAL_ADC_STATE_INJ_EOC, HAL_ADC_STATE_INJ_BUSY);  
 741:Drivers/STM32F1xx_HAL_Driver/Src/stm32f1xx_hal_adc_ex.c ****     }
 742:Drivers/STM32F1xx_HAL_Driver/Src/stm32f1xx_hal_adc_ex.c ****     
 743:Drivers/STM32F1xx_HAL_Driver/Src/stm32f1xx_hal_adc_ex.c ****     /* Process unlocked */
 744:Drivers/STM32F1xx_HAL_Driver/Src/stm32f1xx_hal_adc_ex.c ****     /* Unlock before starting ADC conversions: in case of potential           */
 745:Drivers/STM32F1xx_HAL_Driver/Src/stm32f1xx_hal_adc_ex.c ****     /* interruption, to let the process to ADC IRQ Handler.                   */
 746:Drivers/STM32F1xx_HAL_Driver/Src/stm32f1xx_hal_adc_ex.c ****     __HAL_UNLOCK(hadc);
 747:Drivers/STM32F1xx_HAL_Driver/Src/stm32f1xx_hal_adc_ex.c ****     
 748:Drivers/STM32F1xx_HAL_Driver/Src/stm32f1xx_hal_adc_ex.c ****     /* Set ADC error code to none */
 749:Drivers/STM32F1xx_HAL_Driver/Src/stm32f1xx_hal_adc_ex.c ****     ADC_CLEAR_ERRORCODE(hadc);
 750:Drivers/STM32F1xx_HAL_Driver/Src/stm32f1xx_hal_adc_ex.c ****     
 751:Drivers/STM32F1xx_HAL_Driver/Src/stm32f1xx_hal_adc_ex.c ****     
 752:Drivers/STM32F1xx_HAL_Driver/Src/stm32f1xx_hal_adc_ex.c ****     /* Set the DMA transfer complete callback */
 753:Drivers/STM32F1xx_HAL_Driver/Src/stm32f1xx_hal_adc_ex.c ****     hadc->DMA_Handle->XferCpltCallback = ADC_DMAConvCplt;
 754:Drivers/STM32F1xx_HAL_Driver/Src/stm32f1xx_hal_adc_ex.c ****        
 755:Drivers/STM32F1xx_HAL_Driver/Src/stm32f1xx_hal_adc_ex.c ****     /* Set the DMA half transfer complete callback */
 756:Drivers/STM32F1xx_HAL_Driver/Src/stm32f1xx_hal_adc_ex.c ****     hadc->DMA_Handle->XferHalfCpltCallback = ADC_DMAHalfConvCplt;
 757:Drivers/STM32F1xx_HAL_Driver/Src/stm32f1xx_hal_adc_ex.c ****     
 758:Drivers/STM32F1xx_HAL_Driver/Src/stm32f1xx_hal_adc_ex.c ****     /* Set the DMA error callback */
 759:Drivers/STM32F1xx_HAL_Driver/Src/stm32f1xx_hal_adc_ex.c ****     hadc->DMA_Handle->XferErrorCallback = ADC_DMAError;
 760:Drivers/STM32F1xx_HAL_Driver/Src/stm32f1xx_hal_adc_ex.c **** 
 761:Drivers/STM32F1xx_HAL_Driver/Src/stm32f1xx_hal_adc_ex.c ****     
 762:Drivers/STM32F1xx_HAL_Driver/Src/stm32f1xx_hal_adc_ex.c ****     /* Manage ADC and DMA start: ADC overrun interruption, DMA start, ADC     */
 763:Drivers/STM32F1xx_HAL_Driver/Src/stm32f1xx_hal_adc_ex.c ****     /* start (in case of SW start):                                           */
 764:Drivers/STM32F1xx_HAL_Driver/Src/stm32f1xx_hal_adc_ex.c ****     
 765:Drivers/STM32F1xx_HAL_Driver/Src/stm32f1xx_hal_adc_ex.c ****     /* Clear regular group conversion flag and overrun flag */
 766:Drivers/STM32F1xx_HAL_Driver/Src/stm32f1xx_hal_adc_ex.c ****     /* (To ensure of no unknown state from potential previous ADC operations) */
 767:Drivers/STM32F1xx_HAL_Driver/Src/stm32f1xx_hal_adc_ex.c ****     __HAL_ADC_CLEAR_FLAG(hadc, ADC_FLAG_EOC);
 768:Drivers/STM32F1xx_HAL_Driver/Src/stm32f1xx_hal_adc_ex.c ****     
 769:Drivers/STM32F1xx_HAL_Driver/Src/stm32f1xx_hal_adc_ex.c ****     /* Enable ADC DMA mode of ADC master */
 770:Drivers/STM32F1xx_HAL_Driver/Src/stm32f1xx_hal_adc_ex.c ****     SET_BIT(hadc->Instance->CR2, ADC_CR2_DMA);
 771:Drivers/STM32F1xx_HAL_Driver/Src/stm32f1xx_hal_adc_ex.c ****     
 772:Drivers/STM32F1xx_HAL_Driver/Src/stm32f1xx_hal_adc_ex.c ****     /* Start the DMA channel */
 773:Drivers/STM32F1xx_HAL_Driver/Src/stm32f1xx_hal_adc_ex.c ****     HAL_DMA_Start_IT(hadc->DMA_Handle, (uint32_t)&hadc->Instance->DR, (uint32_t)pData, Length);
 774:Drivers/STM32F1xx_HAL_Driver/Src/stm32f1xx_hal_adc_ex.c ****     
 775:Drivers/STM32F1xx_HAL_Driver/Src/stm32f1xx_hal_adc_ex.c ****     /* Start conversion of regular group if software start has been selected. */
 776:Drivers/STM32F1xx_HAL_Driver/Src/stm32f1xx_hal_adc_ex.c ****     /* If external trigger has been selected, conversion will start at next   */
 777:Drivers/STM32F1xx_HAL_Driver/Src/stm32f1xx_hal_adc_ex.c ****     /* trigger event.                                                         */
ARM GAS  /tmp/cc6gSbL8.s 			page 36


 778:Drivers/STM32F1xx_HAL_Driver/Src/stm32f1xx_hal_adc_ex.c ****     /* Note: Alternate trigger for single conversion could be to force an     */
 779:Drivers/STM32F1xx_HAL_Driver/Src/stm32f1xx_hal_adc_ex.c ****     /*       additional set of bit ADON "hadc->Instance->CR2 |= ADC_CR2_ADON;"*/
 780:Drivers/STM32F1xx_HAL_Driver/Src/stm32f1xx_hal_adc_ex.c ****     if (ADC_IS_SOFTWARE_START_REGULAR(hadc))
 781:Drivers/STM32F1xx_HAL_Driver/Src/stm32f1xx_hal_adc_ex.c ****     {
 782:Drivers/STM32F1xx_HAL_Driver/Src/stm32f1xx_hal_adc_ex.c ****       /* Start ADC conversion on regular group with SW start */
 783:Drivers/STM32F1xx_HAL_Driver/Src/stm32f1xx_hal_adc_ex.c ****       SET_BIT(hadc->Instance->CR2, (ADC_CR2_SWSTART | ADC_CR2_EXTTRIG));
 784:Drivers/STM32F1xx_HAL_Driver/Src/stm32f1xx_hal_adc_ex.c ****     }
 785:Drivers/STM32F1xx_HAL_Driver/Src/stm32f1xx_hal_adc_ex.c ****     else
 786:Drivers/STM32F1xx_HAL_Driver/Src/stm32f1xx_hal_adc_ex.c ****     {
 787:Drivers/STM32F1xx_HAL_Driver/Src/stm32f1xx_hal_adc_ex.c ****       /* Start ADC conversion on regular group with external trigger */
 788:Drivers/STM32F1xx_HAL_Driver/Src/stm32f1xx_hal_adc_ex.c ****       SET_BIT(hadc->Instance->CR2, ADC_CR2_EXTTRIG);
 789:Drivers/STM32F1xx_HAL_Driver/Src/stm32f1xx_hal_adc_ex.c ****     }
 790:Drivers/STM32F1xx_HAL_Driver/Src/stm32f1xx_hal_adc_ex.c ****   }
 791:Drivers/STM32F1xx_HAL_Driver/Src/stm32f1xx_hal_adc_ex.c ****   else
 792:Drivers/STM32F1xx_HAL_Driver/Src/stm32f1xx_hal_adc_ex.c ****   {
 793:Drivers/STM32F1xx_HAL_Driver/Src/stm32f1xx_hal_adc_ex.c ****     /* Process unlocked */
 794:Drivers/STM32F1xx_HAL_Driver/Src/stm32f1xx_hal_adc_ex.c ****     __HAL_UNLOCK(hadc);
 795:Drivers/STM32F1xx_HAL_Driver/Src/stm32f1xx_hal_adc_ex.c ****   }
 796:Drivers/STM32F1xx_HAL_Driver/Src/stm32f1xx_hal_adc_ex.c ****   
 797:Drivers/STM32F1xx_HAL_Driver/Src/stm32f1xx_hal_adc_ex.c ****   /* Return function status */
 798:Drivers/STM32F1xx_HAL_Driver/Src/stm32f1xx_hal_adc_ex.c ****   return tmp_hal_status;
 799:Drivers/STM32F1xx_HAL_Driver/Src/stm32f1xx_hal_adc_ex.c **** }
 1119              		.loc 1 799 1 view .LVU324
 1120 0038 3046     		mov	r0, r6
 1121 003a 0DB0     		add	sp, sp, #52
 1122              	.LCFI18:
 1123              		.cfi_remember_state
 1124              		.cfi_def_cfa_offset 20
 1125              		@ sp needed
 1126 003c F0BD     		pop	{r4, r5, r6, r7, pc}
 1127              	.LVL56:
 1128              	.L109:
 1129              	.LCFI19:
 1130              		.cfi_restore_state
 720:Drivers/STM32F1xx_HAL_Driver/Src/stm32f1xx_hal_adc_ex.c ****   if (tmp_hal_status == HAL_OK)
 1131              		.loc 1 720 3 is_stmt 1 view .LVU325
 720:Drivers/STM32F1xx_HAL_Driver/Src/stm32f1xx_hal_adc_ex.c ****   if (tmp_hal_status == HAL_OK)
 1132              		.loc 1 720 20 is_stmt 0 view .LVU326
 1133 003e FFF7FEFF 		bl	ADC_Enable
 1134              	.LVL57:
 721:Drivers/STM32F1xx_HAL_Driver/Src/stm32f1xx_hal_adc_ex.c ****   {
 1135              		.loc 1 721 3 is_stmt 1 view .LVU327
 721:Drivers/STM32F1xx_HAL_Driver/Src/stm32f1xx_hal_adc_ex.c ****   {
 1136              		.loc 1 721 6 is_stmt 0 view .LVU328
 1137 0042 0646     		mov	r6, r0
 1138 0044 0028     		cmp	r0, #0
 1139 0046 3BD0     		beq	.L116
 1140              	.LVL58:
 1141              	.L110:
 727:Drivers/STM32F1xx_HAL_Driver/Src/stm32f1xx_hal_adc_ex.c ****   {
 1142              		.loc 1 727 3 is_stmt 1 view .LVU329
 727:Drivers/STM32F1xx_HAL_Driver/Src/stm32f1xx_hal_adc_ex.c ****   {
 1143              		.loc 1 727 6 is_stmt 0 view .LVU330
 1144 0048 002E     		cmp	r6, #0
 1145 004a 43D1     		bne	.L111
 732:Drivers/STM32F1xx_HAL_Driver/Src/stm32f1xx_hal_adc_ex.c ****                       HAL_ADC_STATE_READY | HAL_ADC_STATE_REG_EOC | HAL_ADC_STATE_MULTIMODE_SLAVE,
 1146              		.loc 1 732 5 is_stmt 1 view .LVU331
ARM GAS  /tmp/cc6gSbL8.s 			page 37


 1147 004c A26A     		ldr	r2, [r4, #40]
 1148 004e 254B     		ldr	r3, .L118+4
 1149 0050 1340     		ands	r3, r3, r2
 1150 0052 43F48073 		orr	r3, r3, #256
 1151 0056 A362     		str	r3, [r4, #40]
 738:Drivers/STM32F1xx_HAL_Driver/Src/stm32f1xx_hal_adc_ex.c ****     {
 1152              		.loc 1 738 5 view .LVU332
 738:Drivers/STM32F1xx_HAL_Driver/Src/stm32f1xx_hal_adc_ex.c ****     {
 1153              		.loc 1 738 9 is_stmt 0 view .LVU333
 1154 0058 2368     		ldr	r3, [r4]
 1155 005a 5B68     		ldr	r3, [r3, #4]
 738:Drivers/STM32F1xx_HAL_Driver/Src/stm32f1xx_hal_adc_ex.c ****     {
 1156              		.loc 1 738 8 view .LVU334
 1157 005c 13F4806F 		tst	r3, #1024
 1158 0060 05D0     		beq	.L112
 740:Drivers/STM32F1xx_HAL_Driver/Src/stm32f1xx_hal_adc_ex.c ****     }
 1159              		.loc 1 740 7 is_stmt 1 view .LVU335
 1160 0062 A36A     		ldr	r3, [r4, #40]
 1161 0064 23F44053 		bic	r3, r3, #12288
 1162 0068 43F48053 		orr	r3, r3, #4096
 1163 006c A362     		str	r3, [r4, #40]
 1164              	.L112:
 746:Drivers/STM32F1xx_HAL_Driver/Src/stm32f1xx_hal_adc_ex.c ****     
 1165              		.loc 1 746 5 view .LVU336
 746:Drivers/STM32F1xx_HAL_Driver/Src/stm32f1xx_hal_adc_ex.c ****     
 1166              		.loc 1 746 5 view .LVU337
 1167 006e 0023     		movs	r3, #0
 1168 0070 84F82430 		strb	r3, [r4, #36]
 746:Drivers/STM32F1xx_HAL_Driver/Src/stm32f1xx_hal_adc_ex.c ****     
 1169              		.loc 1 746 5 view .LVU338
 749:Drivers/STM32F1xx_HAL_Driver/Src/stm32f1xx_hal_adc_ex.c ****     
 1170              		.loc 1 749 5 view .LVU339
 1171 0074 E362     		str	r3, [r4, #44]
 753:Drivers/STM32F1xx_HAL_Driver/Src/stm32f1xx_hal_adc_ex.c ****        
 1172              		.loc 1 753 5 view .LVU340
 753:Drivers/STM32F1xx_HAL_Driver/Src/stm32f1xx_hal_adc_ex.c ****        
 1173              		.loc 1 753 9 is_stmt 0 view .LVU341
 1174 0076 236A     		ldr	r3, [r4, #32]
 753:Drivers/STM32F1xx_HAL_Driver/Src/stm32f1xx_hal_adc_ex.c ****        
 1175              		.loc 1 753 40 view .LVU342
 1176 0078 1B4A     		ldr	r2, .L118+8
 1177 007a 9A62     		str	r2, [r3, #40]
 756:Drivers/STM32F1xx_HAL_Driver/Src/stm32f1xx_hal_adc_ex.c ****     
 1178              		.loc 1 756 5 is_stmt 1 view .LVU343
 756:Drivers/STM32F1xx_HAL_Driver/Src/stm32f1xx_hal_adc_ex.c ****     
 1179              		.loc 1 756 9 is_stmt 0 view .LVU344
 1180 007c 236A     		ldr	r3, [r4, #32]
 756:Drivers/STM32F1xx_HAL_Driver/Src/stm32f1xx_hal_adc_ex.c ****     
 1181              		.loc 1 756 44 view .LVU345
 1182 007e 1B4A     		ldr	r2, .L118+12
 1183 0080 DA62     		str	r2, [r3, #44]
 759:Drivers/STM32F1xx_HAL_Driver/Src/stm32f1xx_hal_adc_ex.c **** 
 1184              		.loc 1 759 5 is_stmt 1 view .LVU346
 759:Drivers/STM32F1xx_HAL_Driver/Src/stm32f1xx_hal_adc_ex.c **** 
 1185              		.loc 1 759 9 is_stmt 0 view .LVU347
 1186 0082 236A     		ldr	r3, [r4, #32]
 759:Drivers/STM32F1xx_HAL_Driver/Src/stm32f1xx_hal_adc_ex.c **** 
ARM GAS  /tmp/cc6gSbL8.s 			page 38


 1187              		.loc 1 759 41 view .LVU348
 1188 0084 1A4A     		ldr	r2, .L118+16
 1189 0086 1A63     		str	r2, [r3, #48]
 767:Drivers/STM32F1xx_HAL_Driver/Src/stm32f1xx_hal_adc_ex.c ****     
 1190              		.loc 1 767 5 is_stmt 1 view .LVU349
 1191 0088 2368     		ldr	r3, [r4]
 1192 008a 6FF00202 		mvn	r2, #2
 1193 008e 1A60     		str	r2, [r3]
 770:Drivers/STM32F1xx_HAL_Driver/Src/stm32f1xx_hal_adc_ex.c ****     
 1194              		.loc 1 770 5 view .LVU350
 1195 0090 2268     		ldr	r2, [r4]
 1196 0092 9368     		ldr	r3, [r2, #8]
 1197 0094 43F48073 		orr	r3, r3, #256
 1198 0098 9360     		str	r3, [r2, #8]
 773:Drivers/STM32F1xx_HAL_Driver/Src/stm32f1xx_hal_adc_ex.c ****     
 1199              		.loc 1 773 5 view .LVU351
 773:Drivers/STM32F1xx_HAL_Driver/Src/stm32f1xx_hal_adc_ex.c ****     
 1200              		.loc 1 773 55 is_stmt 0 view .LVU352
 1201 009a 2168     		ldr	r1, [r4]
 773:Drivers/STM32F1xx_HAL_Driver/Src/stm32f1xx_hal_adc_ex.c ****     
 1202              		.loc 1 773 5 view .LVU353
 1203 009c 3B46     		mov	r3, r7
 1204 009e 2A46     		mov	r2, r5
 1205 00a0 4C31     		adds	r1, r1, #76
 1206 00a2 206A     		ldr	r0, [r4, #32]
 1207 00a4 FFF7FEFF 		bl	HAL_DMA_Start_IT
 1208              	.LVL59:
 780:Drivers/STM32F1xx_HAL_Driver/Src/stm32f1xx_hal_adc_ex.c ****     {
 1209              		.loc 1 780 5 is_stmt 1 view .LVU354
 780:Drivers/STM32F1xx_HAL_Driver/Src/stm32f1xx_hal_adc_ex.c ****     {
 1210              		.loc 1 780 9 is_stmt 0 view .LVU355
 1211 00a8 2368     		ldr	r3, [r4]
 1212 00aa 9A68     		ldr	r2, [r3, #8]
 1213 00ac 02F46022 		and	r2, r2, #917504
 780:Drivers/STM32F1xx_HAL_Driver/Src/stm32f1xx_hal_adc_ex.c ****     {
 1214              		.loc 1 780 8 view .LVU356
 1215 00b0 B2F5602F 		cmp	r2, #917504
 1216 00b4 09D0     		beq	.L117
 788:Drivers/STM32F1xx_HAL_Driver/Src/stm32f1xx_hal_adc_ex.c ****     }
 1217              		.loc 1 788 7 is_stmt 1 view .LVU357
 1218 00b6 9A68     		ldr	r2, [r3, #8]
 1219 00b8 42F48012 		orr	r2, r2, #1048576
 1220 00bc 9A60     		str	r2, [r3, #8]
 1221 00be BBE7     		b	.L108
 1222              	.LVL60:
 1223              	.L116:
 723:Drivers/STM32F1xx_HAL_Driver/Src/stm32f1xx_hal_adc_ex.c ****   }
 1224              		.loc 1 723 5 view .LVU358
 723:Drivers/STM32F1xx_HAL_Driver/Src/stm32f1xx_hal_adc_ex.c ****   }
 1225              		.loc 1 723 22 is_stmt 0 view .LVU359
 1226 00c0 6846     		mov	r0, sp
 1227              	.LVL61:
 723:Drivers/STM32F1xx_HAL_Driver/Src/stm32f1xx_hal_adc_ex.c ****   }
 1228              		.loc 1 723 22 view .LVU360
 1229 00c2 FFF7FEFF 		bl	ADC_Enable
 1230              	.LVL62:
 1231 00c6 0646     		mov	r6, r0
ARM GAS  /tmp/cc6gSbL8.s 			page 39


 1232              	.LVL63:
 723:Drivers/STM32F1xx_HAL_Driver/Src/stm32f1xx_hal_adc_ex.c ****   }
 1233              		.loc 1 723 22 view .LVU361
 1234 00c8 BEE7     		b	.L110
 1235              	.L117:
 783:Drivers/STM32F1xx_HAL_Driver/Src/stm32f1xx_hal_adc_ex.c ****     }
 1236              		.loc 1 783 7 is_stmt 1 view .LVU362
 1237 00ca 9A68     		ldr	r2, [r3, #8]
 1238 00cc 42F4A002 		orr	r2, r2, #5242880
 1239 00d0 9A60     		str	r2, [r3, #8]
 1240 00d2 B1E7     		b	.L108
 1241              	.L111:
 794:Drivers/STM32F1xx_HAL_Driver/Src/stm32f1xx_hal_adc_ex.c ****   }
 1242              		.loc 1 794 5 view .LVU363
 794:Drivers/STM32F1xx_HAL_Driver/Src/stm32f1xx_hal_adc_ex.c ****   }
 1243              		.loc 1 794 5 view .LVU364
 1244 00d4 0023     		movs	r3, #0
 1245 00d6 84F82430 		strb	r3, [r4, #36]
 1246 00da ADE7     		b	.L108
 1247              	.LVL64:
 1248              	.L114:
 698:Drivers/STM32F1xx_HAL_Driver/Src/stm32f1xx_hal_adc_ex.c **** 
 1249              		.loc 1 698 3 is_stmt 0 view .LVU365
 1250 00dc 0226     		movs	r6, #2
 1251 00de ABE7     		b	.L108
 1252              	.L119:
 1253              		.align	2
 1254              	.L118:
 1255 00e0 00280140 		.word	1073817600
 1256 00e4 FEFCEFFF 		.word	-1049346
 1257 00e8 00000000 		.word	ADC_DMAConvCplt
 1258 00ec 00000000 		.word	ADC_DMAHalfConvCplt
 1259 00f0 00000000 		.word	ADC_DMAError
 1260              		.cfi_endproc
 1261              	.LFE72:
 1263              		.section	.text.HAL_ADCEx_MultiModeStop_DMA,"ax",%progbits
 1264              		.align	1
 1265              		.global	HAL_ADCEx_MultiModeStop_DMA
 1266              		.syntax unified
 1267              		.thumb
 1268              		.thumb_func
 1269              		.fpu softvfp
 1271              	HAL_ADCEx_MultiModeStop_DMA:
 1272              	.LVL65:
 1273              	.LFB73:
 800:Drivers/STM32F1xx_HAL_Driver/Src/stm32f1xx_hal_adc_ex.c **** 
 801:Drivers/STM32F1xx_HAL_Driver/Src/stm32f1xx_hal_adc_ex.c **** /**
 802:Drivers/STM32F1xx_HAL_Driver/Src/stm32f1xx_hal_adc_ex.c ****   * @brief  Stop ADC conversion of regular group (and injected channels in 
 803:Drivers/STM32F1xx_HAL_Driver/Src/stm32f1xx_hal_adc_ex.c ****   *         case of auto_injection mode), disable ADC DMA transfer, disable 
 804:Drivers/STM32F1xx_HAL_Driver/Src/stm32f1xx_hal_adc_ex.c ****   *         ADC peripheral.
 805:Drivers/STM32F1xx_HAL_Driver/Src/stm32f1xx_hal_adc_ex.c ****   * @note   Multimode is kept enabled after this function. To disable multimode 
 806:Drivers/STM32F1xx_HAL_Driver/Src/stm32f1xx_hal_adc_ex.c ****   *         (set with HAL_ADCEx_MultiModeConfigChannel(), ADC must be 
 807:Drivers/STM32F1xx_HAL_Driver/Src/stm32f1xx_hal_adc_ex.c ****   *         reinitialized using HAL_ADC_Init() or HAL_ADC_ReInit().
 808:Drivers/STM32F1xx_HAL_Driver/Src/stm32f1xx_hal_adc_ex.c ****   * @note   In case of DMA configured in circular mode, function 
 809:Drivers/STM32F1xx_HAL_Driver/Src/stm32f1xx_hal_adc_ex.c ****   *         HAL_ADC_Stop_DMA must be called after this function with handle of
 810:Drivers/STM32F1xx_HAL_Driver/Src/stm32f1xx_hal_adc_ex.c ****   *         ADC slave, to properly disable the DMA channel.
 811:Drivers/STM32F1xx_HAL_Driver/Src/stm32f1xx_hal_adc_ex.c ****   * @param  hadc: ADC handle of ADC master (handle of ADC slave must not be used)
ARM GAS  /tmp/cc6gSbL8.s 			page 40


 812:Drivers/STM32F1xx_HAL_Driver/Src/stm32f1xx_hal_adc_ex.c ****   * @retval None
 813:Drivers/STM32F1xx_HAL_Driver/Src/stm32f1xx_hal_adc_ex.c ****   */
 814:Drivers/STM32F1xx_HAL_Driver/Src/stm32f1xx_hal_adc_ex.c **** HAL_StatusTypeDef HAL_ADCEx_MultiModeStop_DMA(ADC_HandleTypeDef* hadc)
 815:Drivers/STM32F1xx_HAL_Driver/Src/stm32f1xx_hal_adc_ex.c **** {
 1274              		.loc 1 815 1 is_stmt 1 view -0
 1275              		.cfi_startproc
 1276              		@ args = 0, pretend = 0, frame = 48
 1277              		@ frame_needed = 0, uses_anonymous_args = 0
 816:Drivers/STM32F1xx_HAL_Driver/Src/stm32f1xx_hal_adc_ex.c ****   HAL_StatusTypeDef tmp_hal_status = HAL_OK;
 1278              		.loc 1 816 3 view .LVU367
 817:Drivers/STM32F1xx_HAL_Driver/Src/stm32f1xx_hal_adc_ex.c ****   ADC_HandleTypeDef tmphadcSlave;
 1279              		.loc 1 817 3 view .LVU368
 818:Drivers/STM32F1xx_HAL_Driver/Src/stm32f1xx_hal_adc_ex.c ****   
 819:Drivers/STM32F1xx_HAL_Driver/Src/stm32f1xx_hal_adc_ex.c ****   /* Check the parameters */
 820:Drivers/STM32F1xx_HAL_Driver/Src/stm32f1xx_hal_adc_ex.c ****   assert_param(IS_ADC_MULTIMODE_MASTER_INSTANCE(hadc->Instance));
 1280              		.loc 1 820 3 view .LVU369
 821:Drivers/STM32F1xx_HAL_Driver/Src/stm32f1xx_hal_adc_ex.c ****   
 822:Drivers/STM32F1xx_HAL_Driver/Src/stm32f1xx_hal_adc_ex.c ****   /* Process locked */
 823:Drivers/STM32F1xx_HAL_Driver/Src/stm32f1xx_hal_adc_ex.c ****   __HAL_LOCK(hadc);
 1281              		.loc 1 823 3 view .LVU370
 1282              		.loc 1 823 3 view .LVU371
 1283 0000 90F82430 		ldrb	r3, [r0, #36]	@ zero_extendqisi2
 1284 0004 012B     		cmp	r3, #1
 1285 0006 32D0     		beq	.L124
 815:Drivers/STM32F1xx_HAL_Driver/Src/stm32f1xx_hal_adc_ex.c ****   HAL_StatusTypeDef tmp_hal_status = HAL_OK;
 1286              		.loc 1 815 1 is_stmt 0 discriminator 2 view .LVU372
 1287 0008 10B5     		push	{r4, lr}
 1288              	.LCFI20:
 1289              		.cfi_def_cfa_offset 8
 1290              		.cfi_offset 4, -8
 1291              		.cfi_offset 14, -4
 1292 000a 8CB0     		sub	sp, sp, #48
 1293              	.LCFI21:
 1294              		.cfi_def_cfa_offset 56
 1295 000c 0446     		mov	r4, r0
 1296              		.loc 1 823 3 is_stmt 1 discriminator 2 view .LVU373
 1297 000e 0123     		movs	r3, #1
 1298 0010 80F82430 		strb	r3, [r0, #36]
 1299              		.loc 1 823 3 discriminator 2 view .LVU374
 824:Drivers/STM32F1xx_HAL_Driver/Src/stm32f1xx_hal_adc_ex.c ****   
 825:Drivers/STM32F1xx_HAL_Driver/Src/stm32f1xx_hal_adc_ex.c ****  
 826:Drivers/STM32F1xx_HAL_Driver/Src/stm32f1xx_hal_adc_ex.c ****   /* Stop potential conversion on going, on regular and injected groups */
 827:Drivers/STM32F1xx_HAL_Driver/Src/stm32f1xx_hal_adc_ex.c ****   /* Disable ADC master peripheral */
 828:Drivers/STM32F1xx_HAL_Driver/Src/stm32f1xx_hal_adc_ex.c ****   tmp_hal_status = ADC_ConversionStop_Disable(hadc);
 1300              		.loc 1 828 3 discriminator 2 view .LVU375
 1301              		.loc 1 828 20 is_stmt 0 discriminator 2 view .LVU376
 1302 0014 FFF7FEFF 		bl	ADC_ConversionStop_Disable
 1303              	.LVL66:
 829:Drivers/STM32F1xx_HAL_Driver/Src/stm32f1xx_hal_adc_ex.c ****   
 830:Drivers/STM32F1xx_HAL_Driver/Src/stm32f1xx_hal_adc_ex.c ****   /* Check if ADC is effectively disabled */
 831:Drivers/STM32F1xx_HAL_Driver/Src/stm32f1xx_hal_adc_ex.c ****   if(tmp_hal_status == HAL_OK)
 1304              		.loc 1 831 3 is_stmt 1 discriminator 2 view .LVU377
 1305              		.loc 1 831 5 is_stmt 0 discriminator 2 view .LVU378
 1306 0018 20B1     		cbz	r0, .L129
 1307              	.L122:
 832:Drivers/STM32F1xx_HAL_Driver/Src/stm32f1xx_hal_adc_ex.c ****   {
 833:Drivers/STM32F1xx_HAL_Driver/Src/stm32f1xx_hal_adc_ex.c ****     /* Set a temporary handle of the ADC slave associated to the ADC master   */
ARM GAS  /tmp/cc6gSbL8.s 			page 41


 834:Drivers/STM32F1xx_HAL_Driver/Src/stm32f1xx_hal_adc_ex.c ****     ADC_MULTI_SLAVE(hadc, &tmphadcSlave);
 835:Drivers/STM32F1xx_HAL_Driver/Src/stm32f1xx_hal_adc_ex.c **** 
 836:Drivers/STM32F1xx_HAL_Driver/Src/stm32f1xx_hal_adc_ex.c ****     /* Disable ADC slave peripheral */
 837:Drivers/STM32F1xx_HAL_Driver/Src/stm32f1xx_hal_adc_ex.c ****     tmp_hal_status = ADC_ConversionStop_Disable(&tmphadcSlave);
 838:Drivers/STM32F1xx_HAL_Driver/Src/stm32f1xx_hal_adc_ex.c **** 
 839:Drivers/STM32F1xx_HAL_Driver/Src/stm32f1xx_hal_adc_ex.c ****     /* Check if ADC is effectively disabled */
 840:Drivers/STM32F1xx_HAL_Driver/Src/stm32f1xx_hal_adc_ex.c ****     if(tmp_hal_status != HAL_OK)
 841:Drivers/STM32F1xx_HAL_Driver/Src/stm32f1xx_hal_adc_ex.c ****     {
 842:Drivers/STM32F1xx_HAL_Driver/Src/stm32f1xx_hal_adc_ex.c ****       /* Update ADC state machine to error */
 843:Drivers/STM32F1xx_HAL_Driver/Src/stm32f1xx_hal_adc_ex.c ****       SET_BIT(hadc->State, HAL_ADC_STATE_ERROR_INTERNAL);
 844:Drivers/STM32F1xx_HAL_Driver/Src/stm32f1xx_hal_adc_ex.c **** 
 845:Drivers/STM32F1xx_HAL_Driver/Src/stm32f1xx_hal_adc_ex.c ****       /* Process unlocked */
 846:Drivers/STM32F1xx_HAL_Driver/Src/stm32f1xx_hal_adc_ex.c ****       __HAL_UNLOCK(hadc);
 847:Drivers/STM32F1xx_HAL_Driver/Src/stm32f1xx_hal_adc_ex.c **** 
 848:Drivers/STM32F1xx_HAL_Driver/Src/stm32f1xx_hal_adc_ex.c ****       return HAL_ERROR;
 849:Drivers/STM32F1xx_HAL_Driver/Src/stm32f1xx_hal_adc_ex.c ****     }
 850:Drivers/STM32F1xx_HAL_Driver/Src/stm32f1xx_hal_adc_ex.c **** 
 851:Drivers/STM32F1xx_HAL_Driver/Src/stm32f1xx_hal_adc_ex.c ****     /* Disable ADC DMA mode */
 852:Drivers/STM32F1xx_HAL_Driver/Src/stm32f1xx_hal_adc_ex.c ****     CLEAR_BIT(hadc->Instance->CR2, ADC_CR2_DMA);
 853:Drivers/STM32F1xx_HAL_Driver/Src/stm32f1xx_hal_adc_ex.c ****     
 854:Drivers/STM32F1xx_HAL_Driver/Src/stm32f1xx_hal_adc_ex.c ****     /* Reset configuration of ADC DMA continuous request for dual mode */
 855:Drivers/STM32F1xx_HAL_Driver/Src/stm32f1xx_hal_adc_ex.c ****     CLEAR_BIT(hadc->Instance->CR1, ADC_CR1_DUALMOD);
 856:Drivers/STM32F1xx_HAL_Driver/Src/stm32f1xx_hal_adc_ex.c ****         
 857:Drivers/STM32F1xx_HAL_Driver/Src/stm32f1xx_hal_adc_ex.c ****     /* Disable the DMA channel (in case of DMA in circular mode or stop while */
 858:Drivers/STM32F1xx_HAL_Driver/Src/stm32f1xx_hal_adc_ex.c ****     /* while DMA transfer is on going)                                        */
 859:Drivers/STM32F1xx_HAL_Driver/Src/stm32f1xx_hal_adc_ex.c ****     tmp_hal_status = HAL_DMA_Abort(hadc->DMA_Handle);
 860:Drivers/STM32F1xx_HAL_Driver/Src/stm32f1xx_hal_adc_ex.c **** 
 861:Drivers/STM32F1xx_HAL_Driver/Src/stm32f1xx_hal_adc_ex.c ****     /* Change ADC state (ADC master) */
 862:Drivers/STM32F1xx_HAL_Driver/Src/stm32f1xx_hal_adc_ex.c ****     ADC_STATE_CLR_SET(hadc->State,
 863:Drivers/STM32F1xx_HAL_Driver/Src/stm32f1xx_hal_adc_ex.c ****                       HAL_ADC_STATE_REG_BUSY | HAL_ADC_STATE_INJ_BUSY,
 864:Drivers/STM32F1xx_HAL_Driver/Src/stm32f1xx_hal_adc_ex.c ****                       HAL_ADC_STATE_READY);
 865:Drivers/STM32F1xx_HAL_Driver/Src/stm32f1xx_hal_adc_ex.c ****   }
 866:Drivers/STM32F1xx_HAL_Driver/Src/stm32f1xx_hal_adc_ex.c ****   
 867:Drivers/STM32F1xx_HAL_Driver/Src/stm32f1xx_hal_adc_ex.c ****   /* Process unlocked */
 868:Drivers/STM32F1xx_HAL_Driver/Src/stm32f1xx_hal_adc_ex.c ****   __HAL_UNLOCK(hadc);
 1308              		.loc 1 868 3 is_stmt 1 view .LVU379
 1309              		.loc 1 868 3 view .LVU380
 1310 001a 0023     		movs	r3, #0
 1311 001c 84F82430 		strb	r3, [r4, #36]
 1312              		.loc 1 868 3 view .LVU381
 869:Drivers/STM32F1xx_HAL_Driver/Src/stm32f1xx_hal_adc_ex.c ****   
 870:Drivers/STM32F1xx_HAL_Driver/Src/stm32f1xx_hal_adc_ex.c ****   /* Return function status */
 871:Drivers/STM32F1xx_HAL_Driver/Src/stm32f1xx_hal_adc_ex.c ****   return tmp_hal_status;
 1313              		.loc 1 871 3 view .LVU382
 1314              	.LVL67:
 1315              	.L121:
 872:Drivers/STM32F1xx_HAL_Driver/Src/stm32f1xx_hal_adc_ex.c **** }
 1316              		.loc 1 872 1 is_stmt 0 view .LVU383
 1317 0020 0CB0     		add	sp, sp, #48
 1318              	.LCFI22:
 1319              		.cfi_remember_state
 1320              		.cfi_def_cfa_offset 8
 1321              		@ sp needed
 1322 0022 10BD     		pop	{r4, pc}
 1323              	.LVL68:
 1324              	.L129:
 1325              	.LCFI23:
ARM GAS  /tmp/cc6gSbL8.s 			page 42


 1326              		.cfi_restore_state
 834:Drivers/STM32F1xx_HAL_Driver/Src/stm32f1xx_hal_adc_ex.c **** 
 1327              		.loc 1 834 5 is_stmt 1 view .LVU384
 1328 0024 134B     		ldr	r3, .L130
 1329 0026 0093     		str	r3, [sp]
 837:Drivers/STM32F1xx_HAL_Driver/Src/stm32f1xx_hal_adc_ex.c **** 
 1330              		.loc 1 837 5 view .LVU385
 837:Drivers/STM32F1xx_HAL_Driver/Src/stm32f1xx_hal_adc_ex.c **** 
 1331              		.loc 1 837 22 is_stmt 0 view .LVU386
 1332 0028 6846     		mov	r0, sp
 1333              	.LVL69:
 837:Drivers/STM32F1xx_HAL_Driver/Src/stm32f1xx_hal_adc_ex.c **** 
 1334              		.loc 1 837 22 view .LVU387
 1335 002a FFF7FEFF 		bl	ADC_ConversionStop_Disable
 1336              	.LVL70:
 840:Drivers/STM32F1xx_HAL_Driver/Src/stm32f1xx_hal_adc_ex.c ****     {
 1337              		.loc 1 840 5 is_stmt 1 view .LVU388
 840:Drivers/STM32F1xx_HAL_Driver/Src/stm32f1xx_hal_adc_ex.c ****     {
 1338              		.loc 1 840 7 is_stmt 0 view .LVU389
 1339 002e 40B1     		cbz	r0, .L123
 843:Drivers/STM32F1xx_HAL_Driver/Src/stm32f1xx_hal_adc_ex.c **** 
 1340              		.loc 1 843 7 is_stmt 1 view .LVU390
 1341 0030 A36A     		ldr	r3, [r4, #40]
 1342 0032 43F01003 		orr	r3, r3, #16
 1343 0036 A362     		str	r3, [r4, #40]
 846:Drivers/STM32F1xx_HAL_Driver/Src/stm32f1xx_hal_adc_ex.c **** 
 1344              		.loc 1 846 7 view .LVU391
 846:Drivers/STM32F1xx_HAL_Driver/Src/stm32f1xx_hal_adc_ex.c **** 
 1345              		.loc 1 846 7 view .LVU392
 1346 0038 0023     		movs	r3, #0
 1347 003a 84F82430 		strb	r3, [r4, #36]
 846:Drivers/STM32F1xx_HAL_Driver/Src/stm32f1xx_hal_adc_ex.c **** 
 1348              		.loc 1 846 7 view .LVU393
 848:Drivers/STM32F1xx_HAL_Driver/Src/stm32f1xx_hal_adc_ex.c ****     }
 1349              		.loc 1 848 7 view .LVU394
 848:Drivers/STM32F1xx_HAL_Driver/Src/stm32f1xx_hal_adc_ex.c ****     }
 1350              		.loc 1 848 14 is_stmt 0 view .LVU395
 1351 003e 0120     		movs	r0, #1
 1352              	.LVL71:
 848:Drivers/STM32F1xx_HAL_Driver/Src/stm32f1xx_hal_adc_ex.c ****     }
 1353              		.loc 1 848 14 view .LVU396
 1354 0040 EEE7     		b	.L121
 1355              	.LVL72:
 1356              	.L123:
 852:Drivers/STM32F1xx_HAL_Driver/Src/stm32f1xx_hal_adc_ex.c ****     
 1357              		.loc 1 852 5 is_stmt 1 view .LVU397
 1358 0042 2268     		ldr	r2, [r4]
 1359 0044 9368     		ldr	r3, [r2, #8]
 1360 0046 23F48073 		bic	r3, r3, #256
 1361 004a 9360     		str	r3, [r2, #8]
 855:Drivers/STM32F1xx_HAL_Driver/Src/stm32f1xx_hal_adc_ex.c ****         
 1362              		.loc 1 855 5 view .LVU398
 1363 004c 2268     		ldr	r2, [r4]
 1364 004e 5368     		ldr	r3, [r2, #4]
 1365 0050 23F47023 		bic	r3, r3, #983040
 1366 0054 5360     		str	r3, [r2, #4]
 859:Drivers/STM32F1xx_HAL_Driver/Src/stm32f1xx_hal_adc_ex.c **** 
ARM GAS  /tmp/cc6gSbL8.s 			page 43


 1367              		.loc 1 859 5 view .LVU399
 859:Drivers/STM32F1xx_HAL_Driver/Src/stm32f1xx_hal_adc_ex.c **** 
 1368              		.loc 1 859 22 is_stmt 0 view .LVU400
 1369 0056 206A     		ldr	r0, [r4, #32]
 1370              	.LVL73:
 859:Drivers/STM32F1xx_HAL_Driver/Src/stm32f1xx_hal_adc_ex.c **** 
 1371              		.loc 1 859 22 view .LVU401
 1372 0058 FFF7FEFF 		bl	HAL_DMA_Abort
 1373              	.LVL74:
 862:Drivers/STM32F1xx_HAL_Driver/Src/stm32f1xx_hal_adc_ex.c ****                       HAL_ADC_STATE_REG_BUSY | HAL_ADC_STATE_INJ_BUSY,
 1374              		.loc 1 862 5 is_stmt 1 view .LVU402
 1375 005c A36A     		ldr	r3, [r4, #40]
 1376 005e 23F48853 		bic	r3, r3, #4352
 1377 0062 23F00103 		bic	r3, r3, #1
 1378 0066 43F00103 		orr	r3, r3, #1
 1379 006a A362     		str	r3, [r4, #40]
 1380 006c D5E7     		b	.L122
 1381              	.LVL75:
 1382              	.L124:
 1383              	.LCFI24:
 1384              		.cfi_def_cfa_offset 0
 1385              		.cfi_restore 4
 1386              		.cfi_restore 14
 823:Drivers/STM32F1xx_HAL_Driver/Src/stm32f1xx_hal_adc_ex.c ****   
 1387              		.loc 1 823 3 is_stmt 0 view .LVU403
 1388 006e 0220     		movs	r0, #2
 1389              	.LVL76:
 1390              		.loc 1 872 1 view .LVU404
 1391 0070 7047     		bx	lr
 1392              	.L131:
 1393 0072 00BF     		.align	2
 1394              	.L130:
 1395 0074 00280140 		.word	1073817600
 1396              		.cfi_endproc
 1397              	.LFE73:
 1399              		.section	.text.HAL_ADCEx_InjectedGetValue,"ax",%progbits
 1400              		.align	1
 1401              		.global	HAL_ADCEx_InjectedGetValue
 1402              		.syntax unified
 1403              		.thumb
 1404              		.thumb_func
 1405              		.fpu softvfp
 1407              	HAL_ADCEx_InjectedGetValue:
 1408              	.LVL77:
 1409              	.LFB74:
 873:Drivers/STM32F1xx_HAL_Driver/Src/stm32f1xx_hal_adc_ex.c **** #endif /* defined STM32F103x6 || defined STM32F103xB || defined STM32F105xC || defined STM32F107xC 
 874:Drivers/STM32F1xx_HAL_Driver/Src/stm32f1xx_hal_adc_ex.c **** 
 875:Drivers/STM32F1xx_HAL_Driver/Src/stm32f1xx_hal_adc_ex.c **** /**
 876:Drivers/STM32F1xx_HAL_Driver/Src/stm32f1xx_hal_adc_ex.c ****   * @brief  Get ADC injected group conversion result.
 877:Drivers/STM32F1xx_HAL_Driver/Src/stm32f1xx_hal_adc_ex.c ****   * @note   Reading register JDRx automatically clears ADC flag JEOC
 878:Drivers/STM32F1xx_HAL_Driver/Src/stm32f1xx_hal_adc_ex.c ****   *         (ADC group injected end of unitary conversion).
 879:Drivers/STM32F1xx_HAL_Driver/Src/stm32f1xx_hal_adc_ex.c ****   * @note   This function does not clear ADC flag JEOS 
 880:Drivers/STM32F1xx_HAL_Driver/Src/stm32f1xx_hal_adc_ex.c ****   *         (ADC group injected end of sequence conversion)
 881:Drivers/STM32F1xx_HAL_Driver/Src/stm32f1xx_hal_adc_ex.c ****   *         Occurrence of flag JEOS rising:
 882:Drivers/STM32F1xx_HAL_Driver/Src/stm32f1xx_hal_adc_ex.c ****   *          - If sequencer is composed of 1 rank, flag JEOS is equivalent
 883:Drivers/STM32F1xx_HAL_Driver/Src/stm32f1xx_hal_adc_ex.c ****   *            to flag JEOC.
 884:Drivers/STM32F1xx_HAL_Driver/Src/stm32f1xx_hal_adc_ex.c ****   *          - If sequencer is composed of several ranks, during the scan
ARM GAS  /tmp/cc6gSbL8.s 			page 44


 885:Drivers/STM32F1xx_HAL_Driver/Src/stm32f1xx_hal_adc_ex.c ****   *            sequence flag JEOC only is raised, at the end of the scan sequence
 886:Drivers/STM32F1xx_HAL_Driver/Src/stm32f1xx_hal_adc_ex.c ****   *            both flags JEOC and EOS are raised.
 887:Drivers/STM32F1xx_HAL_Driver/Src/stm32f1xx_hal_adc_ex.c ****   *         Flag JEOS must not be cleared by this function because
 888:Drivers/STM32F1xx_HAL_Driver/Src/stm32f1xx_hal_adc_ex.c ****   *         it would not be compliant with low power features
 889:Drivers/STM32F1xx_HAL_Driver/Src/stm32f1xx_hal_adc_ex.c ****   *         (feature low power auto-wait, not available on all STM32 families).
 890:Drivers/STM32F1xx_HAL_Driver/Src/stm32f1xx_hal_adc_ex.c ****   *         To clear this flag, either use function: 
 891:Drivers/STM32F1xx_HAL_Driver/Src/stm32f1xx_hal_adc_ex.c ****   *         in programming model IT: @ref HAL_ADC_IRQHandler(), in programming
 892:Drivers/STM32F1xx_HAL_Driver/Src/stm32f1xx_hal_adc_ex.c ****   *         model polling: @ref HAL_ADCEx_InjectedPollForConversion() 
 893:Drivers/STM32F1xx_HAL_Driver/Src/stm32f1xx_hal_adc_ex.c ****   *         or @ref __HAL_ADC_CLEAR_FLAG(&hadc, ADC_FLAG_JEOS).
 894:Drivers/STM32F1xx_HAL_Driver/Src/stm32f1xx_hal_adc_ex.c ****   * @param  hadc: ADC handle
 895:Drivers/STM32F1xx_HAL_Driver/Src/stm32f1xx_hal_adc_ex.c ****   * @param  InjectedRank: the converted ADC injected rank.
 896:Drivers/STM32F1xx_HAL_Driver/Src/stm32f1xx_hal_adc_ex.c ****   *          This parameter can be one of the following values:
 897:Drivers/STM32F1xx_HAL_Driver/Src/stm32f1xx_hal_adc_ex.c ****   *            @arg ADC_INJECTED_RANK_1: Injected Channel1 selected
 898:Drivers/STM32F1xx_HAL_Driver/Src/stm32f1xx_hal_adc_ex.c ****   *            @arg ADC_INJECTED_RANK_2: Injected Channel2 selected
 899:Drivers/STM32F1xx_HAL_Driver/Src/stm32f1xx_hal_adc_ex.c ****   *            @arg ADC_INJECTED_RANK_3: Injected Channel3 selected
 900:Drivers/STM32F1xx_HAL_Driver/Src/stm32f1xx_hal_adc_ex.c ****   *            @arg ADC_INJECTED_RANK_4: Injected Channel4 selected
 901:Drivers/STM32F1xx_HAL_Driver/Src/stm32f1xx_hal_adc_ex.c ****   * @retval ADC group injected conversion data
 902:Drivers/STM32F1xx_HAL_Driver/Src/stm32f1xx_hal_adc_ex.c ****   */
 903:Drivers/STM32F1xx_HAL_Driver/Src/stm32f1xx_hal_adc_ex.c **** uint32_t HAL_ADCEx_InjectedGetValue(ADC_HandleTypeDef* hadc, uint32_t InjectedRank)
 904:Drivers/STM32F1xx_HAL_Driver/Src/stm32f1xx_hal_adc_ex.c **** {
 1410              		.loc 1 904 1 is_stmt 1 view -0
 1411              		.cfi_startproc
 1412              		@ args = 0, pretend = 0, frame = 0
 1413              		@ frame_needed = 0, uses_anonymous_args = 0
 1414              		@ link register save eliminated.
 905:Drivers/STM32F1xx_HAL_Driver/Src/stm32f1xx_hal_adc_ex.c ****   uint32_t tmp_jdr = 0U;
 1415              		.loc 1 905 3 view .LVU406
 906:Drivers/STM32F1xx_HAL_Driver/Src/stm32f1xx_hal_adc_ex.c ****   
 907:Drivers/STM32F1xx_HAL_Driver/Src/stm32f1xx_hal_adc_ex.c ****   /* Check the parameters */
 908:Drivers/STM32F1xx_HAL_Driver/Src/stm32f1xx_hal_adc_ex.c ****   assert_param(IS_ADC_ALL_INSTANCE(hadc->Instance));
 1416              		.loc 1 908 3 view .LVU407
 909:Drivers/STM32F1xx_HAL_Driver/Src/stm32f1xx_hal_adc_ex.c ****   assert_param(IS_ADC_INJECTED_RANK(InjectedRank));
 1417              		.loc 1 909 3 view .LVU408
 910:Drivers/STM32F1xx_HAL_Driver/Src/stm32f1xx_hal_adc_ex.c ****   
 911:Drivers/STM32F1xx_HAL_Driver/Src/stm32f1xx_hal_adc_ex.c ****   /* Get ADC converted value */ 
 912:Drivers/STM32F1xx_HAL_Driver/Src/stm32f1xx_hal_adc_ex.c ****   switch(InjectedRank)
 1418              		.loc 1 912 3 view .LVU409
 1419 0000 0329     		cmp	r1, #3
 1420 0002 09D0     		beq	.L133
 1421 0004 0429     		cmp	r1, #4
 1422 0006 04D0     		beq	.L134
 1423 0008 0229     		cmp	r1, #2
 1424 000a 08D0     		beq	.L139
 913:Drivers/STM32F1xx_HAL_Driver/Src/stm32f1xx_hal_adc_ex.c ****   {  
 914:Drivers/STM32F1xx_HAL_Driver/Src/stm32f1xx_hal_adc_ex.c ****     case ADC_INJECTED_RANK_4: 
 915:Drivers/STM32F1xx_HAL_Driver/Src/stm32f1xx_hal_adc_ex.c ****       tmp_jdr = hadc->Instance->JDR4;
 916:Drivers/STM32F1xx_HAL_Driver/Src/stm32f1xx_hal_adc_ex.c ****       break;
 917:Drivers/STM32F1xx_HAL_Driver/Src/stm32f1xx_hal_adc_ex.c ****     case ADC_INJECTED_RANK_3: 
 918:Drivers/STM32F1xx_HAL_Driver/Src/stm32f1xx_hal_adc_ex.c ****       tmp_jdr = hadc->Instance->JDR3;
 919:Drivers/STM32F1xx_HAL_Driver/Src/stm32f1xx_hal_adc_ex.c ****       break;
 920:Drivers/STM32F1xx_HAL_Driver/Src/stm32f1xx_hal_adc_ex.c ****     case ADC_INJECTED_RANK_2: 
 921:Drivers/STM32F1xx_HAL_Driver/Src/stm32f1xx_hal_adc_ex.c ****       tmp_jdr = hadc->Instance->JDR2;
 922:Drivers/STM32F1xx_HAL_Driver/Src/stm32f1xx_hal_adc_ex.c ****       break;
 923:Drivers/STM32F1xx_HAL_Driver/Src/stm32f1xx_hal_adc_ex.c ****     case ADC_INJECTED_RANK_1:
 924:Drivers/STM32F1xx_HAL_Driver/Src/stm32f1xx_hal_adc_ex.c ****     default:
 925:Drivers/STM32F1xx_HAL_Driver/Src/stm32f1xx_hal_adc_ex.c ****       tmp_jdr = hadc->Instance->JDR1;
 1425              		.loc 1 925 7 view .LVU410
ARM GAS  /tmp/cc6gSbL8.s 			page 45


 1426              		.loc 1 925 21 is_stmt 0 view .LVU411
 1427 000c 0368     		ldr	r3, [r0]
 1428              		.loc 1 925 15 view .LVU412
 1429 000e D86B     		ldr	r0, [r3, #60]
 1430              	.LVL78:
 926:Drivers/STM32F1xx_HAL_Driver/Src/stm32f1xx_hal_adc_ex.c ****       break;
 1431              		.loc 1 926 7 is_stmt 1 view .LVU413
 927:Drivers/STM32F1xx_HAL_Driver/Src/stm32f1xx_hal_adc_ex.c ****   }
 928:Drivers/STM32F1xx_HAL_Driver/Src/stm32f1xx_hal_adc_ex.c ****   
 929:Drivers/STM32F1xx_HAL_Driver/Src/stm32f1xx_hal_adc_ex.c ****   /* Return ADC converted value */ 
 930:Drivers/STM32F1xx_HAL_Driver/Src/stm32f1xx_hal_adc_ex.c ****   return tmp_jdr;
 1432              		.loc 1 930 3 view .LVU414
 931:Drivers/STM32F1xx_HAL_Driver/Src/stm32f1xx_hal_adc_ex.c **** }
 1433              		.loc 1 931 1 is_stmt 0 view .LVU415
 1434 0010 7047     		bx	lr
 1435              	.LVL79:
 1436              	.L134:
 915:Drivers/STM32F1xx_HAL_Driver/Src/stm32f1xx_hal_adc_ex.c ****       break;
 1437              		.loc 1 915 7 is_stmt 1 view .LVU416
 915:Drivers/STM32F1xx_HAL_Driver/Src/stm32f1xx_hal_adc_ex.c ****       break;
 1438              		.loc 1 915 21 is_stmt 0 view .LVU417
 1439 0012 0368     		ldr	r3, [r0]
 915:Drivers/STM32F1xx_HAL_Driver/Src/stm32f1xx_hal_adc_ex.c ****       break;
 1440              		.loc 1 915 15 view .LVU418
 1441 0014 986C     		ldr	r0, [r3, #72]
 1442              	.LVL80:
 916:Drivers/STM32F1xx_HAL_Driver/Src/stm32f1xx_hal_adc_ex.c ****     case ADC_INJECTED_RANK_3: 
 1443              		.loc 1 916 7 is_stmt 1 view .LVU419
 1444 0016 7047     		bx	lr
 1445              	.LVL81:
 1446              	.L133:
 918:Drivers/STM32F1xx_HAL_Driver/Src/stm32f1xx_hal_adc_ex.c ****       break;
 1447              		.loc 1 918 7 view .LVU420
 918:Drivers/STM32F1xx_HAL_Driver/Src/stm32f1xx_hal_adc_ex.c ****       break;
 1448              		.loc 1 918 21 is_stmt 0 view .LVU421
 1449 0018 0368     		ldr	r3, [r0]
 918:Drivers/STM32F1xx_HAL_Driver/Src/stm32f1xx_hal_adc_ex.c ****       break;
 1450              		.loc 1 918 15 view .LVU422
 1451 001a 586C     		ldr	r0, [r3, #68]
 1452              	.LVL82:
 919:Drivers/STM32F1xx_HAL_Driver/Src/stm32f1xx_hal_adc_ex.c ****     case ADC_INJECTED_RANK_2: 
 1453              		.loc 1 919 7 is_stmt 1 view .LVU423
 1454 001c 7047     		bx	lr
 1455              	.LVL83:
 1456              	.L139:
 921:Drivers/STM32F1xx_HAL_Driver/Src/stm32f1xx_hal_adc_ex.c ****       break;
 1457              		.loc 1 921 7 view .LVU424
 921:Drivers/STM32F1xx_HAL_Driver/Src/stm32f1xx_hal_adc_ex.c ****       break;
 1458              		.loc 1 921 21 is_stmt 0 view .LVU425
 1459 001e 0368     		ldr	r3, [r0]
 921:Drivers/STM32F1xx_HAL_Driver/Src/stm32f1xx_hal_adc_ex.c ****       break;
 1460              		.loc 1 921 15 view .LVU426
 1461 0020 186C     		ldr	r0, [r3, #64]
 1462              	.LVL84:
 922:Drivers/STM32F1xx_HAL_Driver/Src/stm32f1xx_hal_adc_ex.c ****     case ADC_INJECTED_RANK_1:
 1463              		.loc 1 922 7 is_stmt 1 view .LVU427
 1464 0022 7047     		bx	lr
ARM GAS  /tmp/cc6gSbL8.s 			page 46


 1465              		.cfi_endproc
 1466              	.LFE74:
 1468              		.section	.text.HAL_ADCEx_MultiModeGetValue,"ax",%progbits
 1469              		.align	1
 1470              		.global	HAL_ADCEx_MultiModeGetValue
 1471              		.syntax unified
 1472              		.thumb
 1473              		.thumb_func
 1474              		.fpu softvfp
 1476              	HAL_ADCEx_MultiModeGetValue:
 1477              	.LVL85:
 1478              	.LFB75:
 932:Drivers/STM32F1xx_HAL_Driver/Src/stm32f1xx_hal_adc_ex.c **** 
 933:Drivers/STM32F1xx_HAL_Driver/Src/stm32f1xx_hal_adc_ex.c **** #if defined (STM32F103x6) || defined (STM32F103xB) || defined (STM32F105xC) || defined (STM32F107xC
 934:Drivers/STM32F1xx_HAL_Driver/Src/stm32f1xx_hal_adc_ex.c **** /**
 935:Drivers/STM32F1xx_HAL_Driver/Src/stm32f1xx_hal_adc_ex.c ****   * @brief  Returns the last ADC Master&Slave regular conversions results data
 936:Drivers/STM32F1xx_HAL_Driver/Src/stm32f1xx_hal_adc_ex.c ****   *         in the selected multi mode.
 937:Drivers/STM32F1xx_HAL_Driver/Src/stm32f1xx_hal_adc_ex.c ****   * @param  hadc: ADC handle of ADC master (handle of ADC slave must not be used)
 938:Drivers/STM32F1xx_HAL_Driver/Src/stm32f1xx_hal_adc_ex.c ****   * @retval The converted data value.
 939:Drivers/STM32F1xx_HAL_Driver/Src/stm32f1xx_hal_adc_ex.c ****   */
 940:Drivers/STM32F1xx_HAL_Driver/Src/stm32f1xx_hal_adc_ex.c **** uint32_t HAL_ADCEx_MultiModeGetValue(ADC_HandleTypeDef* hadc)
 941:Drivers/STM32F1xx_HAL_Driver/Src/stm32f1xx_hal_adc_ex.c **** {
 1479              		.loc 1 941 1 view -0
 1480              		.cfi_startproc
 1481              		@ args = 0, pretend = 0, frame = 0
 1482              		@ frame_needed = 0, uses_anonymous_args = 0
 1483              		@ link register save eliminated.
 942:Drivers/STM32F1xx_HAL_Driver/Src/stm32f1xx_hal_adc_ex.c ****   uint32_t tmpDR = 0U;
 1484              		.loc 1 942 3 view .LVU429
 943:Drivers/STM32F1xx_HAL_Driver/Src/stm32f1xx_hal_adc_ex.c ****   
 944:Drivers/STM32F1xx_HAL_Driver/Src/stm32f1xx_hal_adc_ex.c ****   /* Check the parameters */
 945:Drivers/STM32F1xx_HAL_Driver/Src/stm32f1xx_hal_adc_ex.c ****   assert_param(IS_ADC_MULTIMODE_MASTER_INSTANCE(hadc->Instance));
 1485              		.loc 1 945 3 view .LVU430
 946:Drivers/STM32F1xx_HAL_Driver/Src/stm32f1xx_hal_adc_ex.c ****   
 947:Drivers/STM32F1xx_HAL_Driver/Src/stm32f1xx_hal_adc_ex.c ****   /* Check the parameters */
 948:Drivers/STM32F1xx_HAL_Driver/Src/stm32f1xx_hal_adc_ex.c ****   assert_param(IS_ADC_ALL_INSTANCE(hadc->Instance));
 1486              		.loc 1 948 3 view .LVU431
 949:Drivers/STM32F1xx_HAL_Driver/Src/stm32f1xx_hal_adc_ex.c **** 
 950:Drivers/STM32F1xx_HAL_Driver/Src/stm32f1xx_hal_adc_ex.c ****   /* Note: EOC flag is not cleared here by software because automatically     */
 951:Drivers/STM32F1xx_HAL_Driver/Src/stm32f1xx_hal_adc_ex.c ****   /*       cleared by hardware when reading register DR.                      */
 952:Drivers/STM32F1xx_HAL_Driver/Src/stm32f1xx_hal_adc_ex.c ****   
 953:Drivers/STM32F1xx_HAL_Driver/Src/stm32f1xx_hal_adc_ex.c ****   /* On STM32F1 devices, ADC1 data register DR contains ADC2 conversions      */
 954:Drivers/STM32F1xx_HAL_Driver/Src/stm32f1xx_hal_adc_ex.c ****   /* only if ADC1 DMA mode is enabled.                                        */
 955:Drivers/STM32F1xx_HAL_Driver/Src/stm32f1xx_hal_adc_ex.c ****   tmpDR = hadc->Instance->DR;
 1487              		.loc 1 955 3 view .LVU432
 1488              		.loc 1 955 15 is_stmt 0 view .LVU433
 1489 0000 0368     		ldr	r3, [r0]
 1490              		.loc 1 955 9 view .LVU434
 1491 0002 D86C     		ldr	r0, [r3, #76]
 1492              	.LVL86:
 956:Drivers/STM32F1xx_HAL_Driver/Src/stm32f1xx_hal_adc_ex.c **** 
 957:Drivers/STM32F1xx_HAL_Driver/Src/stm32f1xx_hal_adc_ex.c ****   if (HAL_IS_BIT_CLR(ADC1->CR2, ADC_CR2_DMA))
 1493              		.loc 1 957 3 is_stmt 1 view .LVU435
 1494              		.loc 1 957 7 is_stmt 0 view .LVU436
 1495 0004 044B     		ldr	r3, .L142
 1496 0006 9B68     		ldr	r3, [r3, #8]
 1497              		.loc 1 957 6 view .LVU437
ARM GAS  /tmp/cc6gSbL8.s 			page 47


 1498 0008 13F4807F 		tst	r3, #256
 1499 000c 03D1     		bne	.L140
 958:Drivers/STM32F1xx_HAL_Driver/Src/stm32f1xx_hal_adc_ex.c ****   {
 959:Drivers/STM32F1xx_HAL_Driver/Src/stm32f1xx_hal_adc_ex.c ****     tmpDR |= (ADC2->DR << 16U);
 1500              		.loc 1 959 5 is_stmt 1 view .LVU438
 1501              		.loc 1 959 19 is_stmt 0 view .LVU439
 1502 000e 034B     		ldr	r3, .L142+4
 1503 0010 DB6C     		ldr	r3, [r3, #76]
 1504              		.loc 1 959 11 view .LVU440
 1505 0012 40EA0340 		orr	r0, r0, r3, lsl #16
 1506              	.LVL87:
 960:Drivers/STM32F1xx_HAL_Driver/Src/stm32f1xx_hal_adc_ex.c ****   }
 961:Drivers/STM32F1xx_HAL_Driver/Src/stm32f1xx_hal_adc_ex.c ****     
 962:Drivers/STM32F1xx_HAL_Driver/Src/stm32f1xx_hal_adc_ex.c ****   /* Return ADC converted value */ 
 963:Drivers/STM32F1xx_HAL_Driver/Src/stm32f1xx_hal_adc_ex.c ****   return tmpDR;
 1507              		.loc 1 963 3 is_stmt 1 view .LVU441
 1508              	.L140:
 964:Drivers/STM32F1xx_HAL_Driver/Src/stm32f1xx_hal_adc_ex.c **** }
 1509              		.loc 1 964 1 is_stmt 0 view .LVU442
 1510 0016 7047     		bx	lr
 1511              	.L143:
 1512              		.align	2
 1513              	.L142:
 1514 0018 00240140 		.word	1073816576
 1515 001c 00280140 		.word	1073817600
 1516              		.cfi_endproc
 1517              	.LFE75:
 1519              		.section	.text.HAL_ADCEx_InjectedConvCpltCallback,"ax",%progbits
 1520              		.align	1
 1521              		.weak	HAL_ADCEx_InjectedConvCpltCallback
 1522              		.syntax unified
 1523              		.thumb
 1524              		.thumb_func
 1525              		.fpu softvfp
 1527              	HAL_ADCEx_InjectedConvCpltCallback:
 1528              	.LVL88:
 1529              	.LFB76:
 965:Drivers/STM32F1xx_HAL_Driver/Src/stm32f1xx_hal_adc_ex.c **** #endif /* defined STM32F103x6 || defined STM32F103xB || defined STM32F105xC || defined STM32F107xC 
 966:Drivers/STM32F1xx_HAL_Driver/Src/stm32f1xx_hal_adc_ex.c **** 
 967:Drivers/STM32F1xx_HAL_Driver/Src/stm32f1xx_hal_adc_ex.c **** /**
 968:Drivers/STM32F1xx_HAL_Driver/Src/stm32f1xx_hal_adc_ex.c ****   * @brief  Injected conversion complete callback in non blocking mode 
 969:Drivers/STM32F1xx_HAL_Driver/Src/stm32f1xx_hal_adc_ex.c ****   * @param  hadc: ADC handle
 970:Drivers/STM32F1xx_HAL_Driver/Src/stm32f1xx_hal_adc_ex.c ****   * @retval None
 971:Drivers/STM32F1xx_HAL_Driver/Src/stm32f1xx_hal_adc_ex.c ****   */
 972:Drivers/STM32F1xx_HAL_Driver/Src/stm32f1xx_hal_adc_ex.c **** __weak void HAL_ADCEx_InjectedConvCpltCallback(ADC_HandleTypeDef* hadc)
 973:Drivers/STM32F1xx_HAL_Driver/Src/stm32f1xx_hal_adc_ex.c **** {
 1530              		.loc 1 973 1 is_stmt 1 view -0
 1531              		.cfi_startproc
 1532              		@ args = 0, pretend = 0, frame = 0
 1533              		@ frame_needed = 0, uses_anonymous_args = 0
 1534              		@ link register save eliminated.
 974:Drivers/STM32F1xx_HAL_Driver/Src/stm32f1xx_hal_adc_ex.c ****   /* Prevent unused argument(s) compilation warning */
 975:Drivers/STM32F1xx_HAL_Driver/Src/stm32f1xx_hal_adc_ex.c ****   UNUSED(hadc);
 1535              		.loc 1 975 3 view .LVU444
 976:Drivers/STM32F1xx_HAL_Driver/Src/stm32f1xx_hal_adc_ex.c ****   /* NOTE : This function Should not be modified, when the callback is needed,
 977:Drivers/STM32F1xx_HAL_Driver/Src/stm32f1xx_hal_adc_ex.c ****             the HAL_ADCEx_InjectedConvCpltCallback could be implemented in the user file
 978:Drivers/STM32F1xx_HAL_Driver/Src/stm32f1xx_hal_adc_ex.c ****   */
ARM GAS  /tmp/cc6gSbL8.s 			page 48


 979:Drivers/STM32F1xx_HAL_Driver/Src/stm32f1xx_hal_adc_ex.c **** }
 1536              		.loc 1 979 1 is_stmt 0 view .LVU445
 1537 0000 7047     		bx	lr
 1538              		.cfi_endproc
 1539              	.LFE76:
 1541              		.section	.text.HAL_ADCEx_InjectedConfigChannel,"ax",%progbits
 1542              		.align	1
 1543              		.global	HAL_ADCEx_InjectedConfigChannel
 1544              		.syntax unified
 1545              		.thumb
 1546              		.thumb_func
 1547              		.fpu softvfp
 1549              	HAL_ADCEx_InjectedConfigChannel:
 1550              	.LVL89:
 1551              	.LFB77:
 980:Drivers/STM32F1xx_HAL_Driver/Src/stm32f1xx_hal_adc_ex.c **** 
 981:Drivers/STM32F1xx_HAL_Driver/Src/stm32f1xx_hal_adc_ex.c **** /**
 982:Drivers/STM32F1xx_HAL_Driver/Src/stm32f1xx_hal_adc_ex.c ****   * @}
 983:Drivers/STM32F1xx_HAL_Driver/Src/stm32f1xx_hal_adc_ex.c ****   */
 984:Drivers/STM32F1xx_HAL_Driver/Src/stm32f1xx_hal_adc_ex.c **** 
 985:Drivers/STM32F1xx_HAL_Driver/Src/stm32f1xx_hal_adc_ex.c **** /** @defgroup ADCEx_Exported_Functions_Group2 Extended Peripheral Control functions
 986:Drivers/STM32F1xx_HAL_Driver/Src/stm32f1xx_hal_adc_ex.c ****   * @brief    Extended Peripheral Control functions
 987:Drivers/STM32F1xx_HAL_Driver/Src/stm32f1xx_hal_adc_ex.c ****   *
 988:Drivers/STM32F1xx_HAL_Driver/Src/stm32f1xx_hal_adc_ex.c **** @verbatim   
 989:Drivers/STM32F1xx_HAL_Driver/Src/stm32f1xx_hal_adc_ex.c ****  ===============================================================================
 990:Drivers/STM32F1xx_HAL_Driver/Src/stm32f1xx_hal_adc_ex.c ****              ##### Peripheral Control functions #####
 991:Drivers/STM32F1xx_HAL_Driver/Src/stm32f1xx_hal_adc_ex.c ****  ===============================================================================  
 992:Drivers/STM32F1xx_HAL_Driver/Src/stm32f1xx_hal_adc_ex.c ****     [..]  This section provides functions allowing to:
 993:Drivers/STM32F1xx_HAL_Driver/Src/stm32f1xx_hal_adc_ex.c ****       (+) Configure channels on injected group
 994:Drivers/STM32F1xx_HAL_Driver/Src/stm32f1xx_hal_adc_ex.c ****       (+) Configure multimode
 995:Drivers/STM32F1xx_HAL_Driver/Src/stm32f1xx_hal_adc_ex.c **** 
 996:Drivers/STM32F1xx_HAL_Driver/Src/stm32f1xx_hal_adc_ex.c **** @endverbatim
 997:Drivers/STM32F1xx_HAL_Driver/Src/stm32f1xx_hal_adc_ex.c ****   * @{
 998:Drivers/STM32F1xx_HAL_Driver/Src/stm32f1xx_hal_adc_ex.c ****   */
 999:Drivers/STM32F1xx_HAL_Driver/Src/stm32f1xx_hal_adc_ex.c **** 
1000:Drivers/STM32F1xx_HAL_Driver/Src/stm32f1xx_hal_adc_ex.c **** /**
1001:Drivers/STM32F1xx_HAL_Driver/Src/stm32f1xx_hal_adc_ex.c ****   * @brief  Configures the ADC injected group and the selected channel to be
1002:Drivers/STM32F1xx_HAL_Driver/Src/stm32f1xx_hal_adc_ex.c ****   *         linked to the injected group.
1003:Drivers/STM32F1xx_HAL_Driver/Src/stm32f1xx_hal_adc_ex.c ****   * @note   Possibility to update parameters on the fly:
1004:Drivers/STM32F1xx_HAL_Driver/Src/stm32f1xx_hal_adc_ex.c ****   *         This function initializes injected group, following calls to this 
1005:Drivers/STM32F1xx_HAL_Driver/Src/stm32f1xx_hal_adc_ex.c ****   *         function can be used to reconfigure some parameters of structure
1006:Drivers/STM32F1xx_HAL_Driver/Src/stm32f1xx_hal_adc_ex.c ****   *         "ADC_InjectionConfTypeDef" on the fly, without reseting the ADC.
1007:Drivers/STM32F1xx_HAL_Driver/Src/stm32f1xx_hal_adc_ex.c ****   *         The setting of these parameters is conditioned to ADC state: 
1008:Drivers/STM32F1xx_HAL_Driver/Src/stm32f1xx_hal_adc_ex.c ****   *         this function must be called when ADC is not under conversion.
1009:Drivers/STM32F1xx_HAL_Driver/Src/stm32f1xx_hal_adc_ex.c ****   * @param  hadc: ADC handle
1010:Drivers/STM32F1xx_HAL_Driver/Src/stm32f1xx_hal_adc_ex.c ****   * @param  sConfigInjected: Structure of ADC injected group and ADC channel for
1011:Drivers/STM32F1xx_HAL_Driver/Src/stm32f1xx_hal_adc_ex.c ****   *         injected group.
1012:Drivers/STM32F1xx_HAL_Driver/Src/stm32f1xx_hal_adc_ex.c ****   * @retval None
1013:Drivers/STM32F1xx_HAL_Driver/Src/stm32f1xx_hal_adc_ex.c ****   */
1014:Drivers/STM32F1xx_HAL_Driver/Src/stm32f1xx_hal_adc_ex.c **** HAL_StatusTypeDef HAL_ADCEx_InjectedConfigChannel(ADC_HandleTypeDef* hadc, ADC_InjectionConfTypeDef
1015:Drivers/STM32F1xx_HAL_Driver/Src/stm32f1xx_hal_adc_ex.c **** {
 1552              		.loc 1 1015 1 is_stmt 1 view -0
 1553              		.cfi_startproc
 1554              		@ args = 0, pretend = 0, frame = 8
 1555              		@ frame_needed = 0, uses_anonymous_args = 0
 1556              		@ link register save eliminated.
 1557              		.loc 1 1015 1 is_stmt 0 view .LVU447
ARM GAS  /tmp/cc6gSbL8.s 			page 49


 1558 0000 F0B4     		push	{r4, r5, r6, r7}
 1559              	.LCFI25:
 1560              		.cfi_def_cfa_offset 16
 1561              		.cfi_offset 4, -16
 1562              		.cfi_offset 5, -12
 1563              		.cfi_offset 6, -8
 1564              		.cfi_offset 7, -4
 1565 0002 82B0     		sub	sp, sp, #8
 1566              	.LCFI26:
 1567              		.cfi_def_cfa_offset 24
 1568 0004 0346     		mov	r3, r0
1016:Drivers/STM32F1xx_HAL_Driver/Src/stm32f1xx_hal_adc_ex.c ****   HAL_StatusTypeDef tmp_hal_status = HAL_OK;
 1569              		.loc 1 1016 3 is_stmt 1 view .LVU448
 1570              	.LVL90:
1017:Drivers/STM32F1xx_HAL_Driver/Src/stm32f1xx_hal_adc_ex.c ****   __IO uint32_t wait_loop_index = 0U;
 1571              		.loc 1 1017 3 view .LVU449
 1572              		.loc 1 1017 17 is_stmt 0 view .LVU450
 1573 0006 0022     		movs	r2, #0
 1574 0008 0192     		str	r2, [sp, #4]
1018:Drivers/STM32F1xx_HAL_Driver/Src/stm32f1xx_hal_adc_ex.c ****   
1019:Drivers/STM32F1xx_HAL_Driver/Src/stm32f1xx_hal_adc_ex.c ****   /* Check the parameters */
1020:Drivers/STM32F1xx_HAL_Driver/Src/stm32f1xx_hal_adc_ex.c ****   assert_param(IS_ADC_ALL_INSTANCE(hadc->Instance));
 1575              		.loc 1 1020 3 is_stmt 1 view .LVU451
1021:Drivers/STM32F1xx_HAL_Driver/Src/stm32f1xx_hal_adc_ex.c ****   assert_param(IS_ADC_CHANNEL(sConfigInjected->InjectedChannel));
 1576              		.loc 1 1021 3 view .LVU452
1022:Drivers/STM32F1xx_HAL_Driver/Src/stm32f1xx_hal_adc_ex.c ****   assert_param(IS_ADC_SAMPLE_TIME(sConfigInjected->InjectedSamplingTime));
 1577              		.loc 1 1022 3 view .LVU453
1023:Drivers/STM32F1xx_HAL_Driver/Src/stm32f1xx_hal_adc_ex.c ****   assert_param(IS_FUNCTIONAL_STATE(sConfigInjected->AutoInjectedConv));
 1578              		.loc 1 1023 3 view .LVU454
1024:Drivers/STM32F1xx_HAL_Driver/Src/stm32f1xx_hal_adc_ex.c ****   assert_param(IS_ADC_EXTTRIGINJEC(sConfigInjected->ExternalTrigInjecConv));
 1579              		.loc 1 1024 3 view .LVU455
1025:Drivers/STM32F1xx_HAL_Driver/Src/stm32f1xx_hal_adc_ex.c ****   assert_param(IS_ADC_RANGE(sConfigInjected->InjectedOffset));
 1580              		.loc 1 1025 3 view .LVU456
1026:Drivers/STM32F1xx_HAL_Driver/Src/stm32f1xx_hal_adc_ex.c ****   
1027:Drivers/STM32F1xx_HAL_Driver/Src/stm32f1xx_hal_adc_ex.c ****   if(hadc->Init.ScanConvMode != ADC_SCAN_DISABLE)
 1581              		.loc 1 1027 3 view .LVU457
 1582              		.loc 1 1027 16 is_stmt 0 view .LVU458
 1583 000a 8068     		ldr	r0, [r0, #8]
 1584              	.LVL91:
1028:Drivers/STM32F1xx_HAL_Driver/Src/stm32f1xx_hal_adc_ex.c ****   {
1029:Drivers/STM32F1xx_HAL_Driver/Src/stm32f1xx_hal_adc_ex.c ****     assert_param(IS_ADC_INJECTED_RANK(sConfigInjected->InjectedRank));
 1585              		.loc 1 1029 5 is_stmt 1 view .LVU459
1030:Drivers/STM32F1xx_HAL_Driver/Src/stm32f1xx_hal_adc_ex.c ****     assert_param(IS_ADC_INJECTED_NB_CONV(sConfigInjected->InjectedNbrOfConversion));
 1586              		.loc 1 1030 5 view .LVU460
1031:Drivers/STM32F1xx_HAL_Driver/Src/stm32f1xx_hal_adc_ex.c ****     assert_param(IS_FUNCTIONAL_STATE(sConfigInjected->InjectedDiscontinuousConvMode));
 1587              		.loc 1 1031 5 view .LVU461
1032:Drivers/STM32F1xx_HAL_Driver/Src/stm32f1xx_hal_adc_ex.c ****   }
1033:Drivers/STM32F1xx_HAL_Driver/Src/stm32f1xx_hal_adc_ex.c ****   
1034:Drivers/STM32F1xx_HAL_Driver/Src/stm32f1xx_hal_adc_ex.c ****   /* Process locked */
1035:Drivers/STM32F1xx_HAL_Driver/Src/stm32f1xx_hal_adc_ex.c ****   __HAL_LOCK(hadc);
 1588              		.loc 1 1035 3 view .LVU462
 1589              		.loc 1 1035 3 view .LVU463
 1590 000c 93F82420 		ldrb	r2, [r3, #36]	@ zero_extendqisi2
 1591 0010 012A     		cmp	r2, #1
 1592 0012 00F00681 		beq	.L169
 1593              		.loc 1 1035 3 discriminator 2 view .LVU464
 1594 0016 0122     		movs	r2, #1
ARM GAS  /tmp/cc6gSbL8.s 			page 50


 1595 0018 83F82420 		strb	r2, [r3, #36]
 1596              		.loc 1 1035 3 discriminator 2 view .LVU465
1036:Drivers/STM32F1xx_HAL_Driver/Src/stm32f1xx_hal_adc_ex.c ****   
1037:Drivers/STM32F1xx_HAL_Driver/Src/stm32f1xx_hal_adc_ex.c ****   /* Configuration of injected group sequencer:                               */
1038:Drivers/STM32F1xx_HAL_Driver/Src/stm32f1xx_hal_adc_ex.c ****   /* - if scan mode is disabled, injected channels sequence length is set to  */
1039:Drivers/STM32F1xx_HAL_Driver/Src/stm32f1xx_hal_adc_ex.c ****   /*   0x00: 1 channel converted (channel on regular rank 1)                  */
1040:Drivers/STM32F1xx_HAL_Driver/Src/stm32f1xx_hal_adc_ex.c ****   /*   Parameter "InjectedNbrOfConversion" is discarded.                      */
1041:Drivers/STM32F1xx_HAL_Driver/Src/stm32f1xx_hal_adc_ex.c ****   /*   Note: Scan mode is present by hardware on this device and, if          */
1042:Drivers/STM32F1xx_HAL_Driver/Src/stm32f1xx_hal_adc_ex.c ****   /*   disabled, discards automatically nb of conversions. Anyway, nb of      */
1043:Drivers/STM32F1xx_HAL_Driver/Src/stm32f1xx_hal_adc_ex.c ****   /*   conversions is forced to 0x00 for alignment over all STM32 devices.    */
1044:Drivers/STM32F1xx_HAL_Driver/Src/stm32f1xx_hal_adc_ex.c ****   /* - if scan mode is enabled, injected channels sequence length is set to   */
1045:Drivers/STM32F1xx_HAL_Driver/Src/stm32f1xx_hal_adc_ex.c ****   /*   parameter "InjectedNbrOfConversion".                                   */
1046:Drivers/STM32F1xx_HAL_Driver/Src/stm32f1xx_hal_adc_ex.c ****   if (hadc->Init.ScanConvMode == ADC_SCAN_DISABLE)
 1597              		.loc 1 1046 3 discriminator 2 view .LVU466
 1598              		.loc 1 1046 6 is_stmt 0 discriminator 2 view .LVU467
 1599 001c 0028     		cmp	r0, #0
 1600 001e 4FD1     		bne	.L147
1047:Drivers/STM32F1xx_HAL_Driver/Src/stm32f1xx_hal_adc_ex.c ****   {
1048:Drivers/STM32F1xx_HAL_Driver/Src/stm32f1xx_hal_adc_ex.c ****     if (sConfigInjected->InjectedRank == ADC_INJECTED_RANK_1)
 1601              		.loc 1 1048 5 is_stmt 1 view .LVU468
 1602              		.loc 1 1048 24 is_stmt 0 view .LVU469
 1603 0020 4A68     		ldr	r2, [r1, #4]
 1604              		.loc 1 1048 8 view .LVU470
 1605 0022 012A     		cmp	r2, #1
 1606 0024 42D0     		beq	.L171
1049:Drivers/STM32F1xx_HAL_Driver/Src/stm32f1xx_hal_adc_ex.c ****     {
1050:Drivers/STM32F1xx_HAL_Driver/Src/stm32f1xx_hal_adc_ex.c ****       /* Clear the old SQx bits for all injected ranks */
1051:Drivers/STM32F1xx_HAL_Driver/Src/stm32f1xx_hal_adc_ex.c ****       MODIFY_REG(hadc->Instance->JSQR                             ,
1052:Drivers/STM32F1xx_HAL_Driver/Src/stm32f1xx_hal_adc_ex.c ****                  ADC_JSQR_JL   |
1053:Drivers/STM32F1xx_HAL_Driver/Src/stm32f1xx_hal_adc_ex.c ****                  ADC_JSQR_JSQ4 |
1054:Drivers/STM32F1xx_HAL_Driver/Src/stm32f1xx_hal_adc_ex.c ****                  ADC_JSQR_JSQ3 |
1055:Drivers/STM32F1xx_HAL_Driver/Src/stm32f1xx_hal_adc_ex.c ****                  ADC_JSQR_JSQ2 |
1056:Drivers/STM32F1xx_HAL_Driver/Src/stm32f1xx_hal_adc_ex.c ****                  ADC_JSQR_JSQ1                                    ,
1057:Drivers/STM32F1xx_HAL_Driver/Src/stm32f1xx_hal_adc_ex.c ****                  ADC_JSQR_RK_JL(sConfigInjected->InjectedChannel,
1058:Drivers/STM32F1xx_HAL_Driver/Src/stm32f1xx_hal_adc_ex.c ****                                   ADC_INJECTED_RANK_1,
1059:Drivers/STM32F1xx_HAL_Driver/Src/stm32f1xx_hal_adc_ex.c ****                                   0x01U));
1060:Drivers/STM32F1xx_HAL_Driver/Src/stm32f1xx_hal_adc_ex.c ****     }
1061:Drivers/STM32F1xx_HAL_Driver/Src/stm32f1xx_hal_adc_ex.c ****     /* If another injected rank than rank1 was intended to be set, and could  */
1062:Drivers/STM32F1xx_HAL_Driver/Src/stm32f1xx_hal_adc_ex.c ****     /* not due to ScanConvMode disabled, error is reported.                   */
1063:Drivers/STM32F1xx_HAL_Driver/Src/stm32f1xx_hal_adc_ex.c ****     else
1064:Drivers/STM32F1xx_HAL_Driver/Src/stm32f1xx_hal_adc_ex.c ****     {
1065:Drivers/STM32F1xx_HAL_Driver/Src/stm32f1xx_hal_adc_ex.c ****       /* Update ADC state machine to error */
1066:Drivers/STM32F1xx_HAL_Driver/Src/stm32f1xx_hal_adc_ex.c ****       SET_BIT(hadc->State, HAL_ADC_STATE_ERROR_CONFIG);
 1607              		.loc 1 1066 7 is_stmt 1 view .LVU471
 1608 0026 9A6A     		ldr	r2, [r3, #40]
 1609 0028 42F02002 		orr	r2, r2, #32
 1610 002c 9A62     		str	r2, [r3, #40]
1067:Drivers/STM32F1xx_HAL_Driver/Src/stm32f1xx_hal_adc_ex.c ****       
1068:Drivers/STM32F1xx_HAL_Driver/Src/stm32f1xx_hal_adc_ex.c ****       tmp_hal_status = HAL_ERROR;
 1611              		.loc 1 1068 7 view .LVU472
 1612              	.LVL92:
 1613              		.loc 1 1068 22 is_stmt 0 view .LVU473
 1614 002e 0120     		movs	r0, #1
 1615              	.LVL93:
 1616              	.L149:
1069:Drivers/STM32F1xx_HAL_Driver/Src/stm32f1xx_hal_adc_ex.c ****     }
1070:Drivers/STM32F1xx_HAL_Driver/Src/stm32f1xx_hal_adc_ex.c ****   }
ARM GAS  /tmp/cc6gSbL8.s 			page 51


1071:Drivers/STM32F1xx_HAL_Driver/Src/stm32f1xx_hal_adc_ex.c ****   else
1072:Drivers/STM32F1xx_HAL_Driver/Src/stm32f1xx_hal_adc_ex.c ****   {
1073:Drivers/STM32F1xx_HAL_Driver/Src/stm32f1xx_hal_adc_ex.c ****     /* Since injected channels rank conv. order depends on total number of   */
1074:Drivers/STM32F1xx_HAL_Driver/Src/stm32f1xx_hal_adc_ex.c ****     /* injected conversions, selected rank must be below or equal to total   */
1075:Drivers/STM32F1xx_HAL_Driver/Src/stm32f1xx_hal_adc_ex.c ****     /* number of injected conversions to be updated.                         */
1076:Drivers/STM32F1xx_HAL_Driver/Src/stm32f1xx_hal_adc_ex.c ****     if (sConfigInjected->InjectedRank <= sConfigInjected->InjectedNbrOfConversion)
1077:Drivers/STM32F1xx_HAL_Driver/Src/stm32f1xx_hal_adc_ex.c ****     {
1078:Drivers/STM32F1xx_HAL_Driver/Src/stm32f1xx_hal_adc_ex.c ****       /* Clear the old SQx bits for the selected rank */
1079:Drivers/STM32F1xx_HAL_Driver/Src/stm32f1xx_hal_adc_ex.c ****       /* Set the SQx bits for the selected rank */
1080:Drivers/STM32F1xx_HAL_Driver/Src/stm32f1xx_hal_adc_ex.c ****       MODIFY_REG(hadc->Instance->JSQR                                         ,
1081:Drivers/STM32F1xx_HAL_Driver/Src/stm32f1xx_hal_adc_ex.c ****                  
1082:Drivers/STM32F1xx_HAL_Driver/Src/stm32f1xx_hal_adc_ex.c ****                  ADC_JSQR_JL                                               |
1083:Drivers/STM32F1xx_HAL_Driver/Src/stm32f1xx_hal_adc_ex.c ****                  ADC_JSQR_RK_JL(ADC_JSQR_JSQ1,                         
1084:Drivers/STM32F1xx_HAL_Driver/Src/stm32f1xx_hal_adc_ex.c ****                                   sConfigInjected->InjectedRank,         
1085:Drivers/STM32F1xx_HAL_Driver/Src/stm32f1xx_hal_adc_ex.c ****                                   sConfigInjected->InjectedNbrOfConversion)   ,
1086:Drivers/STM32F1xx_HAL_Driver/Src/stm32f1xx_hal_adc_ex.c ****                  
1087:Drivers/STM32F1xx_HAL_Driver/Src/stm32f1xx_hal_adc_ex.c ****                  ADC_JSQR_JL_SHIFT(sConfigInjected->InjectedNbrOfConversion) |
1088:Drivers/STM32F1xx_HAL_Driver/Src/stm32f1xx_hal_adc_ex.c ****                  ADC_JSQR_RK_JL(sConfigInjected->InjectedChannel,      
1089:Drivers/STM32F1xx_HAL_Driver/Src/stm32f1xx_hal_adc_ex.c ****                                   sConfigInjected->InjectedRank,         
1090:Drivers/STM32F1xx_HAL_Driver/Src/stm32f1xx_hal_adc_ex.c ****                                   sConfigInjected->InjectedNbrOfConversion)    );
1091:Drivers/STM32F1xx_HAL_Driver/Src/stm32f1xx_hal_adc_ex.c ****     }
1092:Drivers/STM32F1xx_HAL_Driver/Src/stm32f1xx_hal_adc_ex.c ****     else
1093:Drivers/STM32F1xx_HAL_Driver/Src/stm32f1xx_hal_adc_ex.c ****     {
1094:Drivers/STM32F1xx_HAL_Driver/Src/stm32f1xx_hal_adc_ex.c ****       /* Clear the old SQx bits for the selected rank */
1095:Drivers/STM32F1xx_HAL_Driver/Src/stm32f1xx_hal_adc_ex.c ****       MODIFY_REG(hadc->Instance->JSQR                                       ,
1096:Drivers/STM32F1xx_HAL_Driver/Src/stm32f1xx_hal_adc_ex.c ****                  
1097:Drivers/STM32F1xx_HAL_Driver/Src/stm32f1xx_hal_adc_ex.c ****                  ADC_JSQR_JL                                               |
1098:Drivers/STM32F1xx_HAL_Driver/Src/stm32f1xx_hal_adc_ex.c ****                  ADC_JSQR_RK_JL(ADC_JSQR_JSQ1,                         
1099:Drivers/STM32F1xx_HAL_Driver/Src/stm32f1xx_hal_adc_ex.c ****                                   sConfigInjected->InjectedRank,         
1100:Drivers/STM32F1xx_HAL_Driver/Src/stm32f1xx_hal_adc_ex.c ****                                   sConfigInjected->InjectedNbrOfConversion) ,
1101:Drivers/STM32F1xx_HAL_Driver/Src/stm32f1xx_hal_adc_ex.c ****                  
1102:Drivers/STM32F1xx_HAL_Driver/Src/stm32f1xx_hal_adc_ex.c ****                  0x00000000U);
1103:Drivers/STM32F1xx_HAL_Driver/Src/stm32f1xx_hal_adc_ex.c ****     }
1104:Drivers/STM32F1xx_HAL_Driver/Src/stm32f1xx_hal_adc_ex.c ****   } 
1105:Drivers/STM32F1xx_HAL_Driver/Src/stm32f1xx_hal_adc_ex.c ****     
1106:Drivers/STM32F1xx_HAL_Driver/Src/stm32f1xx_hal_adc_ex.c ****   /* Configuration of injected group                                          */
1107:Drivers/STM32F1xx_HAL_Driver/Src/stm32f1xx_hal_adc_ex.c ****   /* Parameters update conditioned to ADC state:                              */
1108:Drivers/STM32F1xx_HAL_Driver/Src/stm32f1xx_hal_adc_ex.c ****   /* Parameters that can be updated only when ADC is disabled:                */
1109:Drivers/STM32F1xx_HAL_Driver/Src/stm32f1xx_hal_adc_ex.c ****   /*  - external trigger to start conversion                                  */
1110:Drivers/STM32F1xx_HAL_Driver/Src/stm32f1xx_hal_adc_ex.c ****   /* Parameters update not conditioned to ADC state:                          */
1111:Drivers/STM32F1xx_HAL_Driver/Src/stm32f1xx_hal_adc_ex.c ****   /*  - Automatic injected conversion                                         */
1112:Drivers/STM32F1xx_HAL_Driver/Src/stm32f1xx_hal_adc_ex.c ****   /*  - Injected discontinuous mode                                           */
1113:Drivers/STM32F1xx_HAL_Driver/Src/stm32f1xx_hal_adc_ex.c ****   /* Note: In case of ADC already enabled, caution to not launch an unwanted  */
1114:Drivers/STM32F1xx_HAL_Driver/Src/stm32f1xx_hal_adc_ex.c ****   /*       conversion while modifying register CR2 by writing 1 to bit ADON.  */
1115:Drivers/STM32F1xx_HAL_Driver/Src/stm32f1xx_hal_adc_ex.c ****   if (ADC_IS_ENABLE(hadc) == RESET)
 1617              		.loc 1 1115 3 is_stmt 1 view .LVU474
 1618              		.loc 1 1115 7 is_stmt 0 view .LVU475
 1619 0030 1C68     		ldr	r4, [r3]
 1620 0032 A268     		ldr	r2, [r4, #8]
 1621              		.loc 1 1115 6 view .LVU476
 1622 0034 12F0010F 		tst	r2, #1
 1623 0038 0AD1     		bne	.L151
1116:Drivers/STM32F1xx_HAL_Driver/Src/stm32f1xx_hal_adc_ex.c ****   {    
1117:Drivers/STM32F1xx_HAL_Driver/Src/stm32f1xx_hal_adc_ex.c ****     MODIFY_REG(hadc->Instance->CR2                                           ,
 1624              		.loc 1 1117 5 is_stmt 1 view .LVU477
 1625 003a A268     		ldr	r2, [r4, #8]
 1626 003c 22F4E042 		bic	r2, r2, #28672
ARM GAS  /tmp/cc6gSbL8.s 			page 52


 1627 0040 22F00102 		bic	r2, r2, #1
 1628 0044 784D     		ldr	r5, .L180
 1629 0046 AC42     		cmp	r4, r5
 1630 0048 64D0     		beq	.L172
 1631              		.loc 1 1117 5 is_stmt 0 discriminator 2 view .LVU478
 1632 004a CD69     		ldr	r5, [r1, #28]
 1633              	.L153:
 1634              		.loc 1 1117 5 discriminator 8 view .LVU479
 1635 004c 2A43     		orrs	r2, r2, r5
 1636 004e A260     		str	r2, [r4, #8]
 1637              	.L151:
1118:Drivers/STM32F1xx_HAL_Driver/Src/stm32f1xx_hal_adc_ex.c ****                ADC_CR2_JEXTSEL |
1119:Drivers/STM32F1xx_HAL_Driver/Src/stm32f1xx_hal_adc_ex.c ****                ADC_CR2_ADON                                                  ,
1120:Drivers/STM32F1xx_HAL_Driver/Src/stm32f1xx_hal_adc_ex.c ****                ADC_CFGR_JEXTSEL(hadc, sConfigInjected->ExternalTrigInjecConv) );
1121:Drivers/STM32F1xx_HAL_Driver/Src/stm32f1xx_hal_adc_ex.c ****   }
1122:Drivers/STM32F1xx_HAL_Driver/Src/stm32f1xx_hal_adc_ex.c ****   
1123:Drivers/STM32F1xx_HAL_Driver/Src/stm32f1xx_hal_adc_ex.c ****   
1124:Drivers/STM32F1xx_HAL_Driver/Src/stm32f1xx_hal_adc_ex.c ****   /* Configuration of injected group                                          */
1125:Drivers/STM32F1xx_HAL_Driver/Src/stm32f1xx_hal_adc_ex.c ****   /*  - Automatic injected conversion                                         */
1126:Drivers/STM32F1xx_HAL_Driver/Src/stm32f1xx_hal_adc_ex.c ****   /*  - Injected discontinuous mode                                           */
1127:Drivers/STM32F1xx_HAL_Driver/Src/stm32f1xx_hal_adc_ex.c ****   
1128:Drivers/STM32F1xx_HAL_Driver/Src/stm32f1xx_hal_adc_ex.c ****     /* Automatic injected conversion can be enabled if injected group         */
1129:Drivers/STM32F1xx_HAL_Driver/Src/stm32f1xx_hal_adc_ex.c ****     /* external triggers are disabled.                                        */
1130:Drivers/STM32F1xx_HAL_Driver/Src/stm32f1xx_hal_adc_ex.c ****     if (sConfigInjected->AutoInjectedConv == ENABLE)
 1638              		.loc 1 1130 5 is_stmt 1 view .LVU480
 1639              		.loc 1 1130 24 is_stmt 0 view .LVU481
 1640 0050 8A69     		ldr	r2, [r1, #24]
 1641              		.loc 1 1130 8 view .LVU482
 1642 0052 012A     		cmp	r2, #1
 1643 0054 65D0     		beq	.L173
 1644              	.LVL94:
 1645              	.L154:
1131:Drivers/STM32F1xx_HAL_Driver/Src/stm32f1xx_hal_adc_ex.c ****     {
1132:Drivers/STM32F1xx_HAL_Driver/Src/stm32f1xx_hal_adc_ex.c ****       if (sConfigInjected->ExternalTrigInjecConv == ADC_INJECTED_SOFTWARE_START)
1133:Drivers/STM32F1xx_HAL_Driver/Src/stm32f1xx_hal_adc_ex.c ****       {
1134:Drivers/STM32F1xx_HAL_Driver/Src/stm32f1xx_hal_adc_ex.c ****         SET_BIT(hadc->Instance->CR1, ADC_CR1_JAUTO);
1135:Drivers/STM32F1xx_HAL_Driver/Src/stm32f1xx_hal_adc_ex.c ****       }
1136:Drivers/STM32F1xx_HAL_Driver/Src/stm32f1xx_hal_adc_ex.c ****       else
1137:Drivers/STM32F1xx_HAL_Driver/Src/stm32f1xx_hal_adc_ex.c ****       {
1138:Drivers/STM32F1xx_HAL_Driver/Src/stm32f1xx_hal_adc_ex.c ****         /* Update ADC state machine to error */
1139:Drivers/STM32F1xx_HAL_Driver/Src/stm32f1xx_hal_adc_ex.c ****         SET_BIT(hadc->State, HAL_ADC_STATE_ERROR_CONFIG);
1140:Drivers/STM32F1xx_HAL_Driver/Src/stm32f1xx_hal_adc_ex.c ****         
1141:Drivers/STM32F1xx_HAL_Driver/Src/stm32f1xx_hal_adc_ex.c ****         tmp_hal_status = HAL_ERROR;
1142:Drivers/STM32F1xx_HAL_Driver/Src/stm32f1xx_hal_adc_ex.c ****       }
1143:Drivers/STM32F1xx_HAL_Driver/Src/stm32f1xx_hal_adc_ex.c ****     }
1144:Drivers/STM32F1xx_HAL_Driver/Src/stm32f1xx_hal_adc_ex.c ****     
1145:Drivers/STM32F1xx_HAL_Driver/Src/stm32f1xx_hal_adc_ex.c ****     /* Injected discontinuous can be enabled only if auto-injected mode is    */
1146:Drivers/STM32F1xx_HAL_Driver/Src/stm32f1xx_hal_adc_ex.c ****     /* disabled.                                                              */  
1147:Drivers/STM32F1xx_HAL_Driver/Src/stm32f1xx_hal_adc_ex.c ****     if (sConfigInjected->InjectedDiscontinuousConvMode == ENABLE)
 1646              		.loc 1 1147 5 is_stmt 1 view .LVU483
 1647              		.loc 1 1147 24 is_stmt 0 view .LVU484
 1648 0056 4A69     		ldr	r2, [r1, #20]
 1649              		.loc 1 1147 8 view .LVU485
 1650 0058 012A     		cmp	r2, #1
 1651 005a 72D0     		beq	.L174
 1652              	.LVL95:
 1653              	.L156:
ARM GAS  /tmp/cc6gSbL8.s 			page 53


1148:Drivers/STM32F1xx_HAL_Driver/Src/stm32f1xx_hal_adc_ex.c ****     {
1149:Drivers/STM32F1xx_HAL_Driver/Src/stm32f1xx_hal_adc_ex.c ****       if (sConfigInjected->AutoInjectedConv == DISABLE)
1150:Drivers/STM32F1xx_HAL_Driver/Src/stm32f1xx_hal_adc_ex.c ****       {
1151:Drivers/STM32F1xx_HAL_Driver/Src/stm32f1xx_hal_adc_ex.c ****         SET_BIT(hadc->Instance->CR1, ADC_CR1_JDISCEN);
1152:Drivers/STM32F1xx_HAL_Driver/Src/stm32f1xx_hal_adc_ex.c ****       } 
1153:Drivers/STM32F1xx_HAL_Driver/Src/stm32f1xx_hal_adc_ex.c ****       else
1154:Drivers/STM32F1xx_HAL_Driver/Src/stm32f1xx_hal_adc_ex.c ****       {
1155:Drivers/STM32F1xx_HAL_Driver/Src/stm32f1xx_hal_adc_ex.c ****         /* Update ADC state machine to error */
1156:Drivers/STM32F1xx_HAL_Driver/Src/stm32f1xx_hal_adc_ex.c ****         SET_BIT(hadc->State, HAL_ADC_STATE_ERROR_CONFIG);
1157:Drivers/STM32F1xx_HAL_Driver/Src/stm32f1xx_hal_adc_ex.c ****         
1158:Drivers/STM32F1xx_HAL_Driver/Src/stm32f1xx_hal_adc_ex.c ****         tmp_hal_status = HAL_ERROR;
1159:Drivers/STM32F1xx_HAL_Driver/Src/stm32f1xx_hal_adc_ex.c ****       }
1160:Drivers/STM32F1xx_HAL_Driver/Src/stm32f1xx_hal_adc_ex.c ****     }
1161:Drivers/STM32F1xx_HAL_Driver/Src/stm32f1xx_hal_adc_ex.c **** 
1162:Drivers/STM32F1xx_HAL_Driver/Src/stm32f1xx_hal_adc_ex.c **** 
1163:Drivers/STM32F1xx_HAL_Driver/Src/stm32f1xx_hal_adc_ex.c ****   /* InjectedChannel sampling time configuration */
1164:Drivers/STM32F1xx_HAL_Driver/Src/stm32f1xx_hal_adc_ex.c ****   /* For channels 10 to 17 */
1165:Drivers/STM32F1xx_HAL_Driver/Src/stm32f1xx_hal_adc_ex.c ****   if (sConfigInjected->InjectedChannel >= ADC_CHANNEL_10)
 1654              		.loc 1 1165 3 is_stmt 1 view .LVU486
 1655              		.loc 1 1165 22 is_stmt 0 view .LVU487
 1656 005c 0A68     		ldr	r2, [r1]
 1657              		.loc 1 1165 6 view .LVU488
 1658 005e 092A     		cmp	r2, #9
 1659 0060 7DD9     		bls	.L158
1166:Drivers/STM32F1xx_HAL_Driver/Src/stm32f1xx_hal_adc_ex.c ****   {
1167:Drivers/STM32F1xx_HAL_Driver/Src/stm32f1xx_hal_adc_ex.c ****     MODIFY_REG(hadc->Instance->SMPR1                                                             ,
 1660              		.loc 1 1167 5 is_stmt 1 view .LVU489
 1661 0062 1E68     		ldr	r6, [r3]
 1662 0064 F468     		ldr	r4, [r6, #12]
 1663 0066 02EB4202 		add	r2, r2, r2, lsl #1
 1664 006a 1E3A     		subs	r2, r2, #30
 1665 006c 0725     		movs	r5, #7
 1666 006e 9540     		lsls	r5, r5, r2
 1667 0070 24EA0504 		bic	r4, r4, r5
 1668 0074 8D68     		ldr	r5, [r1, #8]
 1669 0076 05FA02F2 		lsl	r2, r5, r2
 1670 007a 2243     		orrs	r2, r2, r4
 1671 007c F260     		str	r2, [r6, #12]
 1672              	.L159:
1168:Drivers/STM32F1xx_HAL_Driver/Src/stm32f1xx_hal_adc_ex.c ****                ADC_SMPR1(ADC_SMPR1_SMP10, sConfigInjected->InjectedChannel)                      ,
1169:Drivers/STM32F1xx_HAL_Driver/Src/stm32f1xx_hal_adc_ex.c ****                ADC_SMPR1(sConfigInjected->InjectedSamplingTime, sConfigInjected->InjectedChannel) )
1170:Drivers/STM32F1xx_HAL_Driver/Src/stm32f1xx_hal_adc_ex.c ****   }
1171:Drivers/STM32F1xx_HAL_Driver/Src/stm32f1xx_hal_adc_ex.c ****   else /* For channels 0 to 9 */
1172:Drivers/STM32F1xx_HAL_Driver/Src/stm32f1xx_hal_adc_ex.c ****   {
1173:Drivers/STM32F1xx_HAL_Driver/Src/stm32f1xx_hal_adc_ex.c ****     MODIFY_REG(hadc->Instance->SMPR2                                                             ,
1174:Drivers/STM32F1xx_HAL_Driver/Src/stm32f1xx_hal_adc_ex.c ****                ADC_SMPR2(ADC_SMPR2_SMP0, sConfigInjected->InjectedChannel)                       ,
1175:Drivers/STM32F1xx_HAL_Driver/Src/stm32f1xx_hal_adc_ex.c ****                ADC_SMPR2(sConfigInjected->InjectedSamplingTime, sConfigInjected->InjectedChannel) )
1176:Drivers/STM32F1xx_HAL_Driver/Src/stm32f1xx_hal_adc_ex.c ****   }
1177:Drivers/STM32F1xx_HAL_Driver/Src/stm32f1xx_hal_adc_ex.c ****   
1178:Drivers/STM32F1xx_HAL_Driver/Src/stm32f1xx_hal_adc_ex.c ****   /* If ADC1 InjectedChannel_16 or InjectedChannel_17 is selected, enable Temperature sensor  */
1179:Drivers/STM32F1xx_HAL_Driver/Src/stm32f1xx_hal_adc_ex.c ****   /* and VREFINT measurement path.                                            */
1180:Drivers/STM32F1xx_HAL_Driver/Src/stm32f1xx_hal_adc_ex.c ****   if ((sConfigInjected->InjectedChannel == ADC_CHANNEL_TEMPSENSOR) ||
 1673              		.loc 1 1180 3 view .LVU490
 1674              		.loc 1 1180 23 is_stmt 0 view .LVU491
 1675 007e 0A68     		ldr	r2, [r1]
 1676              		.loc 1 1180 68 view .LVU492
 1677 0080 103A     		subs	r2, r2, #16
ARM GAS  /tmp/cc6gSbL8.s 			page 54


 1678              		.loc 1 1180 6 view .LVU493
 1679 0082 012A     		cmp	r2, #1
 1680 0084 79D9     		bls	.L175
 1681              	.L160:
1181:Drivers/STM32F1xx_HAL_Driver/Src/stm32f1xx_hal_adc_ex.c ****       (sConfigInjected->InjectedChannel == ADC_CHANNEL_VREFINT)      )
1182:Drivers/STM32F1xx_HAL_Driver/Src/stm32f1xx_hal_adc_ex.c ****   {
1183:Drivers/STM32F1xx_HAL_Driver/Src/stm32f1xx_hal_adc_ex.c ****     SET_BIT(hadc->Instance->CR2, ADC_CR2_TSVREFE);
1184:Drivers/STM32F1xx_HAL_Driver/Src/stm32f1xx_hal_adc_ex.c ****   }
1185:Drivers/STM32F1xx_HAL_Driver/Src/stm32f1xx_hal_adc_ex.c ****   
1186:Drivers/STM32F1xx_HAL_Driver/Src/stm32f1xx_hal_adc_ex.c ****   
1187:Drivers/STM32F1xx_HAL_Driver/Src/stm32f1xx_hal_adc_ex.c ****   /* Configure the offset: offset enable/disable, InjectedChannel, offset value */
1188:Drivers/STM32F1xx_HAL_Driver/Src/stm32f1xx_hal_adc_ex.c ****   switch(sConfigInjected->InjectedRank)
 1682              		.loc 1 1188 3 is_stmt 1 view .LVU494
 1683              		.loc 1 1188 25 is_stmt 0 view .LVU495
 1684 0086 4A68     		ldr	r2, [r1, #4]
 1685              		.loc 1 1188 3 view .LVU496
 1686 0088 022A     		cmp	r2, #2
 1687 008a 00F08F80 		beq	.L161
 1688 008e 032A     		cmp	r2, #3
 1689 0090 00F09680 		beq	.L162
 1690 0094 012A     		cmp	r2, #1
 1691 0096 76D0     		beq	.L176
1189:Drivers/STM32F1xx_HAL_Driver/Src/stm32f1xx_hal_adc_ex.c ****   {
1190:Drivers/STM32F1xx_HAL_Driver/Src/stm32f1xx_hal_adc_ex.c ****     case 1:
1191:Drivers/STM32F1xx_HAL_Driver/Src/stm32f1xx_hal_adc_ex.c ****       /* Set injected channel 1 offset */
1192:Drivers/STM32F1xx_HAL_Driver/Src/stm32f1xx_hal_adc_ex.c ****       MODIFY_REG(hadc->Instance->JOFR1,
1193:Drivers/STM32F1xx_HAL_Driver/Src/stm32f1xx_hal_adc_ex.c ****                  ADC_JOFR1_JOFFSET1,
1194:Drivers/STM32F1xx_HAL_Driver/Src/stm32f1xx_hal_adc_ex.c ****                  sConfigInjected->InjectedOffset);
1195:Drivers/STM32F1xx_HAL_Driver/Src/stm32f1xx_hal_adc_ex.c ****       break;
1196:Drivers/STM32F1xx_HAL_Driver/Src/stm32f1xx_hal_adc_ex.c ****     case 2:
1197:Drivers/STM32F1xx_HAL_Driver/Src/stm32f1xx_hal_adc_ex.c ****       /* Set injected channel 2 offset */
1198:Drivers/STM32F1xx_HAL_Driver/Src/stm32f1xx_hal_adc_ex.c ****       MODIFY_REG(hadc->Instance->JOFR2,
1199:Drivers/STM32F1xx_HAL_Driver/Src/stm32f1xx_hal_adc_ex.c ****                  ADC_JOFR2_JOFFSET2,
1200:Drivers/STM32F1xx_HAL_Driver/Src/stm32f1xx_hal_adc_ex.c ****                  sConfigInjected->InjectedOffset);
1201:Drivers/STM32F1xx_HAL_Driver/Src/stm32f1xx_hal_adc_ex.c ****       break;
1202:Drivers/STM32F1xx_HAL_Driver/Src/stm32f1xx_hal_adc_ex.c ****     case 3:
1203:Drivers/STM32F1xx_HAL_Driver/Src/stm32f1xx_hal_adc_ex.c ****       /* Set injected channel 3 offset */
1204:Drivers/STM32F1xx_HAL_Driver/Src/stm32f1xx_hal_adc_ex.c ****       MODIFY_REG(hadc->Instance->JOFR3,
1205:Drivers/STM32F1xx_HAL_Driver/Src/stm32f1xx_hal_adc_ex.c ****                  ADC_JOFR3_JOFFSET3,
1206:Drivers/STM32F1xx_HAL_Driver/Src/stm32f1xx_hal_adc_ex.c ****                  sConfigInjected->InjectedOffset);
1207:Drivers/STM32F1xx_HAL_Driver/Src/stm32f1xx_hal_adc_ex.c ****       break;
1208:Drivers/STM32F1xx_HAL_Driver/Src/stm32f1xx_hal_adc_ex.c ****     case 4:
1209:Drivers/STM32F1xx_HAL_Driver/Src/stm32f1xx_hal_adc_ex.c ****     default:
1210:Drivers/STM32F1xx_HAL_Driver/Src/stm32f1xx_hal_adc_ex.c ****       MODIFY_REG(hadc->Instance->JOFR4,
 1692              		.loc 1 1210 7 is_stmt 1 view .LVU497
 1693 0098 1C68     		ldr	r4, [r3]
 1694 009a 226A     		ldr	r2, [r4, #32]
 1695 009c 22F47F62 		bic	r2, r2, #4080
 1696 00a0 22F00F02 		bic	r2, r2, #15
 1697 00a4 CD68     		ldr	r5, [r1, #12]
 1698 00a6 2A43     		orrs	r2, r2, r5
 1699 00a8 2262     		str	r2, [r4, #32]
1211:Drivers/STM32F1xx_HAL_Driver/Src/stm32f1xx_hal_adc_ex.c ****                  ADC_JOFR4_JOFFSET4,
1212:Drivers/STM32F1xx_HAL_Driver/Src/stm32f1xx_hal_adc_ex.c ****                  sConfigInjected->InjectedOffset);
1213:Drivers/STM32F1xx_HAL_Driver/Src/stm32f1xx_hal_adc_ex.c ****       break;
 1700              		.loc 1 1213 7 view .LVU498
 1701 00aa 75E0     		b	.L164
ARM GAS  /tmp/cc6gSbL8.s 			page 55


 1702              	.LVL96:
 1703              	.L171:
1051:Drivers/STM32F1xx_HAL_Driver/Src/stm32f1xx_hal_adc_ex.c ****                  ADC_JSQR_JL   |
 1704              		.loc 1 1051 7 view .LVU499
 1705 00ac 1868     		ldr	r0, [r3]
 1706 00ae 826B     		ldr	r2, [r0, #56]
 1707 00b0 920D     		lsrs	r2, r2, #22
 1708 00b2 9205     		lsls	r2, r2, #22
 1709 00b4 0C68     		ldr	r4, [r1]
 1710 00b6 42EAC432 		orr	r2, r2, r4, lsl #15
 1711 00ba 8263     		str	r2, [r0, #56]
1016:Drivers/STM32F1xx_HAL_Driver/Src/stm32f1xx_hal_adc_ex.c ****   __IO uint32_t wait_loop_index = 0U;
 1712              		.loc 1 1016 21 is_stmt 0 view .LVU500
 1713 00bc 0020     		movs	r0, #0
 1714 00be B7E7     		b	.L149
 1715              	.L147:
1076:Drivers/STM32F1xx_HAL_Driver/Src/stm32f1xx_hal_adc_ex.c ****     {
 1716              		.loc 1 1076 5 is_stmt 1 view .LVU501
1076:Drivers/STM32F1xx_HAL_Driver/Src/stm32f1xx_hal_adc_ex.c ****     {
 1717              		.loc 1 1076 24 is_stmt 0 view .LVU502
 1718 00c0 4A68     		ldr	r2, [r1, #4]
1076:Drivers/STM32F1xx_HAL_Driver/Src/stm32f1xx_hal_adc_ex.c ****     {
 1719              		.loc 1 1076 57 view .LVU503
 1720 00c2 0C69     		ldr	r4, [r1, #16]
1076:Drivers/STM32F1xx_HAL_Driver/Src/stm32f1xx_hal_adc_ex.c ****     {
 1721              		.loc 1 1076 8 view .LVU504
 1722 00c4 A242     		cmp	r2, r4
 1723 00c6 15D8     		bhi	.L150
1080:Drivers/STM32F1xx_HAL_Driver/Src/stm32f1xx_hal_adc_ex.c ****                  
 1724              		.loc 1 1080 7 is_stmt 1 view .LVU505
 1725 00c8 1F68     		ldr	r7, [r3]
 1726 00ca BD6B     		ldr	r5, [r7, #56]
 1727 00cc 101B     		subs	r0, r2, r4
 1728 00ce 00EB8000 		add	r0, r0, r0, lsl #2
 1729 00d2 0F30     		adds	r0, r0, #15
 1730 00d4 1F22     		movs	r2, #31
 1731 00d6 8240     		lsls	r2, r2, r0
 1732 00d8 42F44012 		orr	r2, r2, #3145728
 1733 00dc 25EA0205 		bic	r5, r5, r2
 1734 00e0 621E     		subs	r2, r4, #1
 1735 00e2 0E68     		ldr	r6, [r1]
 1736 00e4 06FA00F0 		lsl	r0, r6, r0
 1737 00e8 40EA0252 		orr	r2, r0, r2, lsl #20
 1738 00ec 2A43     		orrs	r2, r2, r5
 1739 00ee BA63     		str	r2, [r7, #56]
1016:Drivers/STM32F1xx_HAL_Driver/Src/stm32f1xx_hal_adc_ex.c ****   __IO uint32_t wait_loop_index = 0U;
 1740              		.loc 1 1016 21 is_stmt 0 view .LVU506
 1741 00f0 0020     		movs	r0, #0
 1742 00f2 9DE7     		b	.L149
 1743              	.L150:
1095:Drivers/STM32F1xx_HAL_Driver/Src/stm32f1xx_hal_adc_ex.c ****                  
 1744              		.loc 1 1095 7 is_stmt 1 view .LVU507
 1745 00f4 1E68     		ldr	r6, [r3]
 1746 00f6 B56B     		ldr	r5, [r6, #56]
 1747 00f8 121B     		subs	r2, r2, r4
 1748 00fa 02EB8202 		add	r2, r2, r2, lsl #2
 1749 00fe 0F32     		adds	r2, r2, #15
ARM GAS  /tmp/cc6gSbL8.s 			page 56


 1750 0100 1F20     		movs	r0, #31
 1751 0102 00FA02F2 		lsl	r2, r0, r2
 1752 0106 42F44012 		orr	r2, r2, #3145728
 1753 010a 25EA0202 		bic	r2, r5, r2
 1754 010e B263     		str	r2, [r6, #56]
1016:Drivers/STM32F1xx_HAL_Driver/Src/stm32f1xx_hal_adc_ex.c ****   __IO uint32_t wait_loop_index = 0U;
 1755              		.loc 1 1016 21 is_stmt 0 view .LVU508
 1756 0110 0020     		movs	r0, #0
 1757 0112 8DE7     		b	.L149
 1758              	.LVL97:
 1759              	.L172:
1117:Drivers/STM32F1xx_HAL_Driver/Src/stm32f1xx_hal_adc_ex.c ****                ADC_CR2_JEXTSEL |
 1760              		.loc 1 1117 5 discriminator 1 view .LVU509
 1761 0114 CD69     		ldr	r5, [r1, #28]
 1762 0116 B5F5C04F 		cmp	r5, #24576
 1763 011a 97D1     		bne	.L153
1117:Drivers/STM32F1xx_HAL_Driver/Src/stm32f1xx_hal_adc_ex.c ****                ADC_CR2_JEXTSEL |
 1764              		.loc 1 1117 5 view .LVU510
 1765 011c 4FF48045 		mov	r5, #16384
 1766 0120 94E7     		b	.L153
 1767              	.L173:
1132:Drivers/STM32F1xx_HAL_Driver/Src/stm32f1xx_hal_adc_ex.c ****       {
 1768              		.loc 1 1132 7 is_stmt 1 view .LVU511
1132:Drivers/STM32F1xx_HAL_Driver/Src/stm32f1xx_hal_adc_ex.c ****       {
 1769              		.loc 1 1132 26 is_stmt 0 view .LVU512
 1770 0122 CA69     		ldr	r2, [r1, #28]
1132:Drivers/STM32F1xx_HAL_Driver/Src/stm32f1xx_hal_adc_ex.c ****       {
 1771              		.loc 1 1132 10 view .LVU513
 1772 0124 B2F5E04F 		cmp	r2, #28672
 1773 0128 05D0     		beq	.L177
1139:Drivers/STM32F1xx_HAL_Driver/Src/stm32f1xx_hal_adc_ex.c ****         
 1774              		.loc 1 1139 9 is_stmt 1 view .LVU514
 1775 012a 9A6A     		ldr	r2, [r3, #40]
 1776 012c 42F02002 		orr	r2, r2, #32
 1777 0130 9A62     		str	r2, [r3, #40]
1141:Drivers/STM32F1xx_HAL_Driver/Src/stm32f1xx_hal_adc_ex.c ****       }
 1778              		.loc 1 1141 9 view .LVU515
 1779              	.LVL98:
1141:Drivers/STM32F1xx_HAL_Driver/Src/stm32f1xx_hal_adc_ex.c ****       }
 1780              		.loc 1 1141 24 is_stmt 0 view .LVU516
 1781 0132 0120     		movs	r0, #1
 1782 0134 8FE7     		b	.L154
 1783              	.LVL99:
 1784              	.L177:
1134:Drivers/STM32F1xx_HAL_Driver/Src/stm32f1xx_hal_adc_ex.c ****       }
 1785              		.loc 1 1134 9 is_stmt 1 view .LVU517
 1786 0136 1C68     		ldr	r4, [r3]
 1787 0138 6268     		ldr	r2, [r4, #4]
 1788 013a 42F48062 		orr	r2, r2, #1024
 1789 013e 6260     		str	r2, [r4, #4]
 1790 0140 89E7     		b	.L154
 1791              	.L174:
1149:Drivers/STM32F1xx_HAL_Driver/Src/stm32f1xx_hal_adc_ex.c ****       {
 1792              		.loc 1 1149 7 view .LVU518
1149:Drivers/STM32F1xx_HAL_Driver/Src/stm32f1xx_hal_adc_ex.c ****       {
 1793              		.loc 1 1149 26 is_stmt 0 view .LVU519
 1794 0142 8A69     		ldr	r2, [r1, #24]
ARM GAS  /tmp/cc6gSbL8.s 			page 57


1149:Drivers/STM32F1xx_HAL_Driver/Src/stm32f1xx_hal_adc_ex.c ****       {
 1795              		.loc 1 1149 10 view .LVU520
 1796 0144 2AB9     		cbnz	r2, .L157
1151:Drivers/STM32F1xx_HAL_Driver/Src/stm32f1xx_hal_adc_ex.c ****       } 
 1797              		.loc 1 1151 9 is_stmt 1 view .LVU521
 1798 0146 1C68     		ldr	r4, [r3]
 1799 0148 6268     		ldr	r2, [r4, #4]
 1800 014a 42F48052 		orr	r2, r2, #4096
 1801 014e 6260     		str	r2, [r4, #4]
 1802 0150 84E7     		b	.L156
 1803              	.L157:
1156:Drivers/STM32F1xx_HAL_Driver/Src/stm32f1xx_hal_adc_ex.c ****         
 1804              		.loc 1 1156 9 view .LVU522
 1805 0152 9A6A     		ldr	r2, [r3, #40]
 1806 0154 42F02002 		orr	r2, r2, #32
 1807 0158 9A62     		str	r2, [r3, #40]
1158:Drivers/STM32F1xx_HAL_Driver/Src/stm32f1xx_hal_adc_ex.c ****       }
 1808              		.loc 1 1158 9 view .LVU523
 1809              	.LVL100:
1158:Drivers/STM32F1xx_HAL_Driver/Src/stm32f1xx_hal_adc_ex.c ****       }
 1810              		.loc 1 1158 24 is_stmt 0 view .LVU524
 1811 015a 0120     		movs	r0, #1
 1812 015c 7EE7     		b	.L156
 1813              	.LVL101:
 1814              	.L158:
1173:Drivers/STM32F1xx_HAL_Driver/Src/stm32f1xx_hal_adc_ex.c ****                ADC_SMPR2(ADC_SMPR2_SMP0, sConfigInjected->InjectedChannel)                       ,
 1815              		.loc 1 1173 5 is_stmt 1 view .LVU525
 1816 015e 1E68     		ldr	r6, [r3]
 1817 0160 3469     		ldr	r4, [r6, #16]
 1818 0162 02EB4202 		add	r2, r2, r2, lsl #1
 1819 0166 0725     		movs	r5, #7
 1820 0168 9540     		lsls	r5, r5, r2
 1821 016a 24EA0504 		bic	r4, r4, r5
 1822 016e 8D68     		ldr	r5, [r1, #8]
 1823 0170 05FA02F2 		lsl	r2, r5, r2
 1824 0174 2243     		orrs	r2, r2, r4
 1825 0176 3261     		str	r2, [r6, #16]
 1826 0178 81E7     		b	.L159
 1827              	.L175:
1183:Drivers/STM32F1xx_HAL_Driver/Src/stm32f1xx_hal_adc_ex.c ****   }
 1828              		.loc 1 1183 5 view .LVU526
 1829 017a 1C68     		ldr	r4, [r3]
 1830 017c A268     		ldr	r2, [r4, #8]
 1831 017e 42F40002 		orr	r2, r2, #8388608
 1832 0182 A260     		str	r2, [r4, #8]
 1833 0184 7FE7     		b	.L160
 1834              	.L176:
1192:Drivers/STM32F1xx_HAL_Driver/Src/stm32f1xx_hal_adc_ex.c ****                  ADC_JOFR1_JOFFSET1,
 1835              		.loc 1 1192 7 view .LVU527
 1836 0186 1C68     		ldr	r4, [r3]
 1837 0188 6269     		ldr	r2, [r4, #20]
 1838 018a 22F47F62 		bic	r2, r2, #4080
 1839 018e 22F00F02 		bic	r2, r2, #15
 1840 0192 CD68     		ldr	r5, [r1, #12]
 1841 0194 2A43     		orrs	r2, r2, r5
 1842 0196 6261     		str	r2, [r4, #20]
1195:Drivers/STM32F1xx_HAL_Driver/Src/stm32f1xx_hal_adc_ex.c ****     case 2:
ARM GAS  /tmp/cc6gSbL8.s 			page 58


 1843              		.loc 1 1195 7 view .LVU528
 1844              	.L164:
1214:Drivers/STM32F1xx_HAL_Driver/Src/stm32f1xx_hal_adc_ex.c ****   }
1215:Drivers/STM32F1xx_HAL_Driver/Src/stm32f1xx_hal_adc_ex.c ****   
1216:Drivers/STM32F1xx_HAL_Driver/Src/stm32f1xx_hal_adc_ex.c ****   /* If ADC1 Channel_16 or Channel_17 is selected, enable Temperature sensor  */
1217:Drivers/STM32F1xx_HAL_Driver/Src/stm32f1xx_hal_adc_ex.c ****   /* and VREFINT measurement path.                                            */
1218:Drivers/STM32F1xx_HAL_Driver/Src/stm32f1xx_hal_adc_ex.c ****   if ((sConfigInjected->InjectedChannel == ADC_CHANNEL_TEMPSENSOR) ||
 1845              		.loc 1 1218 3 view .LVU529
 1846              		.loc 1 1218 23 is_stmt 0 view .LVU530
 1847 0198 0A68     		ldr	r2, [r1]
 1848              		.loc 1 1218 68 view .LVU531
 1849 019a 103A     		subs	r2, r2, #16
 1850              		.loc 1 1218 6 view .LVU532
 1851 019c 012A     		cmp	r2, #1
 1852 019e 19D9     		bls	.L178
 1853              	.LVL102:
 1854              	.L165:
1219:Drivers/STM32F1xx_HAL_Driver/Src/stm32f1xx_hal_adc_ex.c ****       (sConfigInjected->InjectedChannel == ADC_CHANNEL_VREFINT)      )
1220:Drivers/STM32F1xx_HAL_Driver/Src/stm32f1xx_hal_adc_ex.c ****   {
1221:Drivers/STM32F1xx_HAL_Driver/Src/stm32f1xx_hal_adc_ex.c ****     /* For STM32F1 devices with several ADC: Only ADC1 can access internal    */
1222:Drivers/STM32F1xx_HAL_Driver/Src/stm32f1xx_hal_adc_ex.c ****     /* measurement channels (VrefInt/TempSensor). If these channels are       */
1223:Drivers/STM32F1xx_HAL_Driver/Src/stm32f1xx_hal_adc_ex.c ****     /* intended to be set on other ADC instances, an error is reported.       */
1224:Drivers/STM32F1xx_HAL_Driver/Src/stm32f1xx_hal_adc_ex.c ****     if (hadc->Instance == ADC1)
1225:Drivers/STM32F1xx_HAL_Driver/Src/stm32f1xx_hal_adc_ex.c ****     {
1226:Drivers/STM32F1xx_HAL_Driver/Src/stm32f1xx_hal_adc_ex.c ****       if (READ_BIT(hadc->Instance->CR2, ADC_CR2_TSVREFE) == RESET)
1227:Drivers/STM32F1xx_HAL_Driver/Src/stm32f1xx_hal_adc_ex.c ****       {
1228:Drivers/STM32F1xx_HAL_Driver/Src/stm32f1xx_hal_adc_ex.c ****         SET_BIT(hadc->Instance->CR2, ADC_CR2_TSVREFE);
1229:Drivers/STM32F1xx_HAL_Driver/Src/stm32f1xx_hal_adc_ex.c ****         
1230:Drivers/STM32F1xx_HAL_Driver/Src/stm32f1xx_hal_adc_ex.c ****         if ((sConfigInjected->InjectedChannel == ADC_CHANNEL_TEMPSENSOR))
1231:Drivers/STM32F1xx_HAL_Driver/Src/stm32f1xx_hal_adc_ex.c ****         {
1232:Drivers/STM32F1xx_HAL_Driver/Src/stm32f1xx_hal_adc_ex.c ****           /* Delay for temperature sensor stabilization time */
1233:Drivers/STM32F1xx_HAL_Driver/Src/stm32f1xx_hal_adc_ex.c ****           /* Compute number of CPU cycles to wait for */
1234:Drivers/STM32F1xx_HAL_Driver/Src/stm32f1xx_hal_adc_ex.c ****           wait_loop_index = (ADC_TEMPSENSOR_DELAY_US * (SystemCoreClock / 1000000U));
1235:Drivers/STM32F1xx_HAL_Driver/Src/stm32f1xx_hal_adc_ex.c ****           while(wait_loop_index != 0U)
1236:Drivers/STM32F1xx_HAL_Driver/Src/stm32f1xx_hal_adc_ex.c ****           {
1237:Drivers/STM32F1xx_HAL_Driver/Src/stm32f1xx_hal_adc_ex.c ****             wait_loop_index--;
1238:Drivers/STM32F1xx_HAL_Driver/Src/stm32f1xx_hal_adc_ex.c ****           }
1239:Drivers/STM32F1xx_HAL_Driver/Src/stm32f1xx_hal_adc_ex.c ****         }
1240:Drivers/STM32F1xx_HAL_Driver/Src/stm32f1xx_hal_adc_ex.c ****       }
1241:Drivers/STM32F1xx_HAL_Driver/Src/stm32f1xx_hal_adc_ex.c ****     }
1242:Drivers/STM32F1xx_HAL_Driver/Src/stm32f1xx_hal_adc_ex.c ****     else
1243:Drivers/STM32F1xx_HAL_Driver/Src/stm32f1xx_hal_adc_ex.c ****     {
1244:Drivers/STM32F1xx_HAL_Driver/Src/stm32f1xx_hal_adc_ex.c ****       /* Update ADC state machine to error */
1245:Drivers/STM32F1xx_HAL_Driver/Src/stm32f1xx_hal_adc_ex.c ****       SET_BIT(hadc->State, HAL_ADC_STATE_ERROR_CONFIG);
1246:Drivers/STM32F1xx_HAL_Driver/Src/stm32f1xx_hal_adc_ex.c ****       
1247:Drivers/STM32F1xx_HAL_Driver/Src/stm32f1xx_hal_adc_ex.c ****       tmp_hal_status = HAL_ERROR;
1248:Drivers/STM32F1xx_HAL_Driver/Src/stm32f1xx_hal_adc_ex.c ****     }
1249:Drivers/STM32F1xx_HAL_Driver/Src/stm32f1xx_hal_adc_ex.c ****   }
1250:Drivers/STM32F1xx_HAL_Driver/Src/stm32f1xx_hal_adc_ex.c ****   
1251:Drivers/STM32F1xx_HAL_Driver/Src/stm32f1xx_hal_adc_ex.c ****   /* Process unlocked */
1252:Drivers/STM32F1xx_HAL_Driver/Src/stm32f1xx_hal_adc_ex.c ****   __HAL_UNLOCK(hadc);
 1855              		.loc 1 1252 3 is_stmt 1 view .LVU533
 1856              		.loc 1 1252 3 view .LVU534
 1857 01a0 0022     		movs	r2, #0
 1858 01a2 83F82420 		strb	r2, [r3, #36]
 1859              		.loc 1 1252 3 view .LVU535
1253:Drivers/STM32F1xx_HAL_Driver/Src/stm32f1xx_hal_adc_ex.c ****   
ARM GAS  /tmp/cc6gSbL8.s 			page 59


1254:Drivers/STM32F1xx_HAL_Driver/Src/stm32f1xx_hal_adc_ex.c ****   /* Return function status */
1255:Drivers/STM32F1xx_HAL_Driver/Src/stm32f1xx_hal_adc_ex.c ****   return tmp_hal_status;
 1860              		.loc 1 1255 3 view .LVU536
 1861              	.LVL103:
 1862              	.L146:
1256:Drivers/STM32F1xx_HAL_Driver/Src/stm32f1xx_hal_adc_ex.c **** }
 1863              		.loc 1 1256 1 is_stmt 0 view .LVU537
 1864 01a6 02B0     		add	sp, sp, #8
 1865              	.LCFI27:
 1866              		.cfi_remember_state
 1867              		.cfi_def_cfa_offset 16
 1868              		@ sp needed
 1869 01a8 F0BC     		pop	{r4, r5, r6, r7}
 1870              	.LCFI28:
 1871              		.cfi_restore 7
 1872              		.cfi_restore 6
 1873              		.cfi_restore 5
 1874              		.cfi_restore 4
 1875              		.cfi_def_cfa_offset 0
 1876 01aa 7047     		bx	lr
 1877              	.LVL104:
 1878              	.L161:
 1879              	.LCFI29:
 1880              		.cfi_restore_state
1198:Drivers/STM32F1xx_HAL_Driver/Src/stm32f1xx_hal_adc_ex.c ****                  ADC_JOFR2_JOFFSET2,
 1881              		.loc 1 1198 7 is_stmt 1 view .LVU538
 1882 01ac 1C68     		ldr	r4, [r3]
 1883 01ae A269     		ldr	r2, [r4, #24]
 1884 01b0 22F47F62 		bic	r2, r2, #4080
 1885 01b4 22F00F02 		bic	r2, r2, #15
 1886 01b8 CD68     		ldr	r5, [r1, #12]
 1887 01ba 2A43     		orrs	r2, r2, r5
 1888 01bc A261     		str	r2, [r4, #24]
1201:Drivers/STM32F1xx_HAL_Driver/Src/stm32f1xx_hal_adc_ex.c ****     case 3:
 1889              		.loc 1 1201 7 view .LVU539
 1890 01be EBE7     		b	.L164
 1891              	.L162:
1204:Drivers/STM32F1xx_HAL_Driver/Src/stm32f1xx_hal_adc_ex.c ****                  ADC_JOFR3_JOFFSET3,
 1892              		.loc 1 1204 7 view .LVU540
 1893 01c0 1C68     		ldr	r4, [r3]
 1894 01c2 E269     		ldr	r2, [r4, #28]
 1895 01c4 22F47F62 		bic	r2, r2, #4080
 1896 01c8 22F00F02 		bic	r2, r2, #15
 1897 01cc CD68     		ldr	r5, [r1, #12]
 1898 01ce 2A43     		orrs	r2, r2, r5
 1899 01d0 E261     		str	r2, [r4, #28]
1207:Drivers/STM32F1xx_HAL_Driver/Src/stm32f1xx_hal_adc_ex.c ****     case 4:
 1900              		.loc 1 1207 7 view .LVU541
 1901 01d2 E1E7     		b	.L164
 1902              	.L178:
1224:Drivers/STM32F1xx_HAL_Driver/Src/stm32f1xx_hal_adc_ex.c ****     {
 1903              		.loc 1 1224 5 view .LVU542
1224:Drivers/STM32F1xx_HAL_Driver/Src/stm32f1xx_hal_adc_ex.c ****     {
 1904              		.loc 1 1224 13 is_stmt 0 view .LVU543
 1905 01d4 1A68     		ldr	r2, [r3]
1224:Drivers/STM32F1xx_HAL_Driver/Src/stm32f1xx_hal_adc_ex.c ****     {
 1906              		.loc 1 1224 8 view .LVU544
ARM GAS  /tmp/cc6gSbL8.s 			page 60


 1907 01d6 154C     		ldr	r4, .L180+4
 1908 01d8 A242     		cmp	r2, r4
 1909 01da 05D0     		beq	.L179
1245:Drivers/STM32F1xx_HAL_Driver/Src/stm32f1xx_hal_adc_ex.c ****       
 1910              		.loc 1 1245 7 is_stmt 1 view .LVU545
 1911 01dc 9A6A     		ldr	r2, [r3, #40]
 1912 01de 42F02002 		orr	r2, r2, #32
 1913 01e2 9A62     		str	r2, [r3, #40]
1247:Drivers/STM32F1xx_HAL_Driver/Src/stm32f1xx_hal_adc_ex.c ****     }
 1914              		.loc 1 1247 7 view .LVU546
 1915              	.LVL105:
1247:Drivers/STM32F1xx_HAL_Driver/Src/stm32f1xx_hal_adc_ex.c ****     }
 1916              		.loc 1 1247 22 is_stmt 0 view .LVU547
 1917 01e4 0120     		movs	r0, #1
 1918 01e6 DBE7     		b	.L165
 1919              	.LVL106:
 1920              	.L179:
1226:Drivers/STM32F1xx_HAL_Driver/Src/stm32f1xx_hal_adc_ex.c ****       {
 1921              		.loc 1 1226 7 is_stmt 1 view .LVU548
1226:Drivers/STM32F1xx_HAL_Driver/Src/stm32f1xx_hal_adc_ex.c ****       {
 1922              		.loc 1 1226 11 is_stmt 0 view .LVU549
 1923 01e8 9468     		ldr	r4, [r2, #8]
1226:Drivers/STM32F1xx_HAL_Driver/Src/stm32f1xx_hal_adc_ex.c ****       {
 1924              		.loc 1 1226 10 view .LVU550
 1925 01ea 14F4000F 		tst	r4, #8388608
 1926 01ee D7D1     		bne	.L165
1228:Drivers/STM32F1xx_HAL_Driver/Src/stm32f1xx_hal_adc_ex.c ****         
 1927              		.loc 1 1228 9 is_stmt 1 view .LVU551
 1928 01f0 9468     		ldr	r4, [r2, #8]
 1929 01f2 44F40004 		orr	r4, r4, #8388608
 1930 01f6 9460     		str	r4, [r2, #8]
1230:Drivers/STM32F1xx_HAL_Driver/Src/stm32f1xx_hal_adc_ex.c ****         {
 1931              		.loc 1 1230 9 view .LVU552
1230:Drivers/STM32F1xx_HAL_Driver/Src/stm32f1xx_hal_adc_ex.c ****         {
 1932              		.loc 1 1230 29 is_stmt 0 view .LVU553
 1933 01f8 0A68     		ldr	r2, [r1]
1230:Drivers/STM32F1xx_HAL_Driver/Src/stm32f1xx_hal_adc_ex.c ****         {
 1934              		.loc 1 1230 12 view .LVU554
 1935 01fa 102A     		cmp	r2, #16
 1936 01fc D0D1     		bne	.L165
1234:Drivers/STM32F1xx_HAL_Driver/Src/stm32f1xx_hal_adc_ex.c ****           while(wait_loop_index != 0U)
 1937              		.loc 1 1234 11 is_stmt 1 view .LVU555
1234:Drivers/STM32F1xx_HAL_Driver/Src/stm32f1xx_hal_adc_ex.c ****           while(wait_loop_index != 0U)
 1938              		.loc 1 1234 73 is_stmt 0 view .LVU556
 1939 01fe 0C4A     		ldr	r2, .L180+8
 1940 0200 1268     		ldr	r2, [r2]
 1941 0202 0C49     		ldr	r1, .L180+12
 1942              	.LVL107:
1234:Drivers/STM32F1xx_HAL_Driver/Src/stm32f1xx_hal_adc_ex.c ****           while(wait_loop_index != 0U)
 1943              		.loc 1 1234 73 view .LVU557
 1944 0204 A1FB0212 		umull	r1, r2, r1, r2
 1945 0208 920C     		lsrs	r2, r2, #18
1234:Drivers/STM32F1xx_HAL_Driver/Src/stm32f1xx_hal_adc_ex.c ****           while(wait_loop_index != 0U)
 1946              		.loc 1 1234 54 view .LVU558
 1947 020a 02EB8202 		add	r2, r2, r2, lsl #2
 1948 020e 5200     		lsls	r2, r2, #1
1234:Drivers/STM32F1xx_HAL_Driver/Src/stm32f1xx_hal_adc_ex.c ****           while(wait_loop_index != 0U)
ARM GAS  /tmp/cc6gSbL8.s 			page 61


 1949              		.loc 1 1234 27 view .LVU559
 1950 0210 0192     		str	r2, [sp, #4]
1235:Drivers/STM32F1xx_HAL_Driver/Src/stm32f1xx_hal_adc_ex.c ****           {
 1951              		.loc 1 1235 11 is_stmt 1 view .LVU560
1235:Drivers/STM32F1xx_HAL_Driver/Src/stm32f1xx_hal_adc_ex.c ****           {
 1952              		.loc 1 1235 16 is_stmt 0 view .LVU561
 1953 0212 02E0     		b	.L167
 1954              	.L168:
1237:Drivers/STM32F1xx_HAL_Driver/Src/stm32f1xx_hal_adc_ex.c ****           }
 1955              		.loc 1 1237 13 is_stmt 1 view .LVU562
1237:Drivers/STM32F1xx_HAL_Driver/Src/stm32f1xx_hal_adc_ex.c ****           }
 1956              		.loc 1 1237 28 is_stmt 0 view .LVU563
 1957 0214 019A     		ldr	r2, [sp, #4]
 1958 0216 013A     		subs	r2, r2, #1
 1959 0218 0192     		str	r2, [sp, #4]
 1960              	.L167:
1235:Drivers/STM32F1xx_HAL_Driver/Src/stm32f1xx_hal_adc_ex.c ****           {
 1961              		.loc 1 1235 16 is_stmt 1 view .LVU564
1235:Drivers/STM32F1xx_HAL_Driver/Src/stm32f1xx_hal_adc_ex.c ****           {
 1962              		.loc 1 1235 33 is_stmt 0 view .LVU565
 1963 021a 019A     		ldr	r2, [sp, #4]
1235:Drivers/STM32F1xx_HAL_Driver/Src/stm32f1xx_hal_adc_ex.c ****           {
 1964              		.loc 1 1235 16 view .LVU566
 1965 021c 002A     		cmp	r2, #0
 1966 021e F9D1     		bne	.L168
 1967 0220 BEE7     		b	.L165
 1968              	.LVL108:
 1969              	.L169:
1035:Drivers/STM32F1xx_HAL_Driver/Src/stm32f1xx_hal_adc_ex.c ****   
 1970              		.loc 1 1035 3 view .LVU567
 1971 0222 0220     		movs	r0, #2
 1972 0224 BFE7     		b	.L146
 1973              	.L181:
 1974 0226 00BF     		.align	2
 1975              	.L180:
 1976 0228 003C0140 		.word	1073822720
 1977 022c 00240140 		.word	1073816576
 1978 0230 00000000 		.word	SystemCoreClock
 1979 0234 83DE1B43 		.word	1125899907
 1980              		.cfi_endproc
 1981              	.LFE77:
 1983              		.section	.text.HAL_ADCEx_MultiModeConfigChannel,"ax",%progbits
 1984              		.align	1
 1985              		.global	HAL_ADCEx_MultiModeConfigChannel
 1986              		.syntax unified
 1987              		.thumb
 1988              		.thumb_func
 1989              		.fpu softvfp
 1991              	HAL_ADCEx_MultiModeConfigChannel:
 1992              	.LVL109:
 1993              	.LFB78:
1257:Drivers/STM32F1xx_HAL_Driver/Src/stm32f1xx_hal_adc_ex.c **** 
1258:Drivers/STM32F1xx_HAL_Driver/Src/stm32f1xx_hal_adc_ex.c **** #if defined (STM32F103x6) || defined (STM32F103xB) || defined (STM32F105xC) || defined (STM32F107xC
1259:Drivers/STM32F1xx_HAL_Driver/Src/stm32f1xx_hal_adc_ex.c **** /**
1260:Drivers/STM32F1xx_HAL_Driver/Src/stm32f1xx_hal_adc_ex.c ****   * @brief  Enable ADC multimode and configure multimode parameters
1261:Drivers/STM32F1xx_HAL_Driver/Src/stm32f1xx_hal_adc_ex.c ****   * @note   Possibility to update parameters on the fly:
1262:Drivers/STM32F1xx_HAL_Driver/Src/stm32f1xx_hal_adc_ex.c ****   *         This function initializes multimode parameters, following  
ARM GAS  /tmp/cc6gSbL8.s 			page 62


1263:Drivers/STM32F1xx_HAL_Driver/Src/stm32f1xx_hal_adc_ex.c ****   *         calls to this function can be used to reconfigure some parameters 
1264:Drivers/STM32F1xx_HAL_Driver/Src/stm32f1xx_hal_adc_ex.c ****   *         of structure "ADC_MultiModeTypeDef" on the fly, without reseting 
1265:Drivers/STM32F1xx_HAL_Driver/Src/stm32f1xx_hal_adc_ex.c ****   *         the ADCs (both ADCs of the common group).
1266:Drivers/STM32F1xx_HAL_Driver/Src/stm32f1xx_hal_adc_ex.c ****   *         The setting of these parameters is conditioned to ADC state.
1267:Drivers/STM32F1xx_HAL_Driver/Src/stm32f1xx_hal_adc_ex.c ****   *         For parameters constraints, see comments of structure 
1268:Drivers/STM32F1xx_HAL_Driver/Src/stm32f1xx_hal_adc_ex.c ****   *         "ADC_MultiModeTypeDef".
1269:Drivers/STM32F1xx_HAL_Driver/Src/stm32f1xx_hal_adc_ex.c ****   * @note   To change back configuration from multimode to single mode, ADC must
1270:Drivers/STM32F1xx_HAL_Driver/Src/stm32f1xx_hal_adc_ex.c ****   *         be reset (using function HAL_ADC_Init() ).
1271:Drivers/STM32F1xx_HAL_Driver/Src/stm32f1xx_hal_adc_ex.c ****   * @param  hadc: ADC handle
1272:Drivers/STM32F1xx_HAL_Driver/Src/stm32f1xx_hal_adc_ex.c ****   * @param  multimode: Structure of ADC multimode configuration
1273:Drivers/STM32F1xx_HAL_Driver/Src/stm32f1xx_hal_adc_ex.c ****   * @retval HAL status
1274:Drivers/STM32F1xx_HAL_Driver/Src/stm32f1xx_hal_adc_ex.c ****   */
1275:Drivers/STM32F1xx_HAL_Driver/Src/stm32f1xx_hal_adc_ex.c **** HAL_StatusTypeDef HAL_ADCEx_MultiModeConfigChannel(ADC_HandleTypeDef* hadc, ADC_MultiModeTypeDef* m
1276:Drivers/STM32F1xx_HAL_Driver/Src/stm32f1xx_hal_adc_ex.c **** {
 1994              		.loc 1 1276 1 is_stmt 1 view -0
 1995              		.cfi_startproc
 1996              		@ args = 0, pretend = 0, frame = 0
 1997              		@ frame_needed = 0, uses_anonymous_args = 0
 1998              		@ link register save eliminated.
 1999              		.loc 1 1276 1 is_stmt 0 view .LVU569
 2000 0000 0346     		mov	r3, r0
1277:Drivers/STM32F1xx_HAL_Driver/Src/stm32f1xx_hal_adc_ex.c ****   HAL_StatusTypeDef tmp_hal_status = HAL_OK;
 2001              		.loc 1 1277 3 is_stmt 1 view .LVU570
 2002              	.LVL110:
1278:Drivers/STM32F1xx_HAL_Driver/Src/stm32f1xx_hal_adc_ex.c ****   ADC_HandleTypeDef tmphadcSlave;
 2003              		.loc 1 1278 3 view .LVU571
1279:Drivers/STM32F1xx_HAL_Driver/Src/stm32f1xx_hal_adc_ex.c ****   
1280:Drivers/STM32F1xx_HAL_Driver/Src/stm32f1xx_hal_adc_ex.c ****   /* Check the parameters */
1281:Drivers/STM32F1xx_HAL_Driver/Src/stm32f1xx_hal_adc_ex.c ****   assert_param(IS_ADC_MULTIMODE_MASTER_INSTANCE(hadc->Instance));
 2004              		.loc 1 1281 3 view .LVU572
1282:Drivers/STM32F1xx_HAL_Driver/Src/stm32f1xx_hal_adc_ex.c ****   assert_param(IS_ADC_MODE(multimode->Mode));
 2005              		.loc 1 1282 3 view .LVU573
1283:Drivers/STM32F1xx_HAL_Driver/Src/stm32f1xx_hal_adc_ex.c ****   
1284:Drivers/STM32F1xx_HAL_Driver/Src/stm32f1xx_hal_adc_ex.c ****   /* Process locked */
1285:Drivers/STM32F1xx_HAL_Driver/Src/stm32f1xx_hal_adc_ex.c ****   __HAL_LOCK(hadc);
 2006              		.loc 1 1285 3 view .LVU574
 2007              		.loc 1 1285 3 view .LVU575
 2008 0002 90F82420 		ldrb	r2, [r0, #36]	@ zero_extendqisi2
 2009 0006 012A     		cmp	r2, #1
 2010 0008 20D0     		beq	.L186
 2011              		.loc 1 1285 3 discriminator 2 view .LVU576
 2012 000a 0122     		movs	r2, #1
 2013 000c 80F82420 		strb	r2, [r0, #36]
 2014              		.loc 1 1285 3 discriminator 2 view .LVU577
1286:Drivers/STM32F1xx_HAL_Driver/Src/stm32f1xx_hal_adc_ex.c ****   
1287:Drivers/STM32F1xx_HAL_Driver/Src/stm32f1xx_hal_adc_ex.c ****   /* Set a temporary handle of the ADC slave associated to the ADC master     */
1288:Drivers/STM32F1xx_HAL_Driver/Src/stm32f1xx_hal_adc_ex.c ****   ADC_MULTI_SLAVE(hadc, &tmphadcSlave);
 2015              		.loc 1 1288 3 discriminator 2 view .LVU578
1289:Drivers/STM32F1xx_HAL_Driver/Src/stm32f1xx_hal_adc_ex.c ****   
1290:Drivers/STM32F1xx_HAL_Driver/Src/stm32f1xx_hal_adc_ex.c ****   /* Parameters update conditioned to ADC state:                              */
1291:Drivers/STM32F1xx_HAL_Driver/Src/stm32f1xx_hal_adc_ex.c ****   /* Parameters that can be updated when ADC is disabled or enabled without   */
1292:Drivers/STM32F1xx_HAL_Driver/Src/stm32f1xx_hal_adc_ex.c ****   /* conversion on going on regular group:                                    */
1293:Drivers/STM32F1xx_HAL_Driver/Src/stm32f1xx_hal_adc_ex.c ****   /*  - ADC master and ADC slave DMA configuration                            */
1294:Drivers/STM32F1xx_HAL_Driver/Src/stm32f1xx_hal_adc_ex.c ****   /* Parameters that can be updated only when ADC is disabled:                */
1295:Drivers/STM32F1xx_HAL_Driver/Src/stm32f1xx_hal_adc_ex.c ****   /*  - Multimode mode selection                                              */
1296:Drivers/STM32F1xx_HAL_Driver/Src/stm32f1xx_hal_adc_ex.c ****   /* To optimize code, all multimode settings can be set when both ADCs of    */
1297:Drivers/STM32F1xx_HAL_Driver/Src/stm32f1xx_hal_adc_ex.c ****   /* the common group are in state: disabled.                                 */
ARM GAS  /tmp/cc6gSbL8.s 			page 63


1298:Drivers/STM32F1xx_HAL_Driver/Src/stm32f1xx_hal_adc_ex.c ****   if ((ADC_IS_ENABLE(hadc) == RESET)                     &&
 2016              		.loc 1 1298 3 discriminator 2 view .LVU579
 2017              		.loc 1 1298 8 is_stmt 0 discriminator 2 view .LVU580
 2018 0010 0268     		ldr	r2, [r0]
 2019 0012 9068     		ldr	r0, [r2, #8]
 2020              	.LVL111:
 2021              		.loc 1 1298 6 discriminator 2 view .LVU581
 2022 0014 10F0010F 		tst	r0, #1
 2023 0018 07D1     		bne	.L184
1299:Drivers/STM32F1xx_HAL_Driver/Src/stm32f1xx_hal_adc_ex.c ****       (ADC_IS_ENABLE(&tmphadcSlave) == RESET)            &&
 2024              		.loc 1 1299 8 discriminator 1 view .LVU582
 2025 001a 0D48     		ldr	r0, .L188
 2026 001c 8068     		ldr	r0, [r0, #8]
1298:Drivers/STM32F1xx_HAL_Driver/Src/stm32f1xx_hal_adc_ex.c ****       (ADC_IS_ENABLE(&tmphadcSlave) == RESET)            &&
 2027              		.loc 1 1298 58 discriminator 1 view .LVU583
 2028 001e 10F0010F 		tst	r0, #1
 2029 0022 02D1     		bne	.L184
 2030              		.loc 1 1299 58 view .LVU584
 2031 0024 0B48     		ldr	r0, .L188+4
 2032 0026 8242     		cmp	r2, r0
 2033 0028 08D0     		beq	.L187
 2034              	.L184:
1300:Drivers/STM32F1xx_HAL_Driver/Src/stm32f1xx_hal_adc_ex.c ****       (IS_ADC_MULTIMODE_MASTER_INSTANCE(hadc->Instance))   )
1301:Drivers/STM32F1xx_HAL_Driver/Src/stm32f1xx_hal_adc_ex.c ****   {
1302:Drivers/STM32F1xx_HAL_Driver/Src/stm32f1xx_hal_adc_ex.c ****     MODIFY_REG(hadc->Instance->CR1,
1303:Drivers/STM32F1xx_HAL_Driver/Src/stm32f1xx_hal_adc_ex.c ****                ADC_CR1_DUALMOD    ,
1304:Drivers/STM32F1xx_HAL_Driver/Src/stm32f1xx_hal_adc_ex.c ****                multimode->Mode     );
1305:Drivers/STM32F1xx_HAL_Driver/Src/stm32f1xx_hal_adc_ex.c ****   }
1306:Drivers/STM32F1xx_HAL_Driver/Src/stm32f1xx_hal_adc_ex.c ****   /* If one of the ADC sharing the same common group is enabled, no update    */
1307:Drivers/STM32F1xx_HAL_Driver/Src/stm32f1xx_hal_adc_ex.c ****   /* could be done on neither of the multimode structure parameters.          */
1308:Drivers/STM32F1xx_HAL_Driver/Src/stm32f1xx_hal_adc_ex.c ****   else
1309:Drivers/STM32F1xx_HAL_Driver/Src/stm32f1xx_hal_adc_ex.c ****   {
1310:Drivers/STM32F1xx_HAL_Driver/Src/stm32f1xx_hal_adc_ex.c ****     /* Update ADC state machine to error */
1311:Drivers/STM32F1xx_HAL_Driver/Src/stm32f1xx_hal_adc_ex.c ****     SET_BIT(hadc->State, HAL_ADC_STATE_ERROR_CONFIG);
 2035              		.loc 1 1311 5 is_stmt 1 view .LVU585
 2036 002a 9A6A     		ldr	r2, [r3, #40]
 2037 002c 42F02002 		orr	r2, r2, #32
 2038 0030 9A62     		str	r2, [r3, #40]
1312:Drivers/STM32F1xx_HAL_Driver/Src/stm32f1xx_hal_adc_ex.c ****     
1313:Drivers/STM32F1xx_HAL_Driver/Src/stm32f1xx_hal_adc_ex.c ****     tmp_hal_status = HAL_ERROR;
 2039              		.loc 1 1313 5 view .LVU586
 2040              	.LVL112:
 2041              		.loc 1 1313 20 is_stmt 0 view .LVU587
 2042 0032 0120     		movs	r0, #1
 2043              	.LVL113:
 2044              	.L185:
1314:Drivers/STM32F1xx_HAL_Driver/Src/stm32f1xx_hal_adc_ex.c ****   }
1315:Drivers/STM32F1xx_HAL_Driver/Src/stm32f1xx_hal_adc_ex.c ****     
1316:Drivers/STM32F1xx_HAL_Driver/Src/stm32f1xx_hal_adc_ex.c ****     
1317:Drivers/STM32F1xx_HAL_Driver/Src/stm32f1xx_hal_adc_ex.c ****   /* Process unlocked */
1318:Drivers/STM32F1xx_HAL_Driver/Src/stm32f1xx_hal_adc_ex.c ****   __HAL_UNLOCK(hadc);
 2045              		.loc 1 1318 3 is_stmt 1 view .LVU588
 2046              		.loc 1 1318 3 view .LVU589
 2047 0034 0022     		movs	r2, #0
 2048 0036 83F82420 		strb	r2, [r3, #36]
 2049              		.loc 1 1318 3 view .LVU590
1319:Drivers/STM32F1xx_HAL_Driver/Src/stm32f1xx_hal_adc_ex.c ****   
ARM GAS  /tmp/cc6gSbL8.s 			page 64


1320:Drivers/STM32F1xx_HAL_Driver/Src/stm32f1xx_hal_adc_ex.c ****   /* Return function status */
1321:Drivers/STM32F1xx_HAL_Driver/Src/stm32f1xx_hal_adc_ex.c ****   return tmp_hal_status;
 2050              		.loc 1 1321 3 view .LVU591
 2051              		.loc 1 1321 10 is_stmt 0 view .LVU592
 2052 003a 7047     		bx	lr
 2053              	.LVL114:
 2054              	.L187:
1302:Drivers/STM32F1xx_HAL_Driver/Src/stm32f1xx_hal_adc_ex.c ****                ADC_CR1_DUALMOD    ,
 2055              		.loc 1 1302 5 is_stmt 1 view .LVU593
 2056 003c 5068     		ldr	r0, [r2, #4]
 2057 003e 20F47020 		bic	r0, r0, #983040
 2058 0042 0968     		ldr	r1, [r1]
 2059              	.LVL115:
1302:Drivers/STM32F1xx_HAL_Driver/Src/stm32f1xx_hal_adc_ex.c ****                ADC_CR1_DUALMOD    ,
 2060              		.loc 1 1302 5 is_stmt 0 view .LVU594
 2061 0044 0143     		orrs	r1, r1, r0
 2062 0046 5160     		str	r1, [r2, #4]
1277:Drivers/STM32F1xx_HAL_Driver/Src/stm32f1xx_hal_adc_ex.c ****   ADC_HandleTypeDef tmphadcSlave;
 2063              		.loc 1 1277 21 view .LVU595
 2064 0048 0020     		movs	r0, #0
1302:Drivers/STM32F1xx_HAL_Driver/Src/stm32f1xx_hal_adc_ex.c ****                ADC_CR1_DUALMOD    ,
 2065              		.loc 1 1302 5 view .LVU596
 2066 004a F3E7     		b	.L185
 2067              	.LVL116:
 2068              	.L186:
1285:Drivers/STM32F1xx_HAL_Driver/Src/stm32f1xx_hal_adc_ex.c ****   
 2069              		.loc 1 1285 3 view .LVU597
 2070 004c 0220     		movs	r0, #2
 2071              	.LVL117:
1322:Drivers/STM32F1xx_HAL_Driver/Src/stm32f1xx_hal_adc_ex.c **** } 
 2072              		.loc 1 1322 1 view .LVU598
 2073 004e 7047     		bx	lr
 2074              	.L189:
 2075              		.align	2
 2076              	.L188:
 2077 0050 00280140 		.word	1073817600
 2078 0054 00240140 		.word	1073816576
 2079              		.cfi_endproc
 2080              	.LFE78:
 2082              		.text
 2083              	.Letext0:
 2084              		.file 2 "/usr/lib/gcc/arm-none-eabi/9.2.1/include/stdint.h"
 2085              		.file 3 "Drivers/CMSIS/Include/core_cm3.h"
 2086              		.file 4 "Drivers/CMSIS/Device/ST/STM32F1xx/Include/system_stm32f1xx.h"
 2087              		.file 5 "Drivers/CMSIS/Device/ST/STM32F1xx/Include/stm32f103xe.h"
 2088              		.file 6 "Drivers/CMSIS/Device/ST/STM32F1xx/Include/stm32f1xx.h"
 2089              		.file 7 "/usr/lib/gcc/arm-none-eabi/9.2.1/include/stddef.h"
 2090              		.file 8 "/usr/include/newlib/sys/_types.h"
 2091              		.file 9 "/usr/include/newlib/sys/reent.h"
 2092              		.file 10 "/usr/include/newlib/sys/lock.h"
 2093              		.file 11 "Drivers/STM32F1xx_HAL_Driver/Inc/stm32f1xx_hal_def.h"
 2094              		.file 12 "Drivers/STM32F1xx_HAL_Driver/Inc/stm32f1xx_hal_dma.h"
 2095              		.file 13 "Drivers/STM32F1xx_HAL_Driver/Inc/stm32f1xx_hal_adc.h"
 2096              		.file 14 "Drivers/STM32F1xx_HAL_Driver/Inc/stm32f1xx_hal_adc_ex.h"
 2097              		.file 15 "Drivers/STM32F1xx_HAL_Driver/Inc/stm32f1xx_hal.h"
 2098              		.file 16 "Drivers/STM32F1xx_HAL_Driver/Inc/stm32f1xx_hal_rcc_ex.h"
ARM GAS  /tmp/cc6gSbL8.s 			page 65

