ARM GAS  /tmp/cc4nKcdQ.s 			page 1


   1              		.cpu cortex-m3
   2              		.eabi_attribute 20, 1
   3              		.eabi_attribute 21, 1
   4              		.eabi_attribute 23, 3
   5              		.eabi_attribute 24, 1
   6              		.eabi_attribute 25, 1
   7              		.eabi_attribute 26, 1
   8              		.eabi_attribute 30, 1
   9              		.eabi_attribute 34, 1
  10              		.eabi_attribute 18, 4
  11              		.file	"stm32f1xx_hal_dma.c"
  12              		.text
  13              	.Ltext0:
  14              		.cfi_sections	.debug_frame
  15              		.section	.text.DMA_SetConfig,"ax",%progbits
  16              		.align	1
  17              		.arch armv7-m
  18              		.syntax unified
  19              		.thumb
  20              		.thumb_func
  21              		.fpu softvfp
  23              	DMA_SetConfig:
  24              	.LVL0:
  25              	.LFB78:
  26              		.file 1 "Drivers/STM32F1xx_HAL_Driver/Src/stm32f1xx_hal_dma.c"
   1:Drivers/STM32F1xx_HAL_Driver/Src/stm32f1xx_hal_dma.c **** /**
   2:Drivers/STM32F1xx_HAL_Driver/Src/stm32f1xx_hal_dma.c ****   ******************************************************************************
   3:Drivers/STM32F1xx_HAL_Driver/Src/stm32f1xx_hal_dma.c ****   * @file    stm32f1xx_hal_dma.c
   4:Drivers/STM32F1xx_HAL_Driver/Src/stm32f1xx_hal_dma.c ****   * @author  MCD Application Team
   5:Drivers/STM32F1xx_HAL_Driver/Src/stm32f1xx_hal_dma.c ****   * @version V1.1.1
   6:Drivers/STM32F1xx_HAL_Driver/Src/stm32f1xx_hal_dma.c ****   * @date    12-May-2017
   7:Drivers/STM32F1xx_HAL_Driver/Src/stm32f1xx_hal_dma.c ****   * @brief   DMA HAL module driver.
   8:Drivers/STM32F1xx_HAL_Driver/Src/stm32f1xx_hal_dma.c ****   *         This file provides firmware functions to manage the following
   9:Drivers/STM32F1xx_HAL_Driver/Src/stm32f1xx_hal_dma.c ****   *         functionalities of the Direct Memory Access (DMA) peripheral:
  10:Drivers/STM32F1xx_HAL_Driver/Src/stm32f1xx_hal_dma.c ****   *           + Initialization and de-initialization functions
  11:Drivers/STM32F1xx_HAL_Driver/Src/stm32f1xx_hal_dma.c ****   *           + IO operation functions
  12:Drivers/STM32F1xx_HAL_Driver/Src/stm32f1xx_hal_dma.c ****   *           + Peripheral State and errors functions
  13:Drivers/STM32F1xx_HAL_Driver/Src/stm32f1xx_hal_dma.c ****   @verbatim
  14:Drivers/STM32F1xx_HAL_Driver/Src/stm32f1xx_hal_dma.c ****   ==============================================================================
  15:Drivers/STM32F1xx_HAL_Driver/Src/stm32f1xx_hal_dma.c ****                         ##### How to use this driver #####
  16:Drivers/STM32F1xx_HAL_Driver/Src/stm32f1xx_hal_dma.c ****   ==============================================================================
  17:Drivers/STM32F1xx_HAL_Driver/Src/stm32f1xx_hal_dma.c ****   [..]
  18:Drivers/STM32F1xx_HAL_Driver/Src/stm32f1xx_hal_dma.c ****    (#) Enable and configure the peripheral to be connected to the DMA Channel
  19:Drivers/STM32F1xx_HAL_Driver/Src/stm32f1xx_hal_dma.c ****        (except for internal SRAM / FLASH memories: no initialization is 
  20:Drivers/STM32F1xx_HAL_Driver/Src/stm32f1xx_hal_dma.c ****        necessary). Please refer to the Reference manual for connection between peripherals
  21:Drivers/STM32F1xx_HAL_Driver/Src/stm32f1xx_hal_dma.c ****        and DMA requests.
  22:Drivers/STM32F1xx_HAL_Driver/Src/stm32f1xx_hal_dma.c **** 
  23:Drivers/STM32F1xx_HAL_Driver/Src/stm32f1xx_hal_dma.c ****    (#) For a given Channel, program the required configuration through the following parameters:
  24:Drivers/STM32F1xx_HAL_Driver/Src/stm32f1xx_hal_dma.c ****        Channel request, Transfer Direction, Source and Destination data formats,
  25:Drivers/STM32F1xx_HAL_Driver/Src/stm32f1xx_hal_dma.c ****        Circular or Normal mode, Channel Priority level, Source and Destination Increment mode
  26:Drivers/STM32F1xx_HAL_Driver/Src/stm32f1xx_hal_dma.c ****        using HAL_DMA_Init() function.
  27:Drivers/STM32F1xx_HAL_Driver/Src/stm32f1xx_hal_dma.c **** 
  28:Drivers/STM32F1xx_HAL_Driver/Src/stm32f1xx_hal_dma.c ****    (#) Use HAL_DMA_GetState() function to return the DMA state and HAL_DMA_GetError() in case of er
  29:Drivers/STM32F1xx_HAL_Driver/Src/stm32f1xx_hal_dma.c ****        detection.
  30:Drivers/STM32F1xx_HAL_Driver/Src/stm32f1xx_hal_dma.c ****                     
  31:Drivers/STM32F1xx_HAL_Driver/Src/stm32f1xx_hal_dma.c ****    (#) Use HAL_DMA_Abort() function to abort the current transfer
  32:Drivers/STM32F1xx_HAL_Driver/Src/stm32f1xx_hal_dma.c ****                    
ARM GAS  /tmp/cc4nKcdQ.s 			page 2


  33:Drivers/STM32F1xx_HAL_Driver/Src/stm32f1xx_hal_dma.c ****      -@-   In Memory-to-Memory transfer mode, Circular mode is not allowed.
  34:Drivers/STM32F1xx_HAL_Driver/Src/stm32f1xx_hal_dma.c ****      *** Polling mode IO operation ***
  35:Drivers/STM32F1xx_HAL_Driver/Src/stm32f1xx_hal_dma.c ****      =================================
  36:Drivers/STM32F1xx_HAL_Driver/Src/stm32f1xx_hal_dma.c ****     [..]
  37:Drivers/STM32F1xx_HAL_Driver/Src/stm32f1xx_hal_dma.c ****           (+) Use HAL_DMA_Start() to start DMA transfer after the configuration of Source
  38:Drivers/STM32F1xx_HAL_Driver/Src/stm32f1xx_hal_dma.c ****               address and destination address and the Length of data to be transferred
  39:Drivers/STM32F1xx_HAL_Driver/Src/stm32f1xx_hal_dma.c ****           (+) Use HAL_DMA_PollForTransfer() to poll for the end of current transfer, in this
  40:Drivers/STM32F1xx_HAL_Driver/Src/stm32f1xx_hal_dma.c ****               case a fixed Timeout can be configured by User depending from his application.
  41:Drivers/STM32F1xx_HAL_Driver/Src/stm32f1xx_hal_dma.c **** 
  42:Drivers/STM32F1xx_HAL_Driver/Src/stm32f1xx_hal_dma.c ****      *** Interrupt mode IO operation ***
  43:Drivers/STM32F1xx_HAL_Driver/Src/stm32f1xx_hal_dma.c ****      ===================================
  44:Drivers/STM32F1xx_HAL_Driver/Src/stm32f1xx_hal_dma.c ****     [..]
  45:Drivers/STM32F1xx_HAL_Driver/Src/stm32f1xx_hal_dma.c ****           (+) Configure the DMA interrupt priority using HAL_NVIC_SetPriority()
  46:Drivers/STM32F1xx_HAL_Driver/Src/stm32f1xx_hal_dma.c ****           (+) Enable the DMA IRQ handler using HAL_NVIC_EnableIRQ()
  47:Drivers/STM32F1xx_HAL_Driver/Src/stm32f1xx_hal_dma.c ****           (+) Use HAL_DMA_Start_IT() to start DMA transfer after the configuration of
  48:Drivers/STM32F1xx_HAL_Driver/Src/stm32f1xx_hal_dma.c ****               Source address and destination address and the Length of data to be transferred.
  49:Drivers/STM32F1xx_HAL_Driver/Src/stm32f1xx_hal_dma.c ****               In this case the DMA interrupt is configured
  50:Drivers/STM32F1xx_HAL_Driver/Src/stm32f1xx_hal_dma.c ****           (+) Use HAL_DMA_IRQHandler() called under DMA_IRQHandler() Interrupt subroutine
  51:Drivers/STM32F1xx_HAL_Driver/Src/stm32f1xx_hal_dma.c ****           (+) At the end of data transfer HAL_DMA_IRQHandler() function is executed and user can
  52:Drivers/STM32F1xx_HAL_Driver/Src/stm32f1xx_hal_dma.c ****               add his own function by customization of function pointer XferCpltCallback and
  53:Drivers/STM32F1xx_HAL_Driver/Src/stm32f1xx_hal_dma.c ****               XferErrorCallback (i.e. a member of DMA handle structure).
  54:Drivers/STM32F1xx_HAL_Driver/Src/stm32f1xx_hal_dma.c **** 
  55:Drivers/STM32F1xx_HAL_Driver/Src/stm32f1xx_hal_dma.c ****      *** DMA HAL driver macros list ***
  56:Drivers/STM32F1xx_HAL_Driver/Src/stm32f1xx_hal_dma.c ****      ============================================= 
  57:Drivers/STM32F1xx_HAL_Driver/Src/stm32f1xx_hal_dma.c ****       [..]
  58:Drivers/STM32F1xx_HAL_Driver/Src/stm32f1xx_hal_dma.c ****        Below the list of most used macros in DMA HAL driver.
  59:Drivers/STM32F1xx_HAL_Driver/Src/stm32f1xx_hal_dma.c **** 
  60:Drivers/STM32F1xx_HAL_Driver/Src/stm32f1xx_hal_dma.c ****        (+) __HAL_DMA_ENABLE: Enable the specified DMA Channel.
  61:Drivers/STM32F1xx_HAL_Driver/Src/stm32f1xx_hal_dma.c ****        (+) __HAL_DMA_DISABLE: Disable the specified DMA Channel.
  62:Drivers/STM32F1xx_HAL_Driver/Src/stm32f1xx_hal_dma.c ****        (+) __HAL_DMA_GET_FLAG: Get the DMA Channel pending flags.
  63:Drivers/STM32F1xx_HAL_Driver/Src/stm32f1xx_hal_dma.c ****        (+) __HAL_DMA_CLEAR_FLAG: Clear the DMA Channel pending flags.
  64:Drivers/STM32F1xx_HAL_Driver/Src/stm32f1xx_hal_dma.c ****        (+) __HAL_DMA_ENABLE_IT: Enable the specified DMA Channel interrupts.
  65:Drivers/STM32F1xx_HAL_Driver/Src/stm32f1xx_hal_dma.c ****        (+) __HAL_DMA_DISABLE_IT: Disable the specified DMA Channel interrupts.
  66:Drivers/STM32F1xx_HAL_Driver/Src/stm32f1xx_hal_dma.c ****        (+) __HAL_DMA_GET_IT_SOURCE: Check whether the specified DMA Channel interrupt has occurred 
  67:Drivers/STM32F1xx_HAL_Driver/Src/stm32f1xx_hal_dma.c **** 
  68:Drivers/STM32F1xx_HAL_Driver/Src/stm32f1xx_hal_dma.c ****      [..] 
  69:Drivers/STM32F1xx_HAL_Driver/Src/stm32f1xx_hal_dma.c ****       (@) You can refer to the DMA HAL driver header file for more useful macros  
  70:Drivers/STM32F1xx_HAL_Driver/Src/stm32f1xx_hal_dma.c **** 
  71:Drivers/STM32F1xx_HAL_Driver/Src/stm32f1xx_hal_dma.c ****   @endverbatim
  72:Drivers/STM32F1xx_HAL_Driver/Src/stm32f1xx_hal_dma.c ****   ******************************************************************************
  73:Drivers/STM32F1xx_HAL_Driver/Src/stm32f1xx_hal_dma.c ****   * @attention
  74:Drivers/STM32F1xx_HAL_Driver/Src/stm32f1xx_hal_dma.c ****   *
  75:Drivers/STM32F1xx_HAL_Driver/Src/stm32f1xx_hal_dma.c ****   * <h2><center>&copy; COPYRIGHT(c) 2017 STMicroelectronics</center></h2>
  76:Drivers/STM32F1xx_HAL_Driver/Src/stm32f1xx_hal_dma.c ****   *
  77:Drivers/STM32F1xx_HAL_Driver/Src/stm32f1xx_hal_dma.c ****   * Redistribution and use in source and binary forms, with or without modification,
  78:Drivers/STM32F1xx_HAL_Driver/Src/stm32f1xx_hal_dma.c ****   * are permitted provided that the following conditions are met:
  79:Drivers/STM32F1xx_HAL_Driver/Src/stm32f1xx_hal_dma.c ****   *   1. Redistributions of source code must retain the above copyright notice,
  80:Drivers/STM32F1xx_HAL_Driver/Src/stm32f1xx_hal_dma.c ****   *      this list of conditions and the following disclaimer.
  81:Drivers/STM32F1xx_HAL_Driver/Src/stm32f1xx_hal_dma.c ****   *   2. Redistributions in binary form must reproduce the above copyright notice,
  82:Drivers/STM32F1xx_HAL_Driver/Src/stm32f1xx_hal_dma.c ****   *      this list of conditions and the following disclaimer in the documentation
  83:Drivers/STM32F1xx_HAL_Driver/Src/stm32f1xx_hal_dma.c ****   *      and/or other materials provided with the distribution.
  84:Drivers/STM32F1xx_HAL_Driver/Src/stm32f1xx_hal_dma.c ****   *   3. Neither the name of STMicroelectronics nor the names of its contributors
  85:Drivers/STM32F1xx_HAL_Driver/Src/stm32f1xx_hal_dma.c ****   *      may be used to endorse or promote products derived from this software
  86:Drivers/STM32F1xx_HAL_Driver/Src/stm32f1xx_hal_dma.c ****   *      without specific prior written permission.
  87:Drivers/STM32F1xx_HAL_Driver/Src/stm32f1xx_hal_dma.c ****   *
  88:Drivers/STM32F1xx_HAL_Driver/Src/stm32f1xx_hal_dma.c ****   * THIS SOFTWARE IS PROVIDED BY THE COPYRIGHT HOLDERS AND CONTRIBUTORS "AS IS"
  89:Drivers/STM32F1xx_HAL_Driver/Src/stm32f1xx_hal_dma.c ****   * AND ANY EXPRESS OR IMPLIED WARRANTIES, INCLUDING, BUT NOT LIMITED TO, THE
ARM GAS  /tmp/cc4nKcdQ.s 			page 3


  90:Drivers/STM32F1xx_HAL_Driver/Src/stm32f1xx_hal_dma.c ****   * IMPLIED WARRANTIES OF MERCHANTABILITY AND FITNESS FOR A PARTICULAR PURPOSE ARE
  91:Drivers/STM32F1xx_HAL_Driver/Src/stm32f1xx_hal_dma.c ****   * DISCLAIMED. IN NO EVENT SHALL THE COPYRIGHT HOLDER OR CONTRIBUTORS BE LIABLE
  92:Drivers/STM32F1xx_HAL_Driver/Src/stm32f1xx_hal_dma.c ****   * FOR ANY DIRECT, INDIRECT, INCIDENTAL, SPECIAL, EXEMPLARY, OR CONSEQUENTIAL
  93:Drivers/STM32F1xx_HAL_Driver/Src/stm32f1xx_hal_dma.c ****   * DAMAGES (INCLUDING, BUT NOT LIMITED TO, PROCUREMENT OF SUBSTITUTE GOODS OR
  94:Drivers/STM32F1xx_HAL_Driver/Src/stm32f1xx_hal_dma.c ****   * SERVICES; LOSS OF USE, DATA, OR PROFITS; OR BUSINESS INTERRUPTION) HOWEVER
  95:Drivers/STM32F1xx_HAL_Driver/Src/stm32f1xx_hal_dma.c ****   * CAUSED AND ON ANY THEORY OF LIABILITY, WHETHER IN CONTRACT, STRICT LIABILITY,
  96:Drivers/STM32F1xx_HAL_Driver/Src/stm32f1xx_hal_dma.c ****   * OR TORT (INCLUDING NEGLIGENCE OR OTHERWISE) ARISING IN ANY WAY OUT OF THE USE
  97:Drivers/STM32F1xx_HAL_Driver/Src/stm32f1xx_hal_dma.c ****   * OF THIS SOFTWARE, EVEN IF ADVISED OF THE POSSIBILITY OF SUCH DAMAGE.
  98:Drivers/STM32F1xx_HAL_Driver/Src/stm32f1xx_hal_dma.c ****   *
  99:Drivers/STM32F1xx_HAL_Driver/Src/stm32f1xx_hal_dma.c ****   ******************************************************************************
 100:Drivers/STM32F1xx_HAL_Driver/Src/stm32f1xx_hal_dma.c ****   */
 101:Drivers/STM32F1xx_HAL_Driver/Src/stm32f1xx_hal_dma.c **** 
 102:Drivers/STM32F1xx_HAL_Driver/Src/stm32f1xx_hal_dma.c **** /* Includes ------------------------------------------------------------------*/
 103:Drivers/STM32F1xx_HAL_Driver/Src/stm32f1xx_hal_dma.c **** #include "stm32f1xx_hal.h"
 104:Drivers/STM32F1xx_HAL_Driver/Src/stm32f1xx_hal_dma.c **** 
 105:Drivers/STM32F1xx_HAL_Driver/Src/stm32f1xx_hal_dma.c **** /** @addtogroup STM32F1xx_HAL_Driver
 106:Drivers/STM32F1xx_HAL_Driver/Src/stm32f1xx_hal_dma.c ****   * @{
 107:Drivers/STM32F1xx_HAL_Driver/Src/stm32f1xx_hal_dma.c ****   */
 108:Drivers/STM32F1xx_HAL_Driver/Src/stm32f1xx_hal_dma.c **** 
 109:Drivers/STM32F1xx_HAL_Driver/Src/stm32f1xx_hal_dma.c **** /** @defgroup DMA DMA
 110:Drivers/STM32F1xx_HAL_Driver/Src/stm32f1xx_hal_dma.c ****   * @brief DMA HAL module driver
 111:Drivers/STM32F1xx_HAL_Driver/Src/stm32f1xx_hal_dma.c ****   * @{
 112:Drivers/STM32F1xx_HAL_Driver/Src/stm32f1xx_hal_dma.c ****   */
 113:Drivers/STM32F1xx_HAL_Driver/Src/stm32f1xx_hal_dma.c **** 
 114:Drivers/STM32F1xx_HAL_Driver/Src/stm32f1xx_hal_dma.c **** #ifdef HAL_DMA_MODULE_ENABLED
 115:Drivers/STM32F1xx_HAL_Driver/Src/stm32f1xx_hal_dma.c **** 
 116:Drivers/STM32F1xx_HAL_Driver/Src/stm32f1xx_hal_dma.c **** /* Private typedef -----------------------------------------------------------*/
 117:Drivers/STM32F1xx_HAL_Driver/Src/stm32f1xx_hal_dma.c **** /* Private define ------------------------------------------------------------*/
 118:Drivers/STM32F1xx_HAL_Driver/Src/stm32f1xx_hal_dma.c **** /* Private macro -------------------------------------------------------------*/
 119:Drivers/STM32F1xx_HAL_Driver/Src/stm32f1xx_hal_dma.c **** /* Private variables ---------------------------------------------------------*/
 120:Drivers/STM32F1xx_HAL_Driver/Src/stm32f1xx_hal_dma.c **** /* Private function prototypes -----------------------------------------------*/
 121:Drivers/STM32F1xx_HAL_Driver/Src/stm32f1xx_hal_dma.c **** /** @defgroup DMA_Private_Functions DMA Private Functions
 122:Drivers/STM32F1xx_HAL_Driver/Src/stm32f1xx_hal_dma.c ****   * @{
 123:Drivers/STM32F1xx_HAL_Driver/Src/stm32f1xx_hal_dma.c ****   */
 124:Drivers/STM32F1xx_HAL_Driver/Src/stm32f1xx_hal_dma.c **** static void DMA_SetConfig(DMA_HandleTypeDef *hdma, uint32_t SrcAddress, uint32_t DstAddress, uint32
 125:Drivers/STM32F1xx_HAL_Driver/Src/stm32f1xx_hal_dma.c **** /**
 126:Drivers/STM32F1xx_HAL_Driver/Src/stm32f1xx_hal_dma.c ****   * @}
 127:Drivers/STM32F1xx_HAL_Driver/Src/stm32f1xx_hal_dma.c ****   */
 128:Drivers/STM32F1xx_HAL_Driver/Src/stm32f1xx_hal_dma.c **** 
 129:Drivers/STM32F1xx_HAL_Driver/Src/stm32f1xx_hal_dma.c **** /* Exported functions ---------------------------------------------------------*/
 130:Drivers/STM32F1xx_HAL_Driver/Src/stm32f1xx_hal_dma.c **** 
 131:Drivers/STM32F1xx_HAL_Driver/Src/stm32f1xx_hal_dma.c **** /** @defgroup DMA_Exported_Functions DMA Exported Functions
 132:Drivers/STM32F1xx_HAL_Driver/Src/stm32f1xx_hal_dma.c ****   * @{
 133:Drivers/STM32F1xx_HAL_Driver/Src/stm32f1xx_hal_dma.c ****   */
 134:Drivers/STM32F1xx_HAL_Driver/Src/stm32f1xx_hal_dma.c **** 
 135:Drivers/STM32F1xx_HAL_Driver/Src/stm32f1xx_hal_dma.c **** /** @defgroup DMA_Exported_Functions_Group1 Initialization and de-initialization functions
 136:Drivers/STM32F1xx_HAL_Driver/Src/stm32f1xx_hal_dma.c ****   *  @brief   Initialization and de-initialization functions 
 137:Drivers/STM32F1xx_HAL_Driver/Src/stm32f1xx_hal_dma.c ****   *
 138:Drivers/STM32F1xx_HAL_Driver/Src/stm32f1xx_hal_dma.c **** @verbatim
 139:Drivers/STM32F1xx_HAL_Driver/Src/stm32f1xx_hal_dma.c ****  ===============================================================================
 140:Drivers/STM32F1xx_HAL_Driver/Src/stm32f1xx_hal_dma.c ****              ##### Initialization and de-initialization functions  #####
 141:Drivers/STM32F1xx_HAL_Driver/Src/stm32f1xx_hal_dma.c ****  ===============================================================================
 142:Drivers/STM32F1xx_HAL_Driver/Src/stm32f1xx_hal_dma.c ****     [..]
 143:Drivers/STM32F1xx_HAL_Driver/Src/stm32f1xx_hal_dma.c ****     This section provides functions allowing to initialize the DMA Channel source
 144:Drivers/STM32F1xx_HAL_Driver/Src/stm32f1xx_hal_dma.c ****     and destination addresses, incrementation and data sizes, transfer direction, 
 145:Drivers/STM32F1xx_HAL_Driver/Src/stm32f1xx_hal_dma.c ****     circular/normal mode selection, memory-to-memory mode selection and Channel priority value.
 146:Drivers/STM32F1xx_HAL_Driver/Src/stm32f1xx_hal_dma.c ****     [..]
ARM GAS  /tmp/cc4nKcdQ.s 			page 4


 147:Drivers/STM32F1xx_HAL_Driver/Src/stm32f1xx_hal_dma.c ****     The HAL_DMA_Init() function follows the DMA configuration procedures as described in
 148:Drivers/STM32F1xx_HAL_Driver/Src/stm32f1xx_hal_dma.c ****     reference manual.  
 149:Drivers/STM32F1xx_HAL_Driver/Src/stm32f1xx_hal_dma.c **** 
 150:Drivers/STM32F1xx_HAL_Driver/Src/stm32f1xx_hal_dma.c **** @endverbatim
 151:Drivers/STM32F1xx_HAL_Driver/Src/stm32f1xx_hal_dma.c ****   * @{
 152:Drivers/STM32F1xx_HAL_Driver/Src/stm32f1xx_hal_dma.c ****   */
 153:Drivers/STM32F1xx_HAL_Driver/Src/stm32f1xx_hal_dma.c **** 
 154:Drivers/STM32F1xx_HAL_Driver/Src/stm32f1xx_hal_dma.c **** /**
 155:Drivers/STM32F1xx_HAL_Driver/Src/stm32f1xx_hal_dma.c ****   * @brief  Initialize the DMA according to the specified
 156:Drivers/STM32F1xx_HAL_Driver/Src/stm32f1xx_hal_dma.c ****   *         parameters in the DMA_InitTypeDef and initialize the associated handle.
 157:Drivers/STM32F1xx_HAL_Driver/Src/stm32f1xx_hal_dma.c ****   * @param  hdma: Pointer to a DMA_HandleTypeDef structure that contains
 158:Drivers/STM32F1xx_HAL_Driver/Src/stm32f1xx_hal_dma.c ****   *               the configuration information for the specified DMA Channel.
 159:Drivers/STM32F1xx_HAL_Driver/Src/stm32f1xx_hal_dma.c ****   * @retval HAL status
 160:Drivers/STM32F1xx_HAL_Driver/Src/stm32f1xx_hal_dma.c ****   */
 161:Drivers/STM32F1xx_HAL_Driver/Src/stm32f1xx_hal_dma.c **** HAL_StatusTypeDef HAL_DMA_Init(DMA_HandleTypeDef *hdma)
 162:Drivers/STM32F1xx_HAL_Driver/Src/stm32f1xx_hal_dma.c **** {
 163:Drivers/STM32F1xx_HAL_Driver/Src/stm32f1xx_hal_dma.c ****   uint32_t tmp = 0U;
 164:Drivers/STM32F1xx_HAL_Driver/Src/stm32f1xx_hal_dma.c **** 
 165:Drivers/STM32F1xx_HAL_Driver/Src/stm32f1xx_hal_dma.c ****   /* Check the DMA handle allocation */
 166:Drivers/STM32F1xx_HAL_Driver/Src/stm32f1xx_hal_dma.c ****   if(hdma == NULL)
 167:Drivers/STM32F1xx_HAL_Driver/Src/stm32f1xx_hal_dma.c ****   {
 168:Drivers/STM32F1xx_HAL_Driver/Src/stm32f1xx_hal_dma.c ****     return HAL_ERROR;
 169:Drivers/STM32F1xx_HAL_Driver/Src/stm32f1xx_hal_dma.c ****   }
 170:Drivers/STM32F1xx_HAL_Driver/Src/stm32f1xx_hal_dma.c **** 
 171:Drivers/STM32F1xx_HAL_Driver/Src/stm32f1xx_hal_dma.c ****   /* Check the parameters */
 172:Drivers/STM32F1xx_HAL_Driver/Src/stm32f1xx_hal_dma.c ****   assert_param(IS_DMA_ALL_INSTANCE(hdma->Instance));
 173:Drivers/STM32F1xx_HAL_Driver/Src/stm32f1xx_hal_dma.c ****   assert_param(IS_DMA_DIRECTION(hdma->Init.Direction));
 174:Drivers/STM32F1xx_HAL_Driver/Src/stm32f1xx_hal_dma.c ****   assert_param(IS_DMA_PERIPHERAL_INC_STATE(hdma->Init.PeriphInc));
 175:Drivers/STM32F1xx_HAL_Driver/Src/stm32f1xx_hal_dma.c ****   assert_param(IS_DMA_MEMORY_INC_STATE(hdma->Init.MemInc));
 176:Drivers/STM32F1xx_HAL_Driver/Src/stm32f1xx_hal_dma.c ****   assert_param(IS_DMA_PERIPHERAL_DATA_SIZE(hdma->Init.PeriphDataAlignment));
 177:Drivers/STM32F1xx_HAL_Driver/Src/stm32f1xx_hal_dma.c ****   assert_param(IS_DMA_MEMORY_DATA_SIZE(hdma->Init.MemDataAlignment));
 178:Drivers/STM32F1xx_HAL_Driver/Src/stm32f1xx_hal_dma.c ****   assert_param(IS_DMA_MODE(hdma->Init.Mode));
 179:Drivers/STM32F1xx_HAL_Driver/Src/stm32f1xx_hal_dma.c ****   assert_param(IS_DMA_PRIORITY(hdma->Init.Priority));
 180:Drivers/STM32F1xx_HAL_Driver/Src/stm32f1xx_hal_dma.c **** 
 181:Drivers/STM32F1xx_HAL_Driver/Src/stm32f1xx_hal_dma.c **** #if defined (STM32F101xE) || defined (STM32F101xG) || defined (STM32F103xE) || defined (STM32F103xG
 182:Drivers/STM32F1xx_HAL_Driver/Src/stm32f1xx_hal_dma.c ****   /* calculation of the channel index */
 183:Drivers/STM32F1xx_HAL_Driver/Src/stm32f1xx_hal_dma.c ****   if ((uint32_t)(hdma->Instance) < (uint32_t)(DMA2_Channel1))
 184:Drivers/STM32F1xx_HAL_Driver/Src/stm32f1xx_hal_dma.c ****   {
 185:Drivers/STM32F1xx_HAL_Driver/Src/stm32f1xx_hal_dma.c ****     /* DMA1 */
 186:Drivers/STM32F1xx_HAL_Driver/Src/stm32f1xx_hal_dma.c ****     hdma->ChannelIndex = (((uint32_t)hdma->Instance - (uint32_t)DMA1_Channel1) / ((uint32_t)DMA1_Ch
 187:Drivers/STM32F1xx_HAL_Driver/Src/stm32f1xx_hal_dma.c ****     hdma->DmaBaseAddress = DMA1;
 188:Drivers/STM32F1xx_HAL_Driver/Src/stm32f1xx_hal_dma.c ****   }
 189:Drivers/STM32F1xx_HAL_Driver/Src/stm32f1xx_hal_dma.c ****   else 
 190:Drivers/STM32F1xx_HAL_Driver/Src/stm32f1xx_hal_dma.c ****   {
 191:Drivers/STM32F1xx_HAL_Driver/Src/stm32f1xx_hal_dma.c ****     /* DMA2 */
 192:Drivers/STM32F1xx_HAL_Driver/Src/stm32f1xx_hal_dma.c ****     hdma->ChannelIndex = (((uint32_t)hdma->Instance - (uint32_t)DMA2_Channel1) / ((uint32_t)DMA2_Ch
 193:Drivers/STM32F1xx_HAL_Driver/Src/stm32f1xx_hal_dma.c ****     hdma->DmaBaseAddress = DMA2;
 194:Drivers/STM32F1xx_HAL_Driver/Src/stm32f1xx_hal_dma.c ****   }
 195:Drivers/STM32F1xx_HAL_Driver/Src/stm32f1xx_hal_dma.c **** #else
 196:Drivers/STM32F1xx_HAL_Driver/Src/stm32f1xx_hal_dma.c ****   /* DMA1 */
 197:Drivers/STM32F1xx_HAL_Driver/Src/stm32f1xx_hal_dma.c ****   hdma->ChannelIndex = (((uint32_t)hdma->Instance - (uint32_t)DMA1_Channel1) / ((uint32_t)DMA1_Chan
 198:Drivers/STM32F1xx_HAL_Driver/Src/stm32f1xx_hal_dma.c ****   hdma->DmaBaseAddress = DMA1;
 199:Drivers/STM32F1xx_HAL_Driver/Src/stm32f1xx_hal_dma.c **** #endif /* STM32F101xE || STM32F101xG || STM32F103xE || STM32F103xG || STM32F100xE || STM32F105xC ||
 200:Drivers/STM32F1xx_HAL_Driver/Src/stm32f1xx_hal_dma.c **** 
 201:Drivers/STM32F1xx_HAL_Driver/Src/stm32f1xx_hal_dma.c ****   /* Change DMA peripheral state */
 202:Drivers/STM32F1xx_HAL_Driver/Src/stm32f1xx_hal_dma.c ****   hdma->State = HAL_DMA_STATE_BUSY;
 203:Drivers/STM32F1xx_HAL_Driver/Src/stm32f1xx_hal_dma.c **** 
ARM GAS  /tmp/cc4nKcdQ.s 			page 5


 204:Drivers/STM32F1xx_HAL_Driver/Src/stm32f1xx_hal_dma.c ****   /* Get the CR register value */
 205:Drivers/STM32F1xx_HAL_Driver/Src/stm32f1xx_hal_dma.c ****   tmp = hdma->Instance->CCR;
 206:Drivers/STM32F1xx_HAL_Driver/Src/stm32f1xx_hal_dma.c **** 
 207:Drivers/STM32F1xx_HAL_Driver/Src/stm32f1xx_hal_dma.c ****   /* Clear PL, MSIZE, PSIZE, MINC, PINC, CIRC and DIR bits */
 208:Drivers/STM32F1xx_HAL_Driver/Src/stm32f1xx_hal_dma.c ****   tmp &= ((uint32_t)~(DMA_CCR_PL    | DMA_CCR_MSIZE  | DMA_CCR_PSIZE  | \
 209:Drivers/STM32F1xx_HAL_Driver/Src/stm32f1xx_hal_dma.c ****                       DMA_CCR_MINC  | DMA_CCR_PINC   | DMA_CCR_CIRC   | \
 210:Drivers/STM32F1xx_HAL_Driver/Src/stm32f1xx_hal_dma.c ****                       DMA_CCR_DIR));
 211:Drivers/STM32F1xx_HAL_Driver/Src/stm32f1xx_hal_dma.c **** 
 212:Drivers/STM32F1xx_HAL_Driver/Src/stm32f1xx_hal_dma.c ****   /* Prepare the DMA Channel configuration */
 213:Drivers/STM32F1xx_HAL_Driver/Src/stm32f1xx_hal_dma.c ****   tmp |=  hdma->Init.Direction        |
 214:Drivers/STM32F1xx_HAL_Driver/Src/stm32f1xx_hal_dma.c ****           hdma->Init.PeriphInc           | hdma->Init.MemInc           |
 215:Drivers/STM32F1xx_HAL_Driver/Src/stm32f1xx_hal_dma.c ****           hdma->Init.PeriphDataAlignment | hdma->Init.MemDataAlignment |
 216:Drivers/STM32F1xx_HAL_Driver/Src/stm32f1xx_hal_dma.c ****           hdma->Init.Mode                | hdma->Init.Priority;
 217:Drivers/STM32F1xx_HAL_Driver/Src/stm32f1xx_hal_dma.c **** 
 218:Drivers/STM32F1xx_HAL_Driver/Src/stm32f1xx_hal_dma.c ****   /* Write to DMA Channel CR register */
 219:Drivers/STM32F1xx_HAL_Driver/Src/stm32f1xx_hal_dma.c ****   hdma->Instance->CCR = tmp;
 220:Drivers/STM32F1xx_HAL_Driver/Src/stm32f1xx_hal_dma.c **** 
 221:Drivers/STM32F1xx_HAL_Driver/Src/stm32f1xx_hal_dma.c **** 
 222:Drivers/STM32F1xx_HAL_Driver/Src/stm32f1xx_hal_dma.c ****   /* Clean callbacks */
 223:Drivers/STM32F1xx_HAL_Driver/Src/stm32f1xx_hal_dma.c ****   hdma->XferCpltCallback = NULL;
 224:Drivers/STM32F1xx_HAL_Driver/Src/stm32f1xx_hal_dma.c ****   hdma->XferHalfCpltCallback = NULL;
 225:Drivers/STM32F1xx_HAL_Driver/Src/stm32f1xx_hal_dma.c ****   hdma->XferErrorCallback = NULL;
 226:Drivers/STM32F1xx_HAL_Driver/Src/stm32f1xx_hal_dma.c ****   hdma->XferAbortCallback = NULL;
 227:Drivers/STM32F1xx_HAL_Driver/Src/stm32f1xx_hal_dma.c **** 
 228:Drivers/STM32F1xx_HAL_Driver/Src/stm32f1xx_hal_dma.c ****   /* Initialise the error code */
 229:Drivers/STM32F1xx_HAL_Driver/Src/stm32f1xx_hal_dma.c ****   hdma->ErrorCode = HAL_DMA_ERROR_NONE;
 230:Drivers/STM32F1xx_HAL_Driver/Src/stm32f1xx_hal_dma.c **** 
 231:Drivers/STM32F1xx_HAL_Driver/Src/stm32f1xx_hal_dma.c ****   /* Initialize the DMA state*/
 232:Drivers/STM32F1xx_HAL_Driver/Src/stm32f1xx_hal_dma.c ****   hdma->State = HAL_DMA_STATE_READY;
 233:Drivers/STM32F1xx_HAL_Driver/Src/stm32f1xx_hal_dma.c ****   /* Allocate lock resource and initialize it */
 234:Drivers/STM32F1xx_HAL_Driver/Src/stm32f1xx_hal_dma.c ****   hdma->Lock = HAL_UNLOCKED;
 235:Drivers/STM32F1xx_HAL_Driver/Src/stm32f1xx_hal_dma.c ****   
 236:Drivers/STM32F1xx_HAL_Driver/Src/stm32f1xx_hal_dma.c ****   return HAL_OK;
 237:Drivers/STM32F1xx_HAL_Driver/Src/stm32f1xx_hal_dma.c **** }
 238:Drivers/STM32F1xx_HAL_Driver/Src/stm32f1xx_hal_dma.c **** 
 239:Drivers/STM32F1xx_HAL_Driver/Src/stm32f1xx_hal_dma.c **** /**
 240:Drivers/STM32F1xx_HAL_Driver/Src/stm32f1xx_hal_dma.c ****   * @brief  DeInitialize the DMA peripheral.
 241:Drivers/STM32F1xx_HAL_Driver/Src/stm32f1xx_hal_dma.c ****   * @param  hdma: pointer to a DMA_HandleTypeDef structure that contains
 242:Drivers/STM32F1xx_HAL_Driver/Src/stm32f1xx_hal_dma.c ****   *               the configuration information for the specified DMA Channel.
 243:Drivers/STM32F1xx_HAL_Driver/Src/stm32f1xx_hal_dma.c ****   * @retval HAL status
 244:Drivers/STM32F1xx_HAL_Driver/Src/stm32f1xx_hal_dma.c ****   */
 245:Drivers/STM32F1xx_HAL_Driver/Src/stm32f1xx_hal_dma.c **** HAL_StatusTypeDef HAL_DMA_DeInit(DMA_HandleTypeDef *hdma)
 246:Drivers/STM32F1xx_HAL_Driver/Src/stm32f1xx_hal_dma.c **** {
 247:Drivers/STM32F1xx_HAL_Driver/Src/stm32f1xx_hal_dma.c ****   /* Check the DMA handle allocation */
 248:Drivers/STM32F1xx_HAL_Driver/Src/stm32f1xx_hal_dma.c ****   if(hdma == NULL)
 249:Drivers/STM32F1xx_HAL_Driver/Src/stm32f1xx_hal_dma.c ****   {
 250:Drivers/STM32F1xx_HAL_Driver/Src/stm32f1xx_hal_dma.c ****     return HAL_ERROR;
 251:Drivers/STM32F1xx_HAL_Driver/Src/stm32f1xx_hal_dma.c ****   }
 252:Drivers/STM32F1xx_HAL_Driver/Src/stm32f1xx_hal_dma.c **** 
 253:Drivers/STM32F1xx_HAL_Driver/Src/stm32f1xx_hal_dma.c ****   /* Check the parameters */
 254:Drivers/STM32F1xx_HAL_Driver/Src/stm32f1xx_hal_dma.c ****   assert_param(IS_DMA_ALL_INSTANCE(hdma->Instance));
 255:Drivers/STM32F1xx_HAL_Driver/Src/stm32f1xx_hal_dma.c **** 
 256:Drivers/STM32F1xx_HAL_Driver/Src/stm32f1xx_hal_dma.c ****   /* Disable the selected DMA Channelx */
 257:Drivers/STM32F1xx_HAL_Driver/Src/stm32f1xx_hal_dma.c ****   __HAL_DMA_DISABLE(hdma);
 258:Drivers/STM32F1xx_HAL_Driver/Src/stm32f1xx_hal_dma.c **** 
 259:Drivers/STM32F1xx_HAL_Driver/Src/stm32f1xx_hal_dma.c ****   /* Reset DMA Channel control register */
 260:Drivers/STM32F1xx_HAL_Driver/Src/stm32f1xx_hal_dma.c ****   hdma->Instance->CCR  = 0U;
ARM GAS  /tmp/cc4nKcdQ.s 			page 6


 261:Drivers/STM32F1xx_HAL_Driver/Src/stm32f1xx_hal_dma.c **** 
 262:Drivers/STM32F1xx_HAL_Driver/Src/stm32f1xx_hal_dma.c ****   /* Reset DMA Channel Number of Data to Transfer register */
 263:Drivers/STM32F1xx_HAL_Driver/Src/stm32f1xx_hal_dma.c ****   hdma->Instance->CNDTR = 0U;
 264:Drivers/STM32F1xx_HAL_Driver/Src/stm32f1xx_hal_dma.c **** 
 265:Drivers/STM32F1xx_HAL_Driver/Src/stm32f1xx_hal_dma.c ****   /* Reset DMA Channel peripheral address register */
 266:Drivers/STM32F1xx_HAL_Driver/Src/stm32f1xx_hal_dma.c ****   hdma->Instance->CPAR  = 0U;
 267:Drivers/STM32F1xx_HAL_Driver/Src/stm32f1xx_hal_dma.c **** 
 268:Drivers/STM32F1xx_HAL_Driver/Src/stm32f1xx_hal_dma.c ****   /* Reset DMA Channel memory address register */
 269:Drivers/STM32F1xx_HAL_Driver/Src/stm32f1xx_hal_dma.c ****   hdma->Instance->CMAR = 0U;
 270:Drivers/STM32F1xx_HAL_Driver/Src/stm32f1xx_hal_dma.c **** 
 271:Drivers/STM32F1xx_HAL_Driver/Src/stm32f1xx_hal_dma.c **** #if defined (STM32F101xE) || defined (STM32F101xG) || defined (STM32F103xE) || defined (STM32F103xG
 272:Drivers/STM32F1xx_HAL_Driver/Src/stm32f1xx_hal_dma.c ****   /* calculation of the channel index */
 273:Drivers/STM32F1xx_HAL_Driver/Src/stm32f1xx_hal_dma.c ****   if ((uint32_t)(hdma->Instance) < (uint32_t)(DMA2_Channel1))
 274:Drivers/STM32F1xx_HAL_Driver/Src/stm32f1xx_hal_dma.c ****   {
 275:Drivers/STM32F1xx_HAL_Driver/Src/stm32f1xx_hal_dma.c ****     /* DMA1 */
 276:Drivers/STM32F1xx_HAL_Driver/Src/stm32f1xx_hal_dma.c ****     hdma->ChannelIndex = (((uint32_t)hdma->Instance - (uint32_t)DMA1_Channel1) / ((uint32_t)DMA1_Ch
 277:Drivers/STM32F1xx_HAL_Driver/Src/stm32f1xx_hal_dma.c ****     hdma->DmaBaseAddress = DMA1;
 278:Drivers/STM32F1xx_HAL_Driver/Src/stm32f1xx_hal_dma.c ****   }
 279:Drivers/STM32F1xx_HAL_Driver/Src/stm32f1xx_hal_dma.c ****   else 
 280:Drivers/STM32F1xx_HAL_Driver/Src/stm32f1xx_hal_dma.c ****   {
 281:Drivers/STM32F1xx_HAL_Driver/Src/stm32f1xx_hal_dma.c ****     /* DMA2 */
 282:Drivers/STM32F1xx_HAL_Driver/Src/stm32f1xx_hal_dma.c ****     hdma->ChannelIndex = (((uint32_t)hdma->Instance - (uint32_t)DMA2_Channel1) / ((uint32_t)DMA2_Ch
 283:Drivers/STM32F1xx_HAL_Driver/Src/stm32f1xx_hal_dma.c ****     hdma->DmaBaseAddress = DMA2;
 284:Drivers/STM32F1xx_HAL_Driver/Src/stm32f1xx_hal_dma.c ****   }
 285:Drivers/STM32F1xx_HAL_Driver/Src/stm32f1xx_hal_dma.c **** #else
 286:Drivers/STM32F1xx_HAL_Driver/Src/stm32f1xx_hal_dma.c ****   /* DMA1 */
 287:Drivers/STM32F1xx_HAL_Driver/Src/stm32f1xx_hal_dma.c ****   hdma->ChannelIndex = (((uint32_t)hdma->Instance - (uint32_t)DMA1_Channel1) / ((uint32_t)DMA1_Chan
 288:Drivers/STM32F1xx_HAL_Driver/Src/stm32f1xx_hal_dma.c ****   hdma->DmaBaseAddress = DMA1;
 289:Drivers/STM32F1xx_HAL_Driver/Src/stm32f1xx_hal_dma.c **** #endif /* STM32F101xE || STM32F101xG || STM32F103xE || STM32F103xG || STM32F100xE || STM32F105xC ||
 290:Drivers/STM32F1xx_HAL_Driver/Src/stm32f1xx_hal_dma.c **** 
 291:Drivers/STM32F1xx_HAL_Driver/Src/stm32f1xx_hal_dma.c ****   /* Clear all flags */
 292:Drivers/STM32F1xx_HAL_Driver/Src/stm32f1xx_hal_dma.c ****   hdma->DmaBaseAddress->IFCR = (DMA_ISR_GIF1 << (hdma->ChannelIndex));
 293:Drivers/STM32F1xx_HAL_Driver/Src/stm32f1xx_hal_dma.c **** 
 294:Drivers/STM32F1xx_HAL_Driver/Src/stm32f1xx_hal_dma.c ****   /* Initialize the error code */
 295:Drivers/STM32F1xx_HAL_Driver/Src/stm32f1xx_hal_dma.c ****   hdma->ErrorCode = HAL_DMA_ERROR_NONE;
 296:Drivers/STM32F1xx_HAL_Driver/Src/stm32f1xx_hal_dma.c **** 
 297:Drivers/STM32F1xx_HAL_Driver/Src/stm32f1xx_hal_dma.c ****   /* Initialize the DMA state */
 298:Drivers/STM32F1xx_HAL_Driver/Src/stm32f1xx_hal_dma.c ****   hdma->State = HAL_DMA_STATE_RESET;
 299:Drivers/STM32F1xx_HAL_Driver/Src/stm32f1xx_hal_dma.c **** 
 300:Drivers/STM32F1xx_HAL_Driver/Src/stm32f1xx_hal_dma.c ****   /* Release Lock */
 301:Drivers/STM32F1xx_HAL_Driver/Src/stm32f1xx_hal_dma.c ****   __HAL_UNLOCK(hdma);
 302:Drivers/STM32F1xx_HAL_Driver/Src/stm32f1xx_hal_dma.c **** 
 303:Drivers/STM32F1xx_HAL_Driver/Src/stm32f1xx_hal_dma.c ****   return HAL_OK;
 304:Drivers/STM32F1xx_HAL_Driver/Src/stm32f1xx_hal_dma.c **** }
 305:Drivers/STM32F1xx_HAL_Driver/Src/stm32f1xx_hal_dma.c **** 
 306:Drivers/STM32F1xx_HAL_Driver/Src/stm32f1xx_hal_dma.c **** /**
 307:Drivers/STM32F1xx_HAL_Driver/Src/stm32f1xx_hal_dma.c ****   * @}
 308:Drivers/STM32F1xx_HAL_Driver/Src/stm32f1xx_hal_dma.c ****   */
 309:Drivers/STM32F1xx_HAL_Driver/Src/stm32f1xx_hal_dma.c **** 
 310:Drivers/STM32F1xx_HAL_Driver/Src/stm32f1xx_hal_dma.c **** /** @defgroup DMA_Exported_Functions_Group2 Input and Output operation functions
 311:Drivers/STM32F1xx_HAL_Driver/Src/stm32f1xx_hal_dma.c ****   *  @brief   Input and Output operation functions
 312:Drivers/STM32F1xx_HAL_Driver/Src/stm32f1xx_hal_dma.c ****   *
 313:Drivers/STM32F1xx_HAL_Driver/Src/stm32f1xx_hal_dma.c **** @verbatim
 314:Drivers/STM32F1xx_HAL_Driver/Src/stm32f1xx_hal_dma.c ****  ===============================================================================
 315:Drivers/STM32F1xx_HAL_Driver/Src/stm32f1xx_hal_dma.c ****                       #####  IO operation functions  #####
 316:Drivers/STM32F1xx_HAL_Driver/Src/stm32f1xx_hal_dma.c ****  ===============================================================================
 317:Drivers/STM32F1xx_HAL_Driver/Src/stm32f1xx_hal_dma.c ****     [..]  This section provides functions allowing to:
ARM GAS  /tmp/cc4nKcdQ.s 			page 7


 318:Drivers/STM32F1xx_HAL_Driver/Src/stm32f1xx_hal_dma.c ****       (+) Configure the source, destination address and data length and Start DMA transfer
 319:Drivers/STM32F1xx_HAL_Driver/Src/stm32f1xx_hal_dma.c ****       (+) Configure the source, destination address and data length and
 320:Drivers/STM32F1xx_HAL_Driver/Src/stm32f1xx_hal_dma.c ****           Start DMA transfer with interrupt
 321:Drivers/STM32F1xx_HAL_Driver/Src/stm32f1xx_hal_dma.c ****       (+) Abort DMA transfer
 322:Drivers/STM32F1xx_HAL_Driver/Src/stm32f1xx_hal_dma.c ****       (+) Poll for transfer complete
 323:Drivers/STM32F1xx_HAL_Driver/Src/stm32f1xx_hal_dma.c ****       (+) Handle DMA interrupt request
 324:Drivers/STM32F1xx_HAL_Driver/Src/stm32f1xx_hal_dma.c **** 
 325:Drivers/STM32F1xx_HAL_Driver/Src/stm32f1xx_hal_dma.c **** @endverbatim
 326:Drivers/STM32F1xx_HAL_Driver/Src/stm32f1xx_hal_dma.c ****   * @{
 327:Drivers/STM32F1xx_HAL_Driver/Src/stm32f1xx_hal_dma.c ****   */
 328:Drivers/STM32F1xx_HAL_Driver/Src/stm32f1xx_hal_dma.c **** 
 329:Drivers/STM32F1xx_HAL_Driver/Src/stm32f1xx_hal_dma.c **** /**
 330:Drivers/STM32F1xx_HAL_Driver/Src/stm32f1xx_hal_dma.c ****   * @brief  Start the DMA Transfer.
 331:Drivers/STM32F1xx_HAL_Driver/Src/stm32f1xx_hal_dma.c ****   * @param  hdma: pointer to a DMA_HandleTypeDef structure that contains
 332:Drivers/STM32F1xx_HAL_Driver/Src/stm32f1xx_hal_dma.c ****   *               the configuration information for the specified DMA Channel.
 333:Drivers/STM32F1xx_HAL_Driver/Src/stm32f1xx_hal_dma.c ****   * @param  SrcAddress: The source memory Buffer address
 334:Drivers/STM32F1xx_HAL_Driver/Src/stm32f1xx_hal_dma.c ****   * @param  DstAddress: The destination memory Buffer address
 335:Drivers/STM32F1xx_HAL_Driver/Src/stm32f1xx_hal_dma.c ****   * @param  DataLength: The length of data to be transferred from source to destination
 336:Drivers/STM32F1xx_HAL_Driver/Src/stm32f1xx_hal_dma.c ****   * @retval HAL status
 337:Drivers/STM32F1xx_HAL_Driver/Src/stm32f1xx_hal_dma.c ****   */
 338:Drivers/STM32F1xx_HAL_Driver/Src/stm32f1xx_hal_dma.c **** HAL_StatusTypeDef HAL_DMA_Start(DMA_HandleTypeDef *hdma, uint32_t SrcAddress, uint32_t DstAddress, 
 339:Drivers/STM32F1xx_HAL_Driver/Src/stm32f1xx_hal_dma.c **** {
 340:Drivers/STM32F1xx_HAL_Driver/Src/stm32f1xx_hal_dma.c ****   HAL_StatusTypeDef status = HAL_OK;
 341:Drivers/STM32F1xx_HAL_Driver/Src/stm32f1xx_hal_dma.c **** 
 342:Drivers/STM32F1xx_HAL_Driver/Src/stm32f1xx_hal_dma.c ****   /* Check the parameters */
 343:Drivers/STM32F1xx_HAL_Driver/Src/stm32f1xx_hal_dma.c ****   assert_param(IS_DMA_BUFFER_SIZE(DataLength));
 344:Drivers/STM32F1xx_HAL_Driver/Src/stm32f1xx_hal_dma.c **** 
 345:Drivers/STM32F1xx_HAL_Driver/Src/stm32f1xx_hal_dma.c ****   /* Process locked */
 346:Drivers/STM32F1xx_HAL_Driver/Src/stm32f1xx_hal_dma.c ****   __HAL_LOCK(hdma);
 347:Drivers/STM32F1xx_HAL_Driver/Src/stm32f1xx_hal_dma.c **** 
 348:Drivers/STM32F1xx_HAL_Driver/Src/stm32f1xx_hal_dma.c ****   if(HAL_DMA_STATE_READY == hdma->State)
 349:Drivers/STM32F1xx_HAL_Driver/Src/stm32f1xx_hal_dma.c ****   {
 350:Drivers/STM32F1xx_HAL_Driver/Src/stm32f1xx_hal_dma.c ****     /* Change DMA peripheral state */
 351:Drivers/STM32F1xx_HAL_Driver/Src/stm32f1xx_hal_dma.c ****     hdma->State = HAL_DMA_STATE_BUSY;
 352:Drivers/STM32F1xx_HAL_Driver/Src/stm32f1xx_hal_dma.c ****     hdma->ErrorCode = HAL_DMA_ERROR_NONE;
 353:Drivers/STM32F1xx_HAL_Driver/Src/stm32f1xx_hal_dma.c ****             
 354:Drivers/STM32F1xx_HAL_Driver/Src/stm32f1xx_hal_dma.c ****     /* Disable the peripheral */
 355:Drivers/STM32F1xx_HAL_Driver/Src/stm32f1xx_hal_dma.c ****     __HAL_DMA_DISABLE(hdma);
 356:Drivers/STM32F1xx_HAL_Driver/Src/stm32f1xx_hal_dma.c ****     
 357:Drivers/STM32F1xx_HAL_Driver/Src/stm32f1xx_hal_dma.c ****     /* Configure the source, destination address and the data length & clear flags*/
 358:Drivers/STM32F1xx_HAL_Driver/Src/stm32f1xx_hal_dma.c ****     DMA_SetConfig(hdma, SrcAddress, DstAddress, DataLength);
 359:Drivers/STM32F1xx_HAL_Driver/Src/stm32f1xx_hal_dma.c ****     
 360:Drivers/STM32F1xx_HAL_Driver/Src/stm32f1xx_hal_dma.c ****     /* Enable the Peripheral */
 361:Drivers/STM32F1xx_HAL_Driver/Src/stm32f1xx_hal_dma.c ****     __HAL_DMA_ENABLE(hdma);
 362:Drivers/STM32F1xx_HAL_Driver/Src/stm32f1xx_hal_dma.c ****   }
 363:Drivers/STM32F1xx_HAL_Driver/Src/stm32f1xx_hal_dma.c ****   else
 364:Drivers/STM32F1xx_HAL_Driver/Src/stm32f1xx_hal_dma.c ****   {
 365:Drivers/STM32F1xx_HAL_Driver/Src/stm32f1xx_hal_dma.c ****    /* Process Unlocked */
 366:Drivers/STM32F1xx_HAL_Driver/Src/stm32f1xx_hal_dma.c ****    __HAL_UNLOCK(hdma);  
 367:Drivers/STM32F1xx_HAL_Driver/Src/stm32f1xx_hal_dma.c ****    status = HAL_BUSY;
 368:Drivers/STM32F1xx_HAL_Driver/Src/stm32f1xx_hal_dma.c ****   }  
 369:Drivers/STM32F1xx_HAL_Driver/Src/stm32f1xx_hal_dma.c ****   return status;
 370:Drivers/STM32F1xx_HAL_Driver/Src/stm32f1xx_hal_dma.c **** }
 371:Drivers/STM32F1xx_HAL_Driver/Src/stm32f1xx_hal_dma.c **** 
 372:Drivers/STM32F1xx_HAL_Driver/Src/stm32f1xx_hal_dma.c **** /**
 373:Drivers/STM32F1xx_HAL_Driver/Src/stm32f1xx_hal_dma.c ****   * @brief  Start the DMA Transfer with interrupt enabled.
 374:Drivers/STM32F1xx_HAL_Driver/Src/stm32f1xx_hal_dma.c ****   * @param  hdma: pointer to a DMA_HandleTypeDef structure that contains
ARM GAS  /tmp/cc4nKcdQ.s 			page 8


 375:Drivers/STM32F1xx_HAL_Driver/Src/stm32f1xx_hal_dma.c ****   *               the configuration information for the specified DMA Channel.
 376:Drivers/STM32F1xx_HAL_Driver/Src/stm32f1xx_hal_dma.c ****   * @param  SrcAddress: The source memory Buffer address
 377:Drivers/STM32F1xx_HAL_Driver/Src/stm32f1xx_hal_dma.c ****   * @param  DstAddress: The destination memory Buffer address
 378:Drivers/STM32F1xx_HAL_Driver/Src/stm32f1xx_hal_dma.c ****   * @param  DataLength: The length of data to be transferred from source to destination
 379:Drivers/STM32F1xx_HAL_Driver/Src/stm32f1xx_hal_dma.c ****   * @retval HAL status
 380:Drivers/STM32F1xx_HAL_Driver/Src/stm32f1xx_hal_dma.c ****   */
 381:Drivers/STM32F1xx_HAL_Driver/Src/stm32f1xx_hal_dma.c **** HAL_StatusTypeDef HAL_DMA_Start_IT(DMA_HandleTypeDef *hdma, uint32_t SrcAddress, uint32_t DstAddres
 382:Drivers/STM32F1xx_HAL_Driver/Src/stm32f1xx_hal_dma.c **** {
 383:Drivers/STM32F1xx_HAL_Driver/Src/stm32f1xx_hal_dma.c ****   HAL_StatusTypeDef status = HAL_OK;
 384:Drivers/STM32F1xx_HAL_Driver/Src/stm32f1xx_hal_dma.c **** 
 385:Drivers/STM32F1xx_HAL_Driver/Src/stm32f1xx_hal_dma.c ****   /* Check the parameters */
 386:Drivers/STM32F1xx_HAL_Driver/Src/stm32f1xx_hal_dma.c ****   assert_param(IS_DMA_BUFFER_SIZE(DataLength));
 387:Drivers/STM32F1xx_HAL_Driver/Src/stm32f1xx_hal_dma.c **** 
 388:Drivers/STM32F1xx_HAL_Driver/Src/stm32f1xx_hal_dma.c ****   /* Process locked */
 389:Drivers/STM32F1xx_HAL_Driver/Src/stm32f1xx_hal_dma.c ****   __HAL_LOCK(hdma);
 390:Drivers/STM32F1xx_HAL_Driver/Src/stm32f1xx_hal_dma.c ****   
 391:Drivers/STM32F1xx_HAL_Driver/Src/stm32f1xx_hal_dma.c ****   if(HAL_DMA_STATE_READY == hdma->State)
 392:Drivers/STM32F1xx_HAL_Driver/Src/stm32f1xx_hal_dma.c ****   {
 393:Drivers/STM32F1xx_HAL_Driver/Src/stm32f1xx_hal_dma.c ****     /* Change DMA peripheral state */
 394:Drivers/STM32F1xx_HAL_Driver/Src/stm32f1xx_hal_dma.c ****     hdma->State = HAL_DMA_STATE_BUSY;
 395:Drivers/STM32F1xx_HAL_Driver/Src/stm32f1xx_hal_dma.c ****     hdma->ErrorCode = HAL_DMA_ERROR_NONE;
 396:Drivers/STM32F1xx_HAL_Driver/Src/stm32f1xx_hal_dma.c ****     
 397:Drivers/STM32F1xx_HAL_Driver/Src/stm32f1xx_hal_dma.c ****     /* Disable the peripheral */
 398:Drivers/STM32F1xx_HAL_Driver/Src/stm32f1xx_hal_dma.c ****     __HAL_DMA_DISABLE(hdma);
 399:Drivers/STM32F1xx_HAL_Driver/Src/stm32f1xx_hal_dma.c ****     
 400:Drivers/STM32F1xx_HAL_Driver/Src/stm32f1xx_hal_dma.c ****     /* Configure the source, destination address and the data length & clear flags*/
 401:Drivers/STM32F1xx_HAL_Driver/Src/stm32f1xx_hal_dma.c ****     DMA_SetConfig(hdma, SrcAddress, DstAddress, DataLength);
 402:Drivers/STM32F1xx_HAL_Driver/Src/stm32f1xx_hal_dma.c ****     
 403:Drivers/STM32F1xx_HAL_Driver/Src/stm32f1xx_hal_dma.c ****     /* Enable the transfer complete interrupt */
 404:Drivers/STM32F1xx_HAL_Driver/Src/stm32f1xx_hal_dma.c ****     /* Enable the transfer Error interrupt */
 405:Drivers/STM32F1xx_HAL_Driver/Src/stm32f1xx_hal_dma.c ****     if(NULL != hdma->XferHalfCpltCallback)
 406:Drivers/STM32F1xx_HAL_Driver/Src/stm32f1xx_hal_dma.c ****     {
 407:Drivers/STM32F1xx_HAL_Driver/Src/stm32f1xx_hal_dma.c ****       /* Enable the Half transfer complete interrupt as well */
 408:Drivers/STM32F1xx_HAL_Driver/Src/stm32f1xx_hal_dma.c ****       __HAL_DMA_ENABLE_IT(hdma, (DMA_IT_TC | DMA_IT_HT | DMA_IT_TE));
 409:Drivers/STM32F1xx_HAL_Driver/Src/stm32f1xx_hal_dma.c ****     }
 410:Drivers/STM32F1xx_HAL_Driver/Src/stm32f1xx_hal_dma.c ****     else
 411:Drivers/STM32F1xx_HAL_Driver/Src/stm32f1xx_hal_dma.c ****     {
 412:Drivers/STM32F1xx_HAL_Driver/Src/stm32f1xx_hal_dma.c ****       __HAL_DMA_DISABLE_IT(hdma, DMA_IT_HT);
 413:Drivers/STM32F1xx_HAL_Driver/Src/stm32f1xx_hal_dma.c ****       __HAL_DMA_ENABLE_IT(hdma, (DMA_IT_TC | DMA_IT_TE));
 414:Drivers/STM32F1xx_HAL_Driver/Src/stm32f1xx_hal_dma.c ****     }
 415:Drivers/STM32F1xx_HAL_Driver/Src/stm32f1xx_hal_dma.c ****     /* Enable the Peripheral */
 416:Drivers/STM32F1xx_HAL_Driver/Src/stm32f1xx_hal_dma.c ****     __HAL_DMA_ENABLE(hdma);
 417:Drivers/STM32F1xx_HAL_Driver/Src/stm32f1xx_hal_dma.c ****   }
 418:Drivers/STM32F1xx_HAL_Driver/Src/stm32f1xx_hal_dma.c ****   else
 419:Drivers/STM32F1xx_HAL_Driver/Src/stm32f1xx_hal_dma.c ****   {      
 420:Drivers/STM32F1xx_HAL_Driver/Src/stm32f1xx_hal_dma.c ****     /* Process Unlocked */
 421:Drivers/STM32F1xx_HAL_Driver/Src/stm32f1xx_hal_dma.c ****     __HAL_UNLOCK(hdma); 
 422:Drivers/STM32F1xx_HAL_Driver/Src/stm32f1xx_hal_dma.c **** 
 423:Drivers/STM32F1xx_HAL_Driver/Src/stm32f1xx_hal_dma.c ****     /* Remain BUSY */
 424:Drivers/STM32F1xx_HAL_Driver/Src/stm32f1xx_hal_dma.c ****     status = HAL_BUSY;
 425:Drivers/STM32F1xx_HAL_Driver/Src/stm32f1xx_hal_dma.c ****   }    
 426:Drivers/STM32F1xx_HAL_Driver/Src/stm32f1xx_hal_dma.c ****   return status;
 427:Drivers/STM32F1xx_HAL_Driver/Src/stm32f1xx_hal_dma.c **** }
 428:Drivers/STM32F1xx_HAL_Driver/Src/stm32f1xx_hal_dma.c **** 
 429:Drivers/STM32F1xx_HAL_Driver/Src/stm32f1xx_hal_dma.c **** /**
 430:Drivers/STM32F1xx_HAL_Driver/Src/stm32f1xx_hal_dma.c ****   * @brief  Abort the DMA Transfer.
 431:Drivers/STM32F1xx_HAL_Driver/Src/stm32f1xx_hal_dma.c ****   * @param  hdma: pointer to a DMA_HandleTypeDef structure that contains
ARM GAS  /tmp/cc4nKcdQ.s 			page 9


 432:Drivers/STM32F1xx_HAL_Driver/Src/stm32f1xx_hal_dma.c ****   *               the configuration information for the specified DMA Channel.
 433:Drivers/STM32F1xx_HAL_Driver/Src/stm32f1xx_hal_dma.c ****   * @retval HAL status
 434:Drivers/STM32F1xx_HAL_Driver/Src/stm32f1xx_hal_dma.c ****   */
 435:Drivers/STM32F1xx_HAL_Driver/Src/stm32f1xx_hal_dma.c **** HAL_StatusTypeDef HAL_DMA_Abort(DMA_HandleTypeDef *hdma)
 436:Drivers/STM32F1xx_HAL_Driver/Src/stm32f1xx_hal_dma.c **** {
 437:Drivers/STM32F1xx_HAL_Driver/Src/stm32f1xx_hal_dma.c ****   HAL_StatusTypeDef status = HAL_OK;
 438:Drivers/STM32F1xx_HAL_Driver/Src/stm32f1xx_hal_dma.c **** 
 439:Drivers/STM32F1xx_HAL_Driver/Src/stm32f1xx_hal_dma.c ****   /* Disable DMA IT */
 440:Drivers/STM32F1xx_HAL_Driver/Src/stm32f1xx_hal_dma.c ****   __HAL_DMA_DISABLE_IT(hdma, (DMA_IT_TC | DMA_IT_HT | DMA_IT_TE));
 441:Drivers/STM32F1xx_HAL_Driver/Src/stm32f1xx_hal_dma.c ****     
 442:Drivers/STM32F1xx_HAL_Driver/Src/stm32f1xx_hal_dma.c ****   /* Disable the channel */
 443:Drivers/STM32F1xx_HAL_Driver/Src/stm32f1xx_hal_dma.c ****   __HAL_DMA_DISABLE(hdma);
 444:Drivers/STM32F1xx_HAL_Driver/Src/stm32f1xx_hal_dma.c ****     
 445:Drivers/STM32F1xx_HAL_Driver/Src/stm32f1xx_hal_dma.c ****   /* Clear all flags */
 446:Drivers/STM32F1xx_HAL_Driver/Src/stm32f1xx_hal_dma.c ****   hdma->DmaBaseAddress->IFCR = (DMA_ISR_GIF1 << hdma->ChannelIndex);
 447:Drivers/STM32F1xx_HAL_Driver/Src/stm32f1xx_hal_dma.c **** 
 448:Drivers/STM32F1xx_HAL_Driver/Src/stm32f1xx_hal_dma.c ****   /* Change the DMA state */
 449:Drivers/STM32F1xx_HAL_Driver/Src/stm32f1xx_hal_dma.c ****   hdma->State = HAL_DMA_STATE_READY;
 450:Drivers/STM32F1xx_HAL_Driver/Src/stm32f1xx_hal_dma.c **** 
 451:Drivers/STM32F1xx_HAL_Driver/Src/stm32f1xx_hal_dma.c ****   /* Process Unlocked */
 452:Drivers/STM32F1xx_HAL_Driver/Src/stm32f1xx_hal_dma.c ****   __HAL_UNLOCK(hdma);      
 453:Drivers/STM32F1xx_HAL_Driver/Src/stm32f1xx_hal_dma.c ****   
 454:Drivers/STM32F1xx_HAL_Driver/Src/stm32f1xx_hal_dma.c ****   return status; 
 455:Drivers/STM32F1xx_HAL_Driver/Src/stm32f1xx_hal_dma.c **** }
 456:Drivers/STM32F1xx_HAL_Driver/Src/stm32f1xx_hal_dma.c **** 
 457:Drivers/STM32F1xx_HAL_Driver/Src/stm32f1xx_hal_dma.c **** /**
 458:Drivers/STM32F1xx_HAL_Driver/Src/stm32f1xx_hal_dma.c ****   * @brief  Aborts the DMA Transfer in Interrupt mode.
 459:Drivers/STM32F1xx_HAL_Driver/Src/stm32f1xx_hal_dma.c ****   * @param  hdma  : pointer to a DMA_HandleTypeDef structure that contains
 460:Drivers/STM32F1xx_HAL_Driver/Src/stm32f1xx_hal_dma.c ****   *                 the configuration information for the specified DMA Channel.
 461:Drivers/STM32F1xx_HAL_Driver/Src/stm32f1xx_hal_dma.c ****   * @retval HAL status
 462:Drivers/STM32F1xx_HAL_Driver/Src/stm32f1xx_hal_dma.c ****   */
 463:Drivers/STM32F1xx_HAL_Driver/Src/stm32f1xx_hal_dma.c **** HAL_StatusTypeDef HAL_DMA_Abort_IT(DMA_HandleTypeDef *hdma)
 464:Drivers/STM32F1xx_HAL_Driver/Src/stm32f1xx_hal_dma.c **** {  
 465:Drivers/STM32F1xx_HAL_Driver/Src/stm32f1xx_hal_dma.c ****   HAL_StatusTypeDef status = HAL_OK;
 466:Drivers/STM32F1xx_HAL_Driver/Src/stm32f1xx_hal_dma.c ****   
 467:Drivers/STM32F1xx_HAL_Driver/Src/stm32f1xx_hal_dma.c ****   if(HAL_DMA_STATE_BUSY != hdma->State)
 468:Drivers/STM32F1xx_HAL_Driver/Src/stm32f1xx_hal_dma.c ****   {
 469:Drivers/STM32F1xx_HAL_Driver/Src/stm32f1xx_hal_dma.c ****     /* no transfer ongoing */
 470:Drivers/STM32F1xx_HAL_Driver/Src/stm32f1xx_hal_dma.c ****     hdma->ErrorCode = HAL_DMA_ERROR_NO_XFER;
 471:Drivers/STM32F1xx_HAL_Driver/Src/stm32f1xx_hal_dma.c ****         
 472:Drivers/STM32F1xx_HAL_Driver/Src/stm32f1xx_hal_dma.c ****     status = HAL_ERROR;
 473:Drivers/STM32F1xx_HAL_Driver/Src/stm32f1xx_hal_dma.c ****   }
 474:Drivers/STM32F1xx_HAL_Driver/Src/stm32f1xx_hal_dma.c ****   else
 475:Drivers/STM32F1xx_HAL_Driver/Src/stm32f1xx_hal_dma.c ****   { 
 476:Drivers/STM32F1xx_HAL_Driver/Src/stm32f1xx_hal_dma.c ****     /* Disable DMA IT */
 477:Drivers/STM32F1xx_HAL_Driver/Src/stm32f1xx_hal_dma.c ****     __HAL_DMA_DISABLE_IT(hdma, (DMA_IT_TC | DMA_IT_HT | DMA_IT_TE));
 478:Drivers/STM32F1xx_HAL_Driver/Src/stm32f1xx_hal_dma.c **** 
 479:Drivers/STM32F1xx_HAL_Driver/Src/stm32f1xx_hal_dma.c ****     /* Disable the channel */
 480:Drivers/STM32F1xx_HAL_Driver/Src/stm32f1xx_hal_dma.c ****     __HAL_DMA_DISABLE(hdma);
 481:Drivers/STM32F1xx_HAL_Driver/Src/stm32f1xx_hal_dma.c **** 
 482:Drivers/STM32F1xx_HAL_Driver/Src/stm32f1xx_hal_dma.c ****     /* Clear all flags */
 483:Drivers/STM32F1xx_HAL_Driver/Src/stm32f1xx_hal_dma.c ****     __HAL_DMA_CLEAR_FLAG(hdma, __HAL_DMA_GET_GI_FLAG_INDEX(hdma));
 484:Drivers/STM32F1xx_HAL_Driver/Src/stm32f1xx_hal_dma.c **** 
 485:Drivers/STM32F1xx_HAL_Driver/Src/stm32f1xx_hal_dma.c ****     /* Change the DMA state */
 486:Drivers/STM32F1xx_HAL_Driver/Src/stm32f1xx_hal_dma.c ****     hdma->State = HAL_DMA_STATE_READY;
 487:Drivers/STM32F1xx_HAL_Driver/Src/stm32f1xx_hal_dma.c **** 
 488:Drivers/STM32F1xx_HAL_Driver/Src/stm32f1xx_hal_dma.c ****     /* Process Unlocked */
ARM GAS  /tmp/cc4nKcdQ.s 			page 10


 489:Drivers/STM32F1xx_HAL_Driver/Src/stm32f1xx_hal_dma.c ****     __HAL_UNLOCK(hdma);
 490:Drivers/STM32F1xx_HAL_Driver/Src/stm32f1xx_hal_dma.c **** 
 491:Drivers/STM32F1xx_HAL_Driver/Src/stm32f1xx_hal_dma.c ****     /* Call User Abort callback */
 492:Drivers/STM32F1xx_HAL_Driver/Src/stm32f1xx_hal_dma.c ****     if(hdma->XferAbortCallback != NULL)
 493:Drivers/STM32F1xx_HAL_Driver/Src/stm32f1xx_hal_dma.c ****     {
 494:Drivers/STM32F1xx_HAL_Driver/Src/stm32f1xx_hal_dma.c ****       hdma->XferAbortCallback(hdma);
 495:Drivers/STM32F1xx_HAL_Driver/Src/stm32f1xx_hal_dma.c ****     } 
 496:Drivers/STM32F1xx_HAL_Driver/Src/stm32f1xx_hal_dma.c ****   }
 497:Drivers/STM32F1xx_HAL_Driver/Src/stm32f1xx_hal_dma.c ****   return status;
 498:Drivers/STM32F1xx_HAL_Driver/Src/stm32f1xx_hal_dma.c **** }
 499:Drivers/STM32F1xx_HAL_Driver/Src/stm32f1xx_hal_dma.c **** 
 500:Drivers/STM32F1xx_HAL_Driver/Src/stm32f1xx_hal_dma.c **** /**
 501:Drivers/STM32F1xx_HAL_Driver/Src/stm32f1xx_hal_dma.c ****   * @brief  Polling for transfer complete.
 502:Drivers/STM32F1xx_HAL_Driver/Src/stm32f1xx_hal_dma.c ****   * @param  hdma:    pointer to a DMA_HandleTypeDef structure that contains
 503:Drivers/STM32F1xx_HAL_Driver/Src/stm32f1xx_hal_dma.c ****   *                  the configuration information for the specified DMA Channel.
 504:Drivers/STM32F1xx_HAL_Driver/Src/stm32f1xx_hal_dma.c ****   * @param  CompleteLevel: Specifies the DMA level complete.
 505:Drivers/STM32F1xx_HAL_Driver/Src/stm32f1xx_hal_dma.c ****   * @param  Timeout:       Timeout duration.
 506:Drivers/STM32F1xx_HAL_Driver/Src/stm32f1xx_hal_dma.c ****   * @retval HAL status
 507:Drivers/STM32F1xx_HAL_Driver/Src/stm32f1xx_hal_dma.c ****   */
 508:Drivers/STM32F1xx_HAL_Driver/Src/stm32f1xx_hal_dma.c **** HAL_StatusTypeDef HAL_DMA_PollForTransfer(DMA_HandleTypeDef *hdma, uint32_t CompleteLevel, uint32_t
 509:Drivers/STM32F1xx_HAL_Driver/Src/stm32f1xx_hal_dma.c **** {
 510:Drivers/STM32F1xx_HAL_Driver/Src/stm32f1xx_hal_dma.c ****   uint32_t temp;
 511:Drivers/STM32F1xx_HAL_Driver/Src/stm32f1xx_hal_dma.c ****   uint32_t tickstart = 0U;
 512:Drivers/STM32F1xx_HAL_Driver/Src/stm32f1xx_hal_dma.c **** 
 513:Drivers/STM32F1xx_HAL_Driver/Src/stm32f1xx_hal_dma.c ****   if(HAL_DMA_STATE_BUSY != hdma->State)
 514:Drivers/STM32F1xx_HAL_Driver/Src/stm32f1xx_hal_dma.c ****   {
 515:Drivers/STM32F1xx_HAL_Driver/Src/stm32f1xx_hal_dma.c ****     /* no transfer ongoing */
 516:Drivers/STM32F1xx_HAL_Driver/Src/stm32f1xx_hal_dma.c ****     hdma->ErrorCode = HAL_DMA_ERROR_NO_XFER;
 517:Drivers/STM32F1xx_HAL_Driver/Src/stm32f1xx_hal_dma.c ****     __HAL_UNLOCK(hdma);
 518:Drivers/STM32F1xx_HAL_Driver/Src/stm32f1xx_hal_dma.c ****     return HAL_ERROR;
 519:Drivers/STM32F1xx_HAL_Driver/Src/stm32f1xx_hal_dma.c ****   }
 520:Drivers/STM32F1xx_HAL_Driver/Src/stm32f1xx_hal_dma.c **** 
 521:Drivers/STM32F1xx_HAL_Driver/Src/stm32f1xx_hal_dma.c ****   /* Polling mode not supported in circular mode */
 522:Drivers/STM32F1xx_HAL_Driver/Src/stm32f1xx_hal_dma.c ****   if (RESET != (hdma->Instance->CCR & DMA_CCR_CIRC))
 523:Drivers/STM32F1xx_HAL_Driver/Src/stm32f1xx_hal_dma.c ****   {
 524:Drivers/STM32F1xx_HAL_Driver/Src/stm32f1xx_hal_dma.c ****     hdma->ErrorCode = HAL_DMA_ERROR_NOT_SUPPORTED;
 525:Drivers/STM32F1xx_HAL_Driver/Src/stm32f1xx_hal_dma.c ****     return HAL_ERROR;
 526:Drivers/STM32F1xx_HAL_Driver/Src/stm32f1xx_hal_dma.c ****   }
 527:Drivers/STM32F1xx_HAL_Driver/Src/stm32f1xx_hal_dma.c ****   
 528:Drivers/STM32F1xx_HAL_Driver/Src/stm32f1xx_hal_dma.c ****   /* Get the level transfer complete flag */
 529:Drivers/STM32F1xx_HAL_Driver/Src/stm32f1xx_hal_dma.c ****   if(CompleteLevel == HAL_DMA_FULL_TRANSFER)
 530:Drivers/STM32F1xx_HAL_Driver/Src/stm32f1xx_hal_dma.c ****   {
 531:Drivers/STM32F1xx_HAL_Driver/Src/stm32f1xx_hal_dma.c ****     /* Transfer Complete flag */
 532:Drivers/STM32F1xx_HAL_Driver/Src/stm32f1xx_hal_dma.c ****     temp = __HAL_DMA_GET_TC_FLAG_INDEX(hdma);
 533:Drivers/STM32F1xx_HAL_Driver/Src/stm32f1xx_hal_dma.c ****   }
 534:Drivers/STM32F1xx_HAL_Driver/Src/stm32f1xx_hal_dma.c ****   else
 535:Drivers/STM32F1xx_HAL_Driver/Src/stm32f1xx_hal_dma.c ****   {
 536:Drivers/STM32F1xx_HAL_Driver/Src/stm32f1xx_hal_dma.c ****     /* Half Transfer Complete flag */
 537:Drivers/STM32F1xx_HAL_Driver/Src/stm32f1xx_hal_dma.c ****     temp = __HAL_DMA_GET_HT_FLAG_INDEX(hdma);
 538:Drivers/STM32F1xx_HAL_Driver/Src/stm32f1xx_hal_dma.c ****   }
 539:Drivers/STM32F1xx_HAL_Driver/Src/stm32f1xx_hal_dma.c **** 
 540:Drivers/STM32F1xx_HAL_Driver/Src/stm32f1xx_hal_dma.c ****   /* Get tick */
 541:Drivers/STM32F1xx_HAL_Driver/Src/stm32f1xx_hal_dma.c ****   tickstart = HAL_GetTick();
 542:Drivers/STM32F1xx_HAL_Driver/Src/stm32f1xx_hal_dma.c **** 
 543:Drivers/STM32F1xx_HAL_Driver/Src/stm32f1xx_hal_dma.c ****   while(__HAL_DMA_GET_FLAG(hdma, temp) == RESET)
 544:Drivers/STM32F1xx_HAL_Driver/Src/stm32f1xx_hal_dma.c ****   {
 545:Drivers/STM32F1xx_HAL_Driver/Src/stm32f1xx_hal_dma.c ****     if((__HAL_DMA_GET_FLAG(hdma, __HAL_DMA_GET_TE_FLAG_INDEX(hdma)) != RESET))
ARM GAS  /tmp/cc4nKcdQ.s 			page 11


 546:Drivers/STM32F1xx_HAL_Driver/Src/stm32f1xx_hal_dma.c ****     {
 547:Drivers/STM32F1xx_HAL_Driver/Src/stm32f1xx_hal_dma.c ****       /* When a DMA transfer error occurs */
 548:Drivers/STM32F1xx_HAL_Driver/Src/stm32f1xx_hal_dma.c ****       /* A hardware clear of its EN bits is performed */
 549:Drivers/STM32F1xx_HAL_Driver/Src/stm32f1xx_hal_dma.c ****       /* Clear all flags */
 550:Drivers/STM32F1xx_HAL_Driver/Src/stm32f1xx_hal_dma.c ****       hdma->DmaBaseAddress->IFCR = (DMA_ISR_GIF1 << hdma->ChannelIndex);
 551:Drivers/STM32F1xx_HAL_Driver/Src/stm32f1xx_hal_dma.c **** 
 552:Drivers/STM32F1xx_HAL_Driver/Src/stm32f1xx_hal_dma.c ****       /* Update error code */
 553:Drivers/STM32F1xx_HAL_Driver/Src/stm32f1xx_hal_dma.c ****       SET_BIT(hdma->ErrorCode, HAL_DMA_ERROR_TE);
 554:Drivers/STM32F1xx_HAL_Driver/Src/stm32f1xx_hal_dma.c **** 
 555:Drivers/STM32F1xx_HAL_Driver/Src/stm32f1xx_hal_dma.c ****       /* Change the DMA state */
 556:Drivers/STM32F1xx_HAL_Driver/Src/stm32f1xx_hal_dma.c ****       hdma->State= HAL_DMA_STATE_READY;
 557:Drivers/STM32F1xx_HAL_Driver/Src/stm32f1xx_hal_dma.c **** 
 558:Drivers/STM32F1xx_HAL_Driver/Src/stm32f1xx_hal_dma.c ****       /* Process Unlocked */
 559:Drivers/STM32F1xx_HAL_Driver/Src/stm32f1xx_hal_dma.c ****       __HAL_UNLOCK(hdma);
 560:Drivers/STM32F1xx_HAL_Driver/Src/stm32f1xx_hal_dma.c **** 
 561:Drivers/STM32F1xx_HAL_Driver/Src/stm32f1xx_hal_dma.c ****       return HAL_ERROR;
 562:Drivers/STM32F1xx_HAL_Driver/Src/stm32f1xx_hal_dma.c ****     }
 563:Drivers/STM32F1xx_HAL_Driver/Src/stm32f1xx_hal_dma.c ****     /* Check for the Timeout */
 564:Drivers/STM32F1xx_HAL_Driver/Src/stm32f1xx_hal_dma.c ****     if(Timeout != HAL_MAX_DELAY)
 565:Drivers/STM32F1xx_HAL_Driver/Src/stm32f1xx_hal_dma.c ****     {
 566:Drivers/STM32F1xx_HAL_Driver/Src/stm32f1xx_hal_dma.c ****       if((Timeout == 0U) || ((HAL_GetTick() - tickstart) > Timeout))
 567:Drivers/STM32F1xx_HAL_Driver/Src/stm32f1xx_hal_dma.c ****       {
 568:Drivers/STM32F1xx_HAL_Driver/Src/stm32f1xx_hal_dma.c ****         /* Update error code */
 569:Drivers/STM32F1xx_HAL_Driver/Src/stm32f1xx_hal_dma.c ****         SET_BIT(hdma->ErrorCode, HAL_DMA_ERROR_TIMEOUT);
 570:Drivers/STM32F1xx_HAL_Driver/Src/stm32f1xx_hal_dma.c **** 
 571:Drivers/STM32F1xx_HAL_Driver/Src/stm32f1xx_hal_dma.c ****         /* Change the DMA state */
 572:Drivers/STM32F1xx_HAL_Driver/Src/stm32f1xx_hal_dma.c ****         hdma->State = HAL_DMA_STATE_READY;
 573:Drivers/STM32F1xx_HAL_Driver/Src/stm32f1xx_hal_dma.c **** 
 574:Drivers/STM32F1xx_HAL_Driver/Src/stm32f1xx_hal_dma.c ****         /* Process Unlocked */
 575:Drivers/STM32F1xx_HAL_Driver/Src/stm32f1xx_hal_dma.c ****         __HAL_UNLOCK(hdma);
 576:Drivers/STM32F1xx_HAL_Driver/Src/stm32f1xx_hal_dma.c **** 
 577:Drivers/STM32F1xx_HAL_Driver/Src/stm32f1xx_hal_dma.c ****         return HAL_ERROR;
 578:Drivers/STM32F1xx_HAL_Driver/Src/stm32f1xx_hal_dma.c ****       }
 579:Drivers/STM32F1xx_HAL_Driver/Src/stm32f1xx_hal_dma.c ****     }
 580:Drivers/STM32F1xx_HAL_Driver/Src/stm32f1xx_hal_dma.c ****   }
 581:Drivers/STM32F1xx_HAL_Driver/Src/stm32f1xx_hal_dma.c **** 
 582:Drivers/STM32F1xx_HAL_Driver/Src/stm32f1xx_hal_dma.c ****   if(CompleteLevel == HAL_DMA_FULL_TRANSFER)
 583:Drivers/STM32F1xx_HAL_Driver/Src/stm32f1xx_hal_dma.c ****   {
 584:Drivers/STM32F1xx_HAL_Driver/Src/stm32f1xx_hal_dma.c ****     /* Clear the transfer complete flag */
 585:Drivers/STM32F1xx_HAL_Driver/Src/stm32f1xx_hal_dma.c ****     __HAL_DMA_CLEAR_FLAG(hdma, __HAL_DMA_GET_TC_FLAG_INDEX(hdma));
 586:Drivers/STM32F1xx_HAL_Driver/Src/stm32f1xx_hal_dma.c **** 
 587:Drivers/STM32F1xx_HAL_Driver/Src/stm32f1xx_hal_dma.c ****     /* The selected Channelx EN bit is cleared (DMA is disabled and
 588:Drivers/STM32F1xx_HAL_Driver/Src/stm32f1xx_hal_dma.c ****     all transfers are complete) */
 589:Drivers/STM32F1xx_HAL_Driver/Src/stm32f1xx_hal_dma.c ****     hdma->State = HAL_DMA_STATE_READY;
 590:Drivers/STM32F1xx_HAL_Driver/Src/stm32f1xx_hal_dma.c ****   }
 591:Drivers/STM32F1xx_HAL_Driver/Src/stm32f1xx_hal_dma.c ****   else
 592:Drivers/STM32F1xx_HAL_Driver/Src/stm32f1xx_hal_dma.c ****   {
 593:Drivers/STM32F1xx_HAL_Driver/Src/stm32f1xx_hal_dma.c ****     /* Clear the half transfer complete flag */
 594:Drivers/STM32F1xx_HAL_Driver/Src/stm32f1xx_hal_dma.c ****     __HAL_DMA_CLEAR_FLAG(hdma, __HAL_DMA_GET_HT_FLAG_INDEX(hdma));
 595:Drivers/STM32F1xx_HAL_Driver/Src/stm32f1xx_hal_dma.c ****   }
 596:Drivers/STM32F1xx_HAL_Driver/Src/stm32f1xx_hal_dma.c ****   
 597:Drivers/STM32F1xx_HAL_Driver/Src/stm32f1xx_hal_dma.c ****   /* Process unlocked */
 598:Drivers/STM32F1xx_HAL_Driver/Src/stm32f1xx_hal_dma.c ****   __HAL_UNLOCK(hdma);
 599:Drivers/STM32F1xx_HAL_Driver/Src/stm32f1xx_hal_dma.c **** 
 600:Drivers/STM32F1xx_HAL_Driver/Src/stm32f1xx_hal_dma.c ****   return HAL_OK;
 601:Drivers/STM32F1xx_HAL_Driver/Src/stm32f1xx_hal_dma.c **** }
 602:Drivers/STM32F1xx_HAL_Driver/Src/stm32f1xx_hal_dma.c **** 
ARM GAS  /tmp/cc4nKcdQ.s 			page 12


 603:Drivers/STM32F1xx_HAL_Driver/Src/stm32f1xx_hal_dma.c **** /**
 604:Drivers/STM32F1xx_HAL_Driver/Src/stm32f1xx_hal_dma.c ****   * @brief  Handles DMA interrupt request.
 605:Drivers/STM32F1xx_HAL_Driver/Src/stm32f1xx_hal_dma.c ****   * @param  hdma: pointer to a DMA_HandleTypeDef structure that contains
 606:Drivers/STM32F1xx_HAL_Driver/Src/stm32f1xx_hal_dma.c ****   *               the configuration information for the specified DMA Channel.  
 607:Drivers/STM32F1xx_HAL_Driver/Src/stm32f1xx_hal_dma.c ****   * @retval None
 608:Drivers/STM32F1xx_HAL_Driver/Src/stm32f1xx_hal_dma.c ****   */
 609:Drivers/STM32F1xx_HAL_Driver/Src/stm32f1xx_hal_dma.c **** void HAL_DMA_IRQHandler(DMA_HandleTypeDef *hdma)
 610:Drivers/STM32F1xx_HAL_Driver/Src/stm32f1xx_hal_dma.c **** {
 611:Drivers/STM32F1xx_HAL_Driver/Src/stm32f1xx_hal_dma.c ****   uint32_t flag_it = hdma->DmaBaseAddress->ISR;
 612:Drivers/STM32F1xx_HAL_Driver/Src/stm32f1xx_hal_dma.c ****   uint32_t source_it = hdma->Instance->CCR;
 613:Drivers/STM32F1xx_HAL_Driver/Src/stm32f1xx_hal_dma.c ****   
 614:Drivers/STM32F1xx_HAL_Driver/Src/stm32f1xx_hal_dma.c ****   /* Half Transfer Complete Interrupt management ******************************/
 615:Drivers/STM32F1xx_HAL_Driver/Src/stm32f1xx_hal_dma.c ****   if (((flag_it & (DMA_FLAG_HT1 << hdma->ChannelIndex)) != RESET) && ((source_it & DMA_IT_HT) != RE
 616:Drivers/STM32F1xx_HAL_Driver/Src/stm32f1xx_hal_dma.c ****   {
 617:Drivers/STM32F1xx_HAL_Driver/Src/stm32f1xx_hal_dma.c ****     /* Disable the half transfer interrupt if the DMA mode is not CIRCULAR */
 618:Drivers/STM32F1xx_HAL_Driver/Src/stm32f1xx_hal_dma.c ****     if((hdma->Instance->CCR & DMA_CCR_CIRC) == 0U)
 619:Drivers/STM32F1xx_HAL_Driver/Src/stm32f1xx_hal_dma.c ****     {
 620:Drivers/STM32F1xx_HAL_Driver/Src/stm32f1xx_hal_dma.c ****       /* Disable the half transfer interrupt */
 621:Drivers/STM32F1xx_HAL_Driver/Src/stm32f1xx_hal_dma.c ****       __HAL_DMA_DISABLE_IT(hdma, DMA_IT_HT);
 622:Drivers/STM32F1xx_HAL_Driver/Src/stm32f1xx_hal_dma.c ****     }
 623:Drivers/STM32F1xx_HAL_Driver/Src/stm32f1xx_hal_dma.c ****     /* Clear the half transfer complete flag */
 624:Drivers/STM32F1xx_HAL_Driver/Src/stm32f1xx_hal_dma.c ****     __HAL_DMA_CLEAR_FLAG(hdma, __HAL_DMA_GET_HT_FLAG_INDEX(hdma));
 625:Drivers/STM32F1xx_HAL_Driver/Src/stm32f1xx_hal_dma.c **** 
 626:Drivers/STM32F1xx_HAL_Driver/Src/stm32f1xx_hal_dma.c ****     /* DMA peripheral state is not updated in Half Transfer */
 627:Drivers/STM32F1xx_HAL_Driver/Src/stm32f1xx_hal_dma.c ****     /* but in Transfer Complete case */
 628:Drivers/STM32F1xx_HAL_Driver/Src/stm32f1xx_hal_dma.c **** 
 629:Drivers/STM32F1xx_HAL_Driver/Src/stm32f1xx_hal_dma.c ****     if(hdma->XferHalfCpltCallback != NULL)
 630:Drivers/STM32F1xx_HAL_Driver/Src/stm32f1xx_hal_dma.c ****     {
 631:Drivers/STM32F1xx_HAL_Driver/Src/stm32f1xx_hal_dma.c ****       /* Half transfer callback */
 632:Drivers/STM32F1xx_HAL_Driver/Src/stm32f1xx_hal_dma.c ****       hdma->XferHalfCpltCallback(hdma);
 633:Drivers/STM32F1xx_HAL_Driver/Src/stm32f1xx_hal_dma.c ****     }
 634:Drivers/STM32F1xx_HAL_Driver/Src/stm32f1xx_hal_dma.c ****   }
 635:Drivers/STM32F1xx_HAL_Driver/Src/stm32f1xx_hal_dma.c **** 
 636:Drivers/STM32F1xx_HAL_Driver/Src/stm32f1xx_hal_dma.c ****   /* Transfer Complete Interrupt management ***********************************/
 637:Drivers/STM32F1xx_HAL_Driver/Src/stm32f1xx_hal_dma.c ****   else if (((flag_it & (DMA_FLAG_TC1 << hdma->ChannelIndex)) != RESET) && ((source_it & DMA_IT_TC) 
 638:Drivers/STM32F1xx_HAL_Driver/Src/stm32f1xx_hal_dma.c ****   {
 639:Drivers/STM32F1xx_HAL_Driver/Src/stm32f1xx_hal_dma.c ****     if((hdma->Instance->CCR & DMA_CCR_CIRC) == 0U)
 640:Drivers/STM32F1xx_HAL_Driver/Src/stm32f1xx_hal_dma.c ****     {
 641:Drivers/STM32F1xx_HAL_Driver/Src/stm32f1xx_hal_dma.c ****       /* Disable the transfer complete and error interrupt */
 642:Drivers/STM32F1xx_HAL_Driver/Src/stm32f1xx_hal_dma.c ****       __HAL_DMA_DISABLE_IT(hdma, DMA_IT_TE | DMA_IT_TC);  
 643:Drivers/STM32F1xx_HAL_Driver/Src/stm32f1xx_hal_dma.c **** 
 644:Drivers/STM32F1xx_HAL_Driver/Src/stm32f1xx_hal_dma.c ****       /* Change the DMA state */
 645:Drivers/STM32F1xx_HAL_Driver/Src/stm32f1xx_hal_dma.c ****       hdma->State = HAL_DMA_STATE_READY;
 646:Drivers/STM32F1xx_HAL_Driver/Src/stm32f1xx_hal_dma.c ****     }
 647:Drivers/STM32F1xx_HAL_Driver/Src/stm32f1xx_hal_dma.c ****     /* Clear the transfer complete flag */
 648:Drivers/STM32F1xx_HAL_Driver/Src/stm32f1xx_hal_dma.c ****       __HAL_DMA_CLEAR_FLAG(hdma, __HAL_DMA_GET_TC_FLAG_INDEX(hdma));
 649:Drivers/STM32F1xx_HAL_Driver/Src/stm32f1xx_hal_dma.c **** 
 650:Drivers/STM32F1xx_HAL_Driver/Src/stm32f1xx_hal_dma.c ****     /* Process Unlocked */
 651:Drivers/STM32F1xx_HAL_Driver/Src/stm32f1xx_hal_dma.c ****     __HAL_UNLOCK(hdma);
 652:Drivers/STM32F1xx_HAL_Driver/Src/stm32f1xx_hal_dma.c **** 
 653:Drivers/STM32F1xx_HAL_Driver/Src/stm32f1xx_hal_dma.c ****     if(hdma->XferCpltCallback != NULL)
 654:Drivers/STM32F1xx_HAL_Driver/Src/stm32f1xx_hal_dma.c ****     {
 655:Drivers/STM32F1xx_HAL_Driver/Src/stm32f1xx_hal_dma.c ****       /* Transfer complete callback */
 656:Drivers/STM32F1xx_HAL_Driver/Src/stm32f1xx_hal_dma.c ****       hdma->XferCpltCallback(hdma);
 657:Drivers/STM32F1xx_HAL_Driver/Src/stm32f1xx_hal_dma.c ****     }
 658:Drivers/STM32F1xx_HAL_Driver/Src/stm32f1xx_hal_dma.c ****   }
 659:Drivers/STM32F1xx_HAL_Driver/Src/stm32f1xx_hal_dma.c **** 
ARM GAS  /tmp/cc4nKcdQ.s 			page 13


 660:Drivers/STM32F1xx_HAL_Driver/Src/stm32f1xx_hal_dma.c ****   /* Transfer Error Interrupt management **************************************/
 661:Drivers/STM32F1xx_HAL_Driver/Src/stm32f1xx_hal_dma.c ****   else if (( RESET != (flag_it & (DMA_FLAG_TE1 << hdma->ChannelIndex))) && (RESET != (source_it & D
 662:Drivers/STM32F1xx_HAL_Driver/Src/stm32f1xx_hal_dma.c ****   {
 663:Drivers/STM32F1xx_HAL_Driver/Src/stm32f1xx_hal_dma.c ****     /* When a DMA transfer error occurs */
 664:Drivers/STM32F1xx_HAL_Driver/Src/stm32f1xx_hal_dma.c ****     /* A hardware clear of its EN bits is performed */
 665:Drivers/STM32F1xx_HAL_Driver/Src/stm32f1xx_hal_dma.c ****     /* Disable ALL DMA IT */
 666:Drivers/STM32F1xx_HAL_Driver/Src/stm32f1xx_hal_dma.c ****     __HAL_DMA_DISABLE_IT(hdma, (DMA_IT_TC | DMA_IT_HT | DMA_IT_TE));
 667:Drivers/STM32F1xx_HAL_Driver/Src/stm32f1xx_hal_dma.c **** 
 668:Drivers/STM32F1xx_HAL_Driver/Src/stm32f1xx_hal_dma.c ****     /* Clear all flags */
 669:Drivers/STM32F1xx_HAL_Driver/Src/stm32f1xx_hal_dma.c ****     hdma->DmaBaseAddress->IFCR = (DMA_ISR_GIF1 << hdma->ChannelIndex);
 670:Drivers/STM32F1xx_HAL_Driver/Src/stm32f1xx_hal_dma.c **** 
 671:Drivers/STM32F1xx_HAL_Driver/Src/stm32f1xx_hal_dma.c ****     /* Update error code */
 672:Drivers/STM32F1xx_HAL_Driver/Src/stm32f1xx_hal_dma.c ****     hdma->ErrorCode = HAL_DMA_ERROR_TE;
 673:Drivers/STM32F1xx_HAL_Driver/Src/stm32f1xx_hal_dma.c **** 
 674:Drivers/STM32F1xx_HAL_Driver/Src/stm32f1xx_hal_dma.c ****     /* Change the DMA state */
 675:Drivers/STM32F1xx_HAL_Driver/Src/stm32f1xx_hal_dma.c ****     hdma->State = HAL_DMA_STATE_READY;
 676:Drivers/STM32F1xx_HAL_Driver/Src/stm32f1xx_hal_dma.c **** 
 677:Drivers/STM32F1xx_HAL_Driver/Src/stm32f1xx_hal_dma.c ****     /* Process Unlocked */
 678:Drivers/STM32F1xx_HAL_Driver/Src/stm32f1xx_hal_dma.c ****     __HAL_UNLOCK(hdma);
 679:Drivers/STM32F1xx_HAL_Driver/Src/stm32f1xx_hal_dma.c **** 
 680:Drivers/STM32F1xx_HAL_Driver/Src/stm32f1xx_hal_dma.c ****     if (hdma->XferErrorCallback != NULL)
 681:Drivers/STM32F1xx_HAL_Driver/Src/stm32f1xx_hal_dma.c ****     {
 682:Drivers/STM32F1xx_HAL_Driver/Src/stm32f1xx_hal_dma.c ****       /* Transfer error callback */
 683:Drivers/STM32F1xx_HAL_Driver/Src/stm32f1xx_hal_dma.c ****       hdma->XferErrorCallback(hdma);
 684:Drivers/STM32F1xx_HAL_Driver/Src/stm32f1xx_hal_dma.c ****     }
 685:Drivers/STM32F1xx_HAL_Driver/Src/stm32f1xx_hal_dma.c ****   }
 686:Drivers/STM32F1xx_HAL_Driver/Src/stm32f1xx_hal_dma.c ****   return;
 687:Drivers/STM32F1xx_HAL_Driver/Src/stm32f1xx_hal_dma.c **** }
 688:Drivers/STM32F1xx_HAL_Driver/Src/stm32f1xx_hal_dma.c **** 
 689:Drivers/STM32F1xx_HAL_Driver/Src/stm32f1xx_hal_dma.c **** /**
 690:Drivers/STM32F1xx_HAL_Driver/Src/stm32f1xx_hal_dma.c ****   * @brief Register callbacks
 691:Drivers/STM32F1xx_HAL_Driver/Src/stm32f1xx_hal_dma.c ****   * @param hdma: pointer to a DMA_HandleTypeDef structure that contains
 692:Drivers/STM32F1xx_HAL_Driver/Src/stm32f1xx_hal_dma.c ****   *              the configuration information for the specified DMA Channel.
 693:Drivers/STM32F1xx_HAL_Driver/Src/stm32f1xx_hal_dma.c ****   * @param CallbackID: User Callback identifer
 694:Drivers/STM32F1xx_HAL_Driver/Src/stm32f1xx_hal_dma.c ****   *                    a HAL_DMA_CallbackIDTypeDef ENUM as parameter.
 695:Drivers/STM32F1xx_HAL_Driver/Src/stm32f1xx_hal_dma.c ****   * @param pCallback: pointer to private callbacsk function which has pointer to 
 696:Drivers/STM32F1xx_HAL_Driver/Src/stm32f1xx_hal_dma.c ****   *                   a DMA_HandleTypeDef structure as parameter.
 697:Drivers/STM32F1xx_HAL_Driver/Src/stm32f1xx_hal_dma.c ****   * @retval HAL status
 698:Drivers/STM32F1xx_HAL_Driver/Src/stm32f1xx_hal_dma.c ****   */                          
 699:Drivers/STM32F1xx_HAL_Driver/Src/stm32f1xx_hal_dma.c **** HAL_StatusTypeDef HAL_DMA_RegisterCallback(DMA_HandleTypeDef *hdma, HAL_DMA_CallbackIDTypeDef Callb
 700:Drivers/STM32F1xx_HAL_Driver/Src/stm32f1xx_hal_dma.c **** {
 701:Drivers/STM32F1xx_HAL_Driver/Src/stm32f1xx_hal_dma.c ****   HAL_StatusTypeDef status = HAL_OK;
 702:Drivers/STM32F1xx_HAL_Driver/Src/stm32f1xx_hal_dma.c ****   
 703:Drivers/STM32F1xx_HAL_Driver/Src/stm32f1xx_hal_dma.c ****   /* Process locked */
 704:Drivers/STM32F1xx_HAL_Driver/Src/stm32f1xx_hal_dma.c ****   __HAL_LOCK(hdma);
 705:Drivers/STM32F1xx_HAL_Driver/Src/stm32f1xx_hal_dma.c ****   
 706:Drivers/STM32F1xx_HAL_Driver/Src/stm32f1xx_hal_dma.c ****   if(HAL_DMA_STATE_READY == hdma->State)
 707:Drivers/STM32F1xx_HAL_Driver/Src/stm32f1xx_hal_dma.c ****   {
 708:Drivers/STM32F1xx_HAL_Driver/Src/stm32f1xx_hal_dma.c ****     switch (CallbackID)
 709:Drivers/STM32F1xx_HAL_Driver/Src/stm32f1xx_hal_dma.c ****     {
 710:Drivers/STM32F1xx_HAL_Driver/Src/stm32f1xx_hal_dma.c ****     case  HAL_DMA_XFER_CPLT_CB_ID:
 711:Drivers/STM32F1xx_HAL_Driver/Src/stm32f1xx_hal_dma.c ****       hdma->XferCpltCallback = pCallback;
 712:Drivers/STM32F1xx_HAL_Driver/Src/stm32f1xx_hal_dma.c ****       break;
 713:Drivers/STM32F1xx_HAL_Driver/Src/stm32f1xx_hal_dma.c ****       
 714:Drivers/STM32F1xx_HAL_Driver/Src/stm32f1xx_hal_dma.c ****     case  HAL_DMA_XFER_HALFCPLT_CB_ID:
 715:Drivers/STM32F1xx_HAL_Driver/Src/stm32f1xx_hal_dma.c ****       hdma->XferHalfCpltCallback = pCallback;
 716:Drivers/STM32F1xx_HAL_Driver/Src/stm32f1xx_hal_dma.c ****       break;         
ARM GAS  /tmp/cc4nKcdQ.s 			page 14


 717:Drivers/STM32F1xx_HAL_Driver/Src/stm32f1xx_hal_dma.c **** 
 718:Drivers/STM32F1xx_HAL_Driver/Src/stm32f1xx_hal_dma.c ****     case  HAL_DMA_XFER_ERROR_CB_ID:
 719:Drivers/STM32F1xx_HAL_Driver/Src/stm32f1xx_hal_dma.c ****       hdma->XferErrorCallback = pCallback;
 720:Drivers/STM32F1xx_HAL_Driver/Src/stm32f1xx_hal_dma.c ****       break;         
 721:Drivers/STM32F1xx_HAL_Driver/Src/stm32f1xx_hal_dma.c ****       
 722:Drivers/STM32F1xx_HAL_Driver/Src/stm32f1xx_hal_dma.c ****     case  HAL_DMA_XFER_ABORT_CB_ID:
 723:Drivers/STM32F1xx_HAL_Driver/Src/stm32f1xx_hal_dma.c ****       hdma->XferAbortCallback = pCallback;
 724:Drivers/STM32F1xx_HAL_Driver/Src/stm32f1xx_hal_dma.c ****       break; 
 725:Drivers/STM32F1xx_HAL_Driver/Src/stm32f1xx_hal_dma.c ****       
 726:Drivers/STM32F1xx_HAL_Driver/Src/stm32f1xx_hal_dma.c ****     default:
 727:Drivers/STM32F1xx_HAL_Driver/Src/stm32f1xx_hal_dma.c ****       status = HAL_ERROR;
 728:Drivers/STM32F1xx_HAL_Driver/Src/stm32f1xx_hal_dma.c ****       break;                                                            
 729:Drivers/STM32F1xx_HAL_Driver/Src/stm32f1xx_hal_dma.c ****     }
 730:Drivers/STM32F1xx_HAL_Driver/Src/stm32f1xx_hal_dma.c ****   }
 731:Drivers/STM32F1xx_HAL_Driver/Src/stm32f1xx_hal_dma.c ****   else
 732:Drivers/STM32F1xx_HAL_Driver/Src/stm32f1xx_hal_dma.c ****   {
 733:Drivers/STM32F1xx_HAL_Driver/Src/stm32f1xx_hal_dma.c ****     status = HAL_ERROR;
 734:Drivers/STM32F1xx_HAL_Driver/Src/stm32f1xx_hal_dma.c ****   } 
 735:Drivers/STM32F1xx_HAL_Driver/Src/stm32f1xx_hal_dma.c ****   
 736:Drivers/STM32F1xx_HAL_Driver/Src/stm32f1xx_hal_dma.c ****   /* Release Lock */
 737:Drivers/STM32F1xx_HAL_Driver/Src/stm32f1xx_hal_dma.c ****   __HAL_UNLOCK(hdma);
 738:Drivers/STM32F1xx_HAL_Driver/Src/stm32f1xx_hal_dma.c ****   
 739:Drivers/STM32F1xx_HAL_Driver/Src/stm32f1xx_hal_dma.c ****   return status;
 740:Drivers/STM32F1xx_HAL_Driver/Src/stm32f1xx_hal_dma.c **** }
 741:Drivers/STM32F1xx_HAL_Driver/Src/stm32f1xx_hal_dma.c **** 
 742:Drivers/STM32F1xx_HAL_Driver/Src/stm32f1xx_hal_dma.c **** /**
 743:Drivers/STM32F1xx_HAL_Driver/Src/stm32f1xx_hal_dma.c ****   * @brief UnRegister callbacks
 744:Drivers/STM32F1xx_HAL_Driver/Src/stm32f1xx_hal_dma.c ****   * @param hdma: pointer to a DMA_HandleTypeDef structure that contains
 745:Drivers/STM32F1xx_HAL_Driver/Src/stm32f1xx_hal_dma.c ****   *              the configuration information for the specified DMA Channel.
 746:Drivers/STM32F1xx_HAL_Driver/Src/stm32f1xx_hal_dma.c ****   * @param CallbackID: User Callback identifer
 747:Drivers/STM32F1xx_HAL_Driver/Src/stm32f1xx_hal_dma.c ****   *                    a HAL_DMA_CallbackIDTypeDef ENUM as parameter.
 748:Drivers/STM32F1xx_HAL_Driver/Src/stm32f1xx_hal_dma.c ****   * @retval HAL status
 749:Drivers/STM32F1xx_HAL_Driver/Src/stm32f1xx_hal_dma.c ****   */              
 750:Drivers/STM32F1xx_HAL_Driver/Src/stm32f1xx_hal_dma.c **** HAL_StatusTypeDef HAL_DMA_UnRegisterCallback(DMA_HandleTypeDef *hdma, HAL_DMA_CallbackIDTypeDef Cal
 751:Drivers/STM32F1xx_HAL_Driver/Src/stm32f1xx_hal_dma.c **** {
 752:Drivers/STM32F1xx_HAL_Driver/Src/stm32f1xx_hal_dma.c ****   HAL_StatusTypeDef status = HAL_OK;
 753:Drivers/STM32F1xx_HAL_Driver/Src/stm32f1xx_hal_dma.c **** 
 754:Drivers/STM32F1xx_HAL_Driver/Src/stm32f1xx_hal_dma.c ****   /* Process locked */
 755:Drivers/STM32F1xx_HAL_Driver/Src/stm32f1xx_hal_dma.c ****   __HAL_LOCK(hdma);
 756:Drivers/STM32F1xx_HAL_Driver/Src/stm32f1xx_hal_dma.c ****   
 757:Drivers/STM32F1xx_HAL_Driver/Src/stm32f1xx_hal_dma.c ****   if(HAL_DMA_STATE_READY == hdma->State)
 758:Drivers/STM32F1xx_HAL_Driver/Src/stm32f1xx_hal_dma.c ****   {
 759:Drivers/STM32F1xx_HAL_Driver/Src/stm32f1xx_hal_dma.c ****     switch (CallbackID)
 760:Drivers/STM32F1xx_HAL_Driver/Src/stm32f1xx_hal_dma.c ****     {
 761:Drivers/STM32F1xx_HAL_Driver/Src/stm32f1xx_hal_dma.c ****     case  HAL_DMA_XFER_CPLT_CB_ID:
 762:Drivers/STM32F1xx_HAL_Driver/Src/stm32f1xx_hal_dma.c ****       hdma->XferCpltCallback = NULL;
 763:Drivers/STM32F1xx_HAL_Driver/Src/stm32f1xx_hal_dma.c ****       break;
 764:Drivers/STM32F1xx_HAL_Driver/Src/stm32f1xx_hal_dma.c **** 
 765:Drivers/STM32F1xx_HAL_Driver/Src/stm32f1xx_hal_dma.c ****     case  HAL_DMA_XFER_HALFCPLT_CB_ID:
 766:Drivers/STM32F1xx_HAL_Driver/Src/stm32f1xx_hal_dma.c ****       hdma->XferHalfCpltCallback = NULL;
 767:Drivers/STM32F1xx_HAL_Driver/Src/stm32f1xx_hal_dma.c ****       break;         
 768:Drivers/STM32F1xx_HAL_Driver/Src/stm32f1xx_hal_dma.c **** 
 769:Drivers/STM32F1xx_HAL_Driver/Src/stm32f1xx_hal_dma.c ****     case  HAL_DMA_XFER_ERROR_CB_ID:
 770:Drivers/STM32F1xx_HAL_Driver/Src/stm32f1xx_hal_dma.c ****       hdma->XferErrorCallback = NULL;
 771:Drivers/STM32F1xx_HAL_Driver/Src/stm32f1xx_hal_dma.c ****       break;         
 772:Drivers/STM32F1xx_HAL_Driver/Src/stm32f1xx_hal_dma.c **** 
 773:Drivers/STM32F1xx_HAL_Driver/Src/stm32f1xx_hal_dma.c ****     case  HAL_DMA_XFER_ABORT_CB_ID:
ARM GAS  /tmp/cc4nKcdQ.s 			page 15


 774:Drivers/STM32F1xx_HAL_Driver/Src/stm32f1xx_hal_dma.c ****       hdma->XferAbortCallback = NULL;
 775:Drivers/STM32F1xx_HAL_Driver/Src/stm32f1xx_hal_dma.c ****       break; 
 776:Drivers/STM32F1xx_HAL_Driver/Src/stm32f1xx_hal_dma.c **** 
 777:Drivers/STM32F1xx_HAL_Driver/Src/stm32f1xx_hal_dma.c ****     case   HAL_DMA_XFER_ALL_CB_ID:
 778:Drivers/STM32F1xx_HAL_Driver/Src/stm32f1xx_hal_dma.c ****       hdma->XferCpltCallback = NULL;
 779:Drivers/STM32F1xx_HAL_Driver/Src/stm32f1xx_hal_dma.c ****       hdma->XferHalfCpltCallback = NULL;
 780:Drivers/STM32F1xx_HAL_Driver/Src/stm32f1xx_hal_dma.c ****       hdma->XferErrorCallback = NULL;
 781:Drivers/STM32F1xx_HAL_Driver/Src/stm32f1xx_hal_dma.c ****       hdma->XferAbortCallback = NULL;
 782:Drivers/STM32F1xx_HAL_Driver/Src/stm32f1xx_hal_dma.c ****       break; 
 783:Drivers/STM32F1xx_HAL_Driver/Src/stm32f1xx_hal_dma.c **** 
 784:Drivers/STM32F1xx_HAL_Driver/Src/stm32f1xx_hal_dma.c ****     default:
 785:Drivers/STM32F1xx_HAL_Driver/Src/stm32f1xx_hal_dma.c ****       status = HAL_ERROR;
 786:Drivers/STM32F1xx_HAL_Driver/Src/stm32f1xx_hal_dma.c ****       break;
 787:Drivers/STM32F1xx_HAL_Driver/Src/stm32f1xx_hal_dma.c ****     }
 788:Drivers/STM32F1xx_HAL_Driver/Src/stm32f1xx_hal_dma.c ****   }
 789:Drivers/STM32F1xx_HAL_Driver/Src/stm32f1xx_hal_dma.c ****   else
 790:Drivers/STM32F1xx_HAL_Driver/Src/stm32f1xx_hal_dma.c ****   {
 791:Drivers/STM32F1xx_HAL_Driver/Src/stm32f1xx_hal_dma.c ****     status = HAL_ERROR;
 792:Drivers/STM32F1xx_HAL_Driver/Src/stm32f1xx_hal_dma.c ****   } 
 793:Drivers/STM32F1xx_HAL_Driver/Src/stm32f1xx_hal_dma.c ****   
 794:Drivers/STM32F1xx_HAL_Driver/Src/stm32f1xx_hal_dma.c ****   /* Release Lock */
 795:Drivers/STM32F1xx_HAL_Driver/Src/stm32f1xx_hal_dma.c ****   __HAL_UNLOCK(hdma);
 796:Drivers/STM32F1xx_HAL_Driver/Src/stm32f1xx_hal_dma.c ****   
 797:Drivers/STM32F1xx_HAL_Driver/Src/stm32f1xx_hal_dma.c ****   return status;
 798:Drivers/STM32F1xx_HAL_Driver/Src/stm32f1xx_hal_dma.c **** }
 799:Drivers/STM32F1xx_HAL_Driver/Src/stm32f1xx_hal_dma.c ****   
 800:Drivers/STM32F1xx_HAL_Driver/Src/stm32f1xx_hal_dma.c **** /**
 801:Drivers/STM32F1xx_HAL_Driver/Src/stm32f1xx_hal_dma.c ****   * @}
 802:Drivers/STM32F1xx_HAL_Driver/Src/stm32f1xx_hal_dma.c ****   */
 803:Drivers/STM32F1xx_HAL_Driver/Src/stm32f1xx_hal_dma.c **** 
 804:Drivers/STM32F1xx_HAL_Driver/Src/stm32f1xx_hal_dma.c **** /** @defgroup DMA_Exported_Functions_Group3 Peripheral State and Errors functions
 805:Drivers/STM32F1xx_HAL_Driver/Src/stm32f1xx_hal_dma.c ****   *  @brief    Peripheral State and Errors functions
 806:Drivers/STM32F1xx_HAL_Driver/Src/stm32f1xx_hal_dma.c ****   *
 807:Drivers/STM32F1xx_HAL_Driver/Src/stm32f1xx_hal_dma.c **** @verbatim
 808:Drivers/STM32F1xx_HAL_Driver/Src/stm32f1xx_hal_dma.c ****  ===============================================================================
 809:Drivers/STM32F1xx_HAL_Driver/Src/stm32f1xx_hal_dma.c ****             ##### Peripheral State and Errors functions #####
 810:Drivers/STM32F1xx_HAL_Driver/Src/stm32f1xx_hal_dma.c ****  ===============================================================================  
 811:Drivers/STM32F1xx_HAL_Driver/Src/stm32f1xx_hal_dma.c ****     [..]
 812:Drivers/STM32F1xx_HAL_Driver/Src/stm32f1xx_hal_dma.c ****     This subsection provides functions allowing to
 813:Drivers/STM32F1xx_HAL_Driver/Src/stm32f1xx_hal_dma.c ****       (+) Check the DMA state
 814:Drivers/STM32F1xx_HAL_Driver/Src/stm32f1xx_hal_dma.c ****       (+) Get error code
 815:Drivers/STM32F1xx_HAL_Driver/Src/stm32f1xx_hal_dma.c **** 
 816:Drivers/STM32F1xx_HAL_Driver/Src/stm32f1xx_hal_dma.c **** @endverbatim
 817:Drivers/STM32F1xx_HAL_Driver/Src/stm32f1xx_hal_dma.c ****   * @{
 818:Drivers/STM32F1xx_HAL_Driver/Src/stm32f1xx_hal_dma.c ****   */
 819:Drivers/STM32F1xx_HAL_Driver/Src/stm32f1xx_hal_dma.c **** 
 820:Drivers/STM32F1xx_HAL_Driver/Src/stm32f1xx_hal_dma.c **** /**
 821:Drivers/STM32F1xx_HAL_Driver/Src/stm32f1xx_hal_dma.c ****   * @brief  Return the DMA hande state.
 822:Drivers/STM32F1xx_HAL_Driver/Src/stm32f1xx_hal_dma.c ****   * @param  hdma: pointer to a DMA_HandleTypeDef structure that contains
 823:Drivers/STM32F1xx_HAL_Driver/Src/stm32f1xx_hal_dma.c ****   *               the configuration information for the specified DMA Channel.
 824:Drivers/STM32F1xx_HAL_Driver/Src/stm32f1xx_hal_dma.c ****   * @retval HAL state
 825:Drivers/STM32F1xx_HAL_Driver/Src/stm32f1xx_hal_dma.c ****   */
 826:Drivers/STM32F1xx_HAL_Driver/Src/stm32f1xx_hal_dma.c **** HAL_DMA_StateTypeDef HAL_DMA_GetState(DMA_HandleTypeDef *hdma)
 827:Drivers/STM32F1xx_HAL_Driver/Src/stm32f1xx_hal_dma.c **** {
 828:Drivers/STM32F1xx_HAL_Driver/Src/stm32f1xx_hal_dma.c ****   /* Return DMA handle state */
 829:Drivers/STM32F1xx_HAL_Driver/Src/stm32f1xx_hal_dma.c ****   return hdma->State;
 830:Drivers/STM32F1xx_HAL_Driver/Src/stm32f1xx_hal_dma.c **** }
ARM GAS  /tmp/cc4nKcdQ.s 			page 16


 831:Drivers/STM32F1xx_HAL_Driver/Src/stm32f1xx_hal_dma.c **** 
 832:Drivers/STM32F1xx_HAL_Driver/Src/stm32f1xx_hal_dma.c **** /**
 833:Drivers/STM32F1xx_HAL_Driver/Src/stm32f1xx_hal_dma.c ****   * @brief  Return the DMA error code.
 834:Drivers/STM32F1xx_HAL_Driver/Src/stm32f1xx_hal_dma.c ****   * @param  hdma : pointer to a DMA_HandleTypeDef structure that contains
 835:Drivers/STM32F1xx_HAL_Driver/Src/stm32f1xx_hal_dma.c ****   *              the configuration information for the specified DMA Channel.
 836:Drivers/STM32F1xx_HAL_Driver/Src/stm32f1xx_hal_dma.c ****   * @retval DMA Error Code
 837:Drivers/STM32F1xx_HAL_Driver/Src/stm32f1xx_hal_dma.c ****   */
 838:Drivers/STM32F1xx_HAL_Driver/Src/stm32f1xx_hal_dma.c **** uint32_t HAL_DMA_GetError(DMA_HandleTypeDef *hdma)
 839:Drivers/STM32F1xx_HAL_Driver/Src/stm32f1xx_hal_dma.c **** {
 840:Drivers/STM32F1xx_HAL_Driver/Src/stm32f1xx_hal_dma.c ****   return hdma->ErrorCode;
 841:Drivers/STM32F1xx_HAL_Driver/Src/stm32f1xx_hal_dma.c **** }
 842:Drivers/STM32F1xx_HAL_Driver/Src/stm32f1xx_hal_dma.c **** 
 843:Drivers/STM32F1xx_HAL_Driver/Src/stm32f1xx_hal_dma.c **** /**
 844:Drivers/STM32F1xx_HAL_Driver/Src/stm32f1xx_hal_dma.c ****   * @}
 845:Drivers/STM32F1xx_HAL_Driver/Src/stm32f1xx_hal_dma.c ****   */
 846:Drivers/STM32F1xx_HAL_Driver/Src/stm32f1xx_hal_dma.c **** 
 847:Drivers/STM32F1xx_HAL_Driver/Src/stm32f1xx_hal_dma.c **** /**
 848:Drivers/STM32F1xx_HAL_Driver/Src/stm32f1xx_hal_dma.c ****   * @}
 849:Drivers/STM32F1xx_HAL_Driver/Src/stm32f1xx_hal_dma.c ****   */
 850:Drivers/STM32F1xx_HAL_Driver/Src/stm32f1xx_hal_dma.c **** 
 851:Drivers/STM32F1xx_HAL_Driver/Src/stm32f1xx_hal_dma.c **** /** @addtogroup DMA_Private_Functions
 852:Drivers/STM32F1xx_HAL_Driver/Src/stm32f1xx_hal_dma.c ****   * @{
 853:Drivers/STM32F1xx_HAL_Driver/Src/stm32f1xx_hal_dma.c ****   */
 854:Drivers/STM32F1xx_HAL_Driver/Src/stm32f1xx_hal_dma.c **** 
 855:Drivers/STM32F1xx_HAL_Driver/Src/stm32f1xx_hal_dma.c **** /**
 856:Drivers/STM32F1xx_HAL_Driver/Src/stm32f1xx_hal_dma.c ****   * @brief  Sets the DMA Transfer parameter.
 857:Drivers/STM32F1xx_HAL_Driver/Src/stm32f1xx_hal_dma.c ****   * @param  hdma:       pointer to a DMA_HandleTypeDef structure that contains
 858:Drivers/STM32F1xx_HAL_Driver/Src/stm32f1xx_hal_dma.c ****   *                     the configuration information for the specified DMA Channel.
 859:Drivers/STM32F1xx_HAL_Driver/Src/stm32f1xx_hal_dma.c ****   * @param  SrcAddress: The source memory Buffer address
 860:Drivers/STM32F1xx_HAL_Driver/Src/stm32f1xx_hal_dma.c ****   * @param  DstAddress: The destination memory Buffer address
 861:Drivers/STM32F1xx_HAL_Driver/Src/stm32f1xx_hal_dma.c ****   * @param  DataLength: The length of data to be transferred from source to destination
 862:Drivers/STM32F1xx_HAL_Driver/Src/stm32f1xx_hal_dma.c ****   * @retval HAL status
 863:Drivers/STM32F1xx_HAL_Driver/Src/stm32f1xx_hal_dma.c ****   */
 864:Drivers/STM32F1xx_HAL_Driver/Src/stm32f1xx_hal_dma.c **** static void DMA_SetConfig(DMA_HandleTypeDef *hdma, uint32_t SrcAddress, uint32_t DstAddress, uint32
 865:Drivers/STM32F1xx_HAL_Driver/Src/stm32f1xx_hal_dma.c **** {
  27              		.loc 1 865 1 view -0
  28              		.cfi_startproc
  29              		@ args = 0, pretend = 0, frame = 0
  30              		@ frame_needed = 0, uses_anonymous_args = 0
  31              		@ link register save eliminated.
  32              		.loc 1 865 1 is_stmt 0 view .LVU1
  33 0000 70B4     		push	{r4, r5, r6}
  34              	.LCFI0:
  35              		.cfi_def_cfa_offset 12
  36              		.cfi_offset 4, -12
  37              		.cfi_offset 5, -8
  38              		.cfi_offset 6, -4
 866:Drivers/STM32F1xx_HAL_Driver/Src/stm32f1xx_hal_dma.c ****   /* Clear all flags */
 867:Drivers/STM32F1xx_HAL_Driver/Src/stm32f1xx_hal_dma.c ****   hdma->DmaBaseAddress->IFCR = (DMA_ISR_GIF1 << hdma->ChannelIndex);
  39              		.loc 1 867 3 is_stmt 1 view .LVU2
  40              		.loc 1 867 53 is_stmt 0 view .LVU3
  41 0002 066C     		ldr	r6, [r0, #64]
  42              		.loc 1 867 7 view .LVU4
  43 0004 C56B     		ldr	r5, [r0, #60]
  44              		.loc 1 867 46 view .LVU5
  45 0006 0124     		movs	r4, #1
  46 0008 B440     		lsls	r4, r4, r6
ARM GAS  /tmp/cc4nKcdQ.s 			page 17


  47              		.loc 1 867 30 view .LVU6
  48 000a 6C60     		str	r4, [r5, #4]
 868:Drivers/STM32F1xx_HAL_Driver/Src/stm32f1xx_hal_dma.c **** 
 869:Drivers/STM32F1xx_HAL_Driver/Src/stm32f1xx_hal_dma.c ****   /* Configure DMA Channel data length */
 870:Drivers/STM32F1xx_HAL_Driver/Src/stm32f1xx_hal_dma.c ****   hdma->Instance->CNDTR = DataLength;
  49              		.loc 1 870 3 is_stmt 1 view .LVU7
  50              		.loc 1 870 7 is_stmt 0 view .LVU8
  51 000c 0468     		ldr	r4, [r0]
  52              		.loc 1 870 25 view .LVU9
  53 000e 6360     		str	r3, [r4, #4]
 871:Drivers/STM32F1xx_HAL_Driver/Src/stm32f1xx_hal_dma.c **** 
 872:Drivers/STM32F1xx_HAL_Driver/Src/stm32f1xx_hal_dma.c ****   /* Memory to Peripheral */
 873:Drivers/STM32F1xx_HAL_Driver/Src/stm32f1xx_hal_dma.c ****   if((hdma->Init.Direction) == DMA_MEMORY_TO_PERIPH)
  54              		.loc 1 873 3 is_stmt 1 view .LVU10
  55              		.loc 1 873 17 is_stmt 0 view .LVU11
  56 0010 4368     		ldr	r3, [r0, #4]
  57              	.LVL1:
  58              		.loc 1 873 5 view .LVU12
  59 0012 102B     		cmp	r3, #16
  60 0014 05D0     		beq	.L5
 874:Drivers/STM32F1xx_HAL_Driver/Src/stm32f1xx_hal_dma.c ****   {
 875:Drivers/STM32F1xx_HAL_Driver/Src/stm32f1xx_hal_dma.c ****     /* Configure DMA Channel destination address */
 876:Drivers/STM32F1xx_HAL_Driver/Src/stm32f1xx_hal_dma.c ****     hdma->Instance->CPAR = DstAddress;
 877:Drivers/STM32F1xx_HAL_Driver/Src/stm32f1xx_hal_dma.c **** 
 878:Drivers/STM32F1xx_HAL_Driver/Src/stm32f1xx_hal_dma.c ****     /* Configure DMA Channel source address */
 879:Drivers/STM32F1xx_HAL_Driver/Src/stm32f1xx_hal_dma.c ****     hdma->Instance->CMAR = SrcAddress;
 880:Drivers/STM32F1xx_HAL_Driver/Src/stm32f1xx_hal_dma.c ****   }
 881:Drivers/STM32F1xx_HAL_Driver/Src/stm32f1xx_hal_dma.c ****   /* Peripheral to Memory */
 882:Drivers/STM32F1xx_HAL_Driver/Src/stm32f1xx_hal_dma.c ****   else
 883:Drivers/STM32F1xx_HAL_Driver/Src/stm32f1xx_hal_dma.c ****   {
 884:Drivers/STM32F1xx_HAL_Driver/Src/stm32f1xx_hal_dma.c ****     /* Configure DMA Channel source address */
 885:Drivers/STM32F1xx_HAL_Driver/Src/stm32f1xx_hal_dma.c ****     hdma->Instance->CPAR = SrcAddress;
  61              		.loc 1 885 5 is_stmt 1 view .LVU13
  62              		.loc 1 885 9 is_stmt 0 view .LVU14
  63 0016 0368     		ldr	r3, [r0]
  64              		.loc 1 885 26 view .LVU15
  65 0018 9960     		str	r1, [r3, #8]
  66              	.LVL2:
 886:Drivers/STM32F1xx_HAL_Driver/Src/stm32f1xx_hal_dma.c **** 
 887:Drivers/STM32F1xx_HAL_Driver/Src/stm32f1xx_hal_dma.c ****     /* Configure DMA Channel destination address */
 888:Drivers/STM32F1xx_HAL_Driver/Src/stm32f1xx_hal_dma.c ****     hdma->Instance->CMAR = DstAddress;
  67              		.loc 1 888 5 is_stmt 1 view .LVU16
  68              		.loc 1 888 9 is_stmt 0 view .LVU17
  69 001a 0368     		ldr	r3, [r0]
  70              		.loc 1 888 26 view .LVU18
  71 001c DA60     		str	r2, [r3, #12]
  72              	.L1:
 889:Drivers/STM32F1xx_HAL_Driver/Src/stm32f1xx_hal_dma.c ****   }
 890:Drivers/STM32F1xx_HAL_Driver/Src/stm32f1xx_hal_dma.c **** }
  73              		.loc 1 890 1 view .LVU19
  74 001e 70BC     		pop	{r4, r5, r6}
  75              	.LCFI1:
  76              		.cfi_remember_state
  77              		.cfi_restore 6
  78              		.cfi_restore 5
  79              		.cfi_restore 4
  80              		.cfi_def_cfa_offset 0
ARM GAS  /tmp/cc4nKcdQ.s 			page 18


  81 0020 7047     		bx	lr
  82              	.LVL3:
  83              	.L5:
  84              	.LCFI2:
  85              		.cfi_restore_state
 876:Drivers/STM32F1xx_HAL_Driver/Src/stm32f1xx_hal_dma.c **** 
  86              		.loc 1 876 5 is_stmt 1 view .LVU20
 876:Drivers/STM32F1xx_HAL_Driver/Src/stm32f1xx_hal_dma.c **** 
  87              		.loc 1 876 9 is_stmt 0 view .LVU21
  88 0022 0368     		ldr	r3, [r0]
 876:Drivers/STM32F1xx_HAL_Driver/Src/stm32f1xx_hal_dma.c **** 
  89              		.loc 1 876 26 view .LVU22
  90 0024 9A60     		str	r2, [r3, #8]
  91              	.LVL4:
 879:Drivers/STM32F1xx_HAL_Driver/Src/stm32f1xx_hal_dma.c ****   }
  92              		.loc 1 879 5 is_stmt 1 view .LVU23
 879:Drivers/STM32F1xx_HAL_Driver/Src/stm32f1xx_hal_dma.c ****   }
  93              		.loc 1 879 9 is_stmt 0 view .LVU24
  94 0026 0368     		ldr	r3, [r0]
 879:Drivers/STM32F1xx_HAL_Driver/Src/stm32f1xx_hal_dma.c ****   }
  95              		.loc 1 879 26 view .LVU25
  96 0028 D960     		str	r1, [r3, #12]
  97 002a F8E7     		b	.L1
  98              		.cfi_endproc
  99              	.LFE78:
 101              		.section	.text.HAL_DMA_Init,"ax",%progbits
 102              		.align	1
 103              		.global	HAL_DMA_Init
 104              		.syntax unified
 105              		.thumb
 106              		.thumb_func
 107              		.fpu softvfp
 109              	HAL_DMA_Init:
 110              	.LVL5:
 111              	.LFB66:
 162:Drivers/STM32F1xx_HAL_Driver/Src/stm32f1xx_hal_dma.c ****   uint32_t tmp = 0U;
 112              		.loc 1 162 1 is_stmt 1 view -0
 113              		.cfi_startproc
 114              		@ args = 0, pretend = 0, frame = 0
 115              		@ frame_needed = 0, uses_anonymous_args = 0
 116              		@ link register save eliminated.
 163:Drivers/STM32F1xx_HAL_Driver/Src/stm32f1xx_hal_dma.c **** 
 117              		.loc 1 163 3 view .LVU27
 166:Drivers/STM32F1xx_HAL_Driver/Src/stm32f1xx_hal_dma.c ****   {
 118              		.loc 1 166 3 view .LVU28
 166:Drivers/STM32F1xx_HAL_Driver/Src/stm32f1xx_hal_dma.c ****   {
 119              		.loc 1 166 5 is_stmt 0 view .LVU29
 120 0000 0028     		cmp	r0, #0
 121 0002 3ED0     		beq	.L10
 162:Drivers/STM32F1xx_HAL_Driver/Src/stm32f1xx_hal_dma.c ****   uint32_t tmp = 0U;
 122              		.loc 1 162 1 view .LVU30
 123 0004 10B4     		push	{r4}
 124              	.LCFI3:
 125              		.cfi_def_cfa_offset 4
 126              		.cfi_offset 4, -4
 127 0006 0346     		mov	r3, r0
 172:Drivers/STM32F1xx_HAL_Driver/Src/stm32f1xx_hal_dma.c ****   assert_param(IS_DMA_DIRECTION(hdma->Init.Direction));
ARM GAS  /tmp/cc4nKcdQ.s 			page 19


 128              		.loc 1 172 3 is_stmt 1 view .LVU31
 173:Drivers/STM32F1xx_HAL_Driver/Src/stm32f1xx_hal_dma.c ****   assert_param(IS_DMA_PERIPHERAL_INC_STATE(hdma->Init.PeriphInc));
 129              		.loc 1 173 3 view .LVU32
 174:Drivers/STM32F1xx_HAL_Driver/Src/stm32f1xx_hal_dma.c ****   assert_param(IS_DMA_MEMORY_INC_STATE(hdma->Init.MemInc));
 130              		.loc 1 174 3 view .LVU33
 175:Drivers/STM32F1xx_HAL_Driver/Src/stm32f1xx_hal_dma.c ****   assert_param(IS_DMA_PERIPHERAL_DATA_SIZE(hdma->Init.PeriphDataAlignment));
 131              		.loc 1 175 3 view .LVU34
 176:Drivers/STM32F1xx_HAL_Driver/Src/stm32f1xx_hal_dma.c ****   assert_param(IS_DMA_MEMORY_DATA_SIZE(hdma->Init.MemDataAlignment));
 132              		.loc 1 176 3 view .LVU35
 177:Drivers/STM32F1xx_HAL_Driver/Src/stm32f1xx_hal_dma.c ****   assert_param(IS_DMA_MODE(hdma->Init.Mode));
 133              		.loc 1 177 3 view .LVU36
 178:Drivers/STM32F1xx_HAL_Driver/Src/stm32f1xx_hal_dma.c ****   assert_param(IS_DMA_PRIORITY(hdma->Init.Priority));
 134              		.loc 1 178 3 view .LVU37
 179:Drivers/STM32F1xx_HAL_Driver/Src/stm32f1xx_hal_dma.c **** 
 135              		.loc 1 179 3 view .LVU38
 183:Drivers/STM32F1xx_HAL_Driver/Src/stm32f1xx_hal_dma.c ****   {
 136              		.loc 1 183 3 view .LVU39
 183:Drivers/STM32F1xx_HAL_Driver/Src/stm32f1xx_hal_dma.c ****   {
 137              		.loc 1 183 22 is_stmt 0 view .LVU40
 138 0008 0068     		ldr	r0, [r0]
 139              	.LVL6:
 183:Drivers/STM32F1xx_HAL_Driver/Src/stm32f1xx_hal_dma.c ****   {
 140              		.loc 1 183 6 view .LVU41
 141 000a 1F4A     		ldr	r2, .L15
 142 000c 9042     		cmp	r0, r2
 143 000e 2DD8     		bhi	.L8
 186:Drivers/STM32F1xx_HAL_Driver/Src/stm32f1xx_hal_dma.c ****     hdma->DmaBaseAddress = DMA1;
 144              		.loc 1 186 5 is_stmt 1 view .LVU42
 186:Drivers/STM32F1xx_HAL_Driver/Src/stm32f1xx_hal_dma.c ****     hdma->DmaBaseAddress = DMA1;
 145              		.loc 1 186 53 is_stmt 0 view .LVU43
 146 0010 1E4A     		ldr	r2, .L15+4
 147 0012 0244     		add	r2, r2, r0
 186:Drivers/STM32F1xx_HAL_Driver/Src/stm32f1xx_hal_dma.c ****     hdma->DmaBaseAddress = DMA1;
 148              		.loc 1 186 80 view .LVU44
 149 0014 1E49     		ldr	r1, .L15+8
 150 0016 A1FB0212 		umull	r1, r2, r1, r2
 151 001a 1209     		lsrs	r2, r2, #4
 186:Drivers/STM32F1xx_HAL_Driver/Src/stm32f1xx_hal_dma.c ****     hdma->DmaBaseAddress = DMA1;
 152              		.loc 1 186 135 view .LVU45
 153 001c 9200     		lsls	r2, r2, #2
 186:Drivers/STM32F1xx_HAL_Driver/Src/stm32f1xx_hal_dma.c ****     hdma->DmaBaseAddress = DMA1;
 154              		.loc 1 186 24 view .LVU46
 155 001e 1A64     		str	r2, [r3, #64]
 187:Drivers/STM32F1xx_HAL_Driver/Src/stm32f1xx_hal_dma.c ****   }
 156              		.loc 1 187 5 is_stmt 1 view .LVU47
 187:Drivers/STM32F1xx_HAL_Driver/Src/stm32f1xx_hal_dma.c ****   }
 157              		.loc 1 187 26 is_stmt 0 view .LVU48
 158 0020 1C4A     		ldr	r2, .L15+12
 159 0022 DA63     		str	r2, [r3, #60]
 160              	.L9:
 202:Drivers/STM32F1xx_HAL_Driver/Src/stm32f1xx_hal_dma.c **** 
 161              		.loc 1 202 3 is_stmt 1 view .LVU49
 202:Drivers/STM32F1xx_HAL_Driver/Src/stm32f1xx_hal_dma.c **** 
 162              		.loc 1 202 15 is_stmt 0 view .LVU50
 163 0024 0222     		movs	r2, #2
 164 0026 83F82120 		strb	r2, [r3, #33]
 205:Drivers/STM32F1xx_HAL_Driver/Src/stm32f1xx_hal_dma.c **** 
ARM GAS  /tmp/cc4nKcdQ.s 			page 20


 165              		.loc 1 205 3 is_stmt 1 view .LVU51
 205:Drivers/STM32F1xx_HAL_Driver/Src/stm32f1xx_hal_dma.c **** 
 166              		.loc 1 205 7 is_stmt 0 view .LVU52
 167 002a 0168     		ldr	r1, [r0]
 168              	.LVL7:
 208:Drivers/STM32F1xx_HAL_Driver/Src/stm32f1xx_hal_dma.c ****                       DMA_CCR_MINC  | DMA_CCR_PINC   | DMA_CCR_CIRC   | \
 169              		.loc 1 208 3 is_stmt 1 view .LVU53
 208:Drivers/STM32F1xx_HAL_Driver/Src/stm32f1xx_hal_dma.c ****                       DMA_CCR_MINC  | DMA_CCR_PINC   | DMA_CCR_CIRC   | \
 170              		.loc 1 208 7 is_stmt 0 view .LVU54
 171 002c 21F47F51 		bic	r1, r1, #16320
 172              	.LVL8:
 208:Drivers/STM32F1xx_HAL_Driver/Src/stm32f1xx_hal_dma.c ****                       DMA_CCR_MINC  | DMA_CCR_PINC   | DMA_CCR_CIRC   | \
 173              		.loc 1 208 7 view .LVU55
 174 0030 21F03001 		bic	r1, r1, #48
 175              	.LVL9:
 213:Drivers/STM32F1xx_HAL_Driver/Src/stm32f1xx_hal_dma.c ****           hdma->Init.PeriphInc           | hdma->Init.MemInc           |
 176              		.loc 1 213 3 is_stmt 1 view .LVU56
 213:Drivers/STM32F1xx_HAL_Driver/Src/stm32f1xx_hal_dma.c ****           hdma->Init.PeriphInc           | hdma->Init.MemInc           |
 177              		.loc 1 213 21 is_stmt 0 view .LVU57
 178 0034 5A68     		ldr	r2, [r3, #4]
 214:Drivers/STM32F1xx_HAL_Driver/Src/stm32f1xx_hal_dma.c ****           hdma->Init.PeriphDataAlignment | hdma->Init.MemDataAlignment |
 179              		.loc 1 214 21 view .LVU58
 180 0036 9C68     		ldr	r4, [r3, #8]
 213:Drivers/STM32F1xx_HAL_Driver/Src/stm32f1xx_hal_dma.c ****           hdma->Init.PeriphInc           | hdma->Init.MemInc           |
 181              		.loc 1 213 39 view .LVU59
 182 0038 2243     		orrs	r2, r2, r4
 214:Drivers/STM32F1xx_HAL_Driver/Src/stm32f1xx_hal_dma.c ****           hdma->Init.PeriphDataAlignment | hdma->Init.MemDataAlignment |
 183              		.loc 1 214 54 view .LVU60
 184 003a DC68     		ldr	r4, [r3, #12]
 214:Drivers/STM32F1xx_HAL_Driver/Src/stm32f1xx_hal_dma.c ****           hdma->Init.PeriphDataAlignment | hdma->Init.MemDataAlignment |
 185              		.loc 1 214 42 view .LVU61
 186 003c 2243     		orrs	r2, r2, r4
 215:Drivers/STM32F1xx_HAL_Driver/Src/stm32f1xx_hal_dma.c ****           hdma->Init.Mode                | hdma->Init.Priority;
 187              		.loc 1 215 21 view .LVU62
 188 003e 1C69     		ldr	r4, [r3, #16]
 214:Drivers/STM32F1xx_HAL_Driver/Src/stm32f1xx_hal_dma.c ****           hdma->Init.PeriphDataAlignment | hdma->Init.MemDataAlignment |
 189              		.loc 1 214 72 view .LVU63
 190 0040 2243     		orrs	r2, r2, r4
 215:Drivers/STM32F1xx_HAL_Driver/Src/stm32f1xx_hal_dma.c ****           hdma->Init.Mode                | hdma->Init.Priority;
 191              		.loc 1 215 54 view .LVU64
 192 0042 5C69     		ldr	r4, [r3, #20]
 215:Drivers/STM32F1xx_HAL_Driver/Src/stm32f1xx_hal_dma.c ****           hdma->Init.Mode                | hdma->Init.Priority;
 193              		.loc 1 215 42 view .LVU65
 194 0044 2243     		orrs	r2, r2, r4
 216:Drivers/STM32F1xx_HAL_Driver/Src/stm32f1xx_hal_dma.c **** 
 195              		.loc 1 216 21 view .LVU66
 196 0046 9C69     		ldr	r4, [r3, #24]
 215:Drivers/STM32F1xx_HAL_Driver/Src/stm32f1xx_hal_dma.c ****           hdma->Init.Mode                | hdma->Init.Priority;
 197              		.loc 1 215 72 view .LVU67
 198 0048 2243     		orrs	r2, r2, r4
 216:Drivers/STM32F1xx_HAL_Driver/Src/stm32f1xx_hal_dma.c **** 
 199              		.loc 1 216 54 view .LVU68
 200 004a DC69     		ldr	r4, [r3, #28]
 216:Drivers/STM32F1xx_HAL_Driver/Src/stm32f1xx_hal_dma.c **** 
 201              		.loc 1 216 42 view .LVU69
 202 004c 2243     		orrs	r2, r2, r4
 213:Drivers/STM32F1xx_HAL_Driver/Src/stm32f1xx_hal_dma.c ****           hdma->Init.PeriphInc           | hdma->Init.MemInc           |
ARM GAS  /tmp/cc4nKcdQ.s 			page 21


 203              		.loc 1 213 7 view .LVU70
 204 004e 0A43     		orrs	r2, r2, r1
 205              	.LVL10:
 219:Drivers/STM32F1xx_HAL_Driver/Src/stm32f1xx_hal_dma.c **** 
 206              		.loc 1 219 3 is_stmt 1 view .LVU71
 219:Drivers/STM32F1xx_HAL_Driver/Src/stm32f1xx_hal_dma.c **** 
 207              		.loc 1 219 23 is_stmt 0 view .LVU72
 208 0050 0260     		str	r2, [r0]
 223:Drivers/STM32F1xx_HAL_Driver/Src/stm32f1xx_hal_dma.c ****   hdma->XferHalfCpltCallback = NULL;
 209              		.loc 1 223 3 is_stmt 1 view .LVU73
 223:Drivers/STM32F1xx_HAL_Driver/Src/stm32f1xx_hal_dma.c ****   hdma->XferHalfCpltCallback = NULL;
 210              		.loc 1 223 26 is_stmt 0 view .LVU74
 211 0052 0020     		movs	r0, #0
 212 0054 9862     		str	r0, [r3, #40]
 224:Drivers/STM32F1xx_HAL_Driver/Src/stm32f1xx_hal_dma.c ****   hdma->XferErrorCallback = NULL;
 213              		.loc 1 224 3 is_stmt 1 view .LVU75
 224:Drivers/STM32F1xx_HAL_Driver/Src/stm32f1xx_hal_dma.c ****   hdma->XferErrorCallback = NULL;
 214              		.loc 1 224 30 is_stmt 0 view .LVU76
 215 0056 D862     		str	r0, [r3, #44]
 225:Drivers/STM32F1xx_HAL_Driver/Src/stm32f1xx_hal_dma.c ****   hdma->XferAbortCallback = NULL;
 216              		.loc 1 225 3 is_stmt 1 view .LVU77
 225:Drivers/STM32F1xx_HAL_Driver/Src/stm32f1xx_hal_dma.c ****   hdma->XferAbortCallback = NULL;
 217              		.loc 1 225 27 is_stmt 0 view .LVU78
 218 0058 1863     		str	r0, [r3, #48]
 226:Drivers/STM32F1xx_HAL_Driver/Src/stm32f1xx_hal_dma.c **** 
 219              		.loc 1 226 3 is_stmt 1 view .LVU79
 226:Drivers/STM32F1xx_HAL_Driver/Src/stm32f1xx_hal_dma.c **** 
 220              		.loc 1 226 27 is_stmt 0 view .LVU80
 221 005a 5863     		str	r0, [r3, #52]
 229:Drivers/STM32F1xx_HAL_Driver/Src/stm32f1xx_hal_dma.c **** 
 222              		.loc 1 229 3 is_stmt 1 view .LVU81
 229:Drivers/STM32F1xx_HAL_Driver/Src/stm32f1xx_hal_dma.c **** 
 223              		.loc 1 229 19 is_stmt 0 view .LVU82
 224 005c 9863     		str	r0, [r3, #56]
 232:Drivers/STM32F1xx_HAL_Driver/Src/stm32f1xx_hal_dma.c ****   /* Allocate lock resource and initialize it */
 225              		.loc 1 232 3 is_stmt 1 view .LVU83
 232:Drivers/STM32F1xx_HAL_Driver/Src/stm32f1xx_hal_dma.c ****   /* Allocate lock resource and initialize it */
 226              		.loc 1 232 15 is_stmt 0 view .LVU84
 227 005e 0122     		movs	r2, #1
 228              	.LVL11:
 232:Drivers/STM32F1xx_HAL_Driver/Src/stm32f1xx_hal_dma.c ****   /* Allocate lock resource and initialize it */
 229              		.loc 1 232 15 view .LVU85
 230 0060 83F82120 		strb	r2, [r3, #33]
 234:Drivers/STM32F1xx_HAL_Driver/Src/stm32f1xx_hal_dma.c ****   
 231              		.loc 1 234 3 is_stmt 1 view .LVU86
 234:Drivers/STM32F1xx_HAL_Driver/Src/stm32f1xx_hal_dma.c ****   
 232              		.loc 1 234 14 is_stmt 0 view .LVU87
 233 0064 83F82000 		strb	r0, [r3, #32]
 236:Drivers/STM32F1xx_HAL_Driver/Src/stm32f1xx_hal_dma.c **** }
 234              		.loc 1 236 3 is_stmt 1 view .LVU88
 237:Drivers/STM32F1xx_HAL_Driver/Src/stm32f1xx_hal_dma.c **** 
 235              		.loc 1 237 1 is_stmt 0 view .LVU89
 236 0068 10BC     		pop	{r4}
 237              	.LCFI4:
 238              		.cfi_remember_state
 239              		.cfi_restore 4
 240              		.cfi_def_cfa_offset 0
ARM GAS  /tmp/cc4nKcdQ.s 			page 22


 241 006a 7047     		bx	lr
 242              	.LVL12:
 243              	.L8:
 244              	.LCFI5:
 245              		.cfi_restore_state
 192:Drivers/STM32F1xx_HAL_Driver/Src/stm32f1xx_hal_dma.c ****     hdma->DmaBaseAddress = DMA2;
 246              		.loc 1 192 5 is_stmt 1 view .LVU90
 192:Drivers/STM32F1xx_HAL_Driver/Src/stm32f1xx_hal_dma.c ****     hdma->DmaBaseAddress = DMA2;
 247              		.loc 1 192 53 is_stmt 0 view .LVU91
 248 006c 0A4A     		ldr	r2, .L15+16
 249 006e 0244     		add	r2, r2, r0
 192:Drivers/STM32F1xx_HAL_Driver/Src/stm32f1xx_hal_dma.c ****     hdma->DmaBaseAddress = DMA2;
 250              		.loc 1 192 80 view .LVU92
 251 0070 0749     		ldr	r1, .L15+8
 252 0072 A1FB0212 		umull	r1, r2, r1, r2
 253 0076 1209     		lsrs	r2, r2, #4
 192:Drivers/STM32F1xx_HAL_Driver/Src/stm32f1xx_hal_dma.c ****     hdma->DmaBaseAddress = DMA2;
 254              		.loc 1 192 135 view .LVU93
 255 0078 9200     		lsls	r2, r2, #2
 192:Drivers/STM32F1xx_HAL_Driver/Src/stm32f1xx_hal_dma.c ****     hdma->DmaBaseAddress = DMA2;
 256              		.loc 1 192 24 view .LVU94
 257 007a 1A64     		str	r2, [r3, #64]
 193:Drivers/STM32F1xx_HAL_Driver/Src/stm32f1xx_hal_dma.c ****   }
 258              		.loc 1 193 5 is_stmt 1 view .LVU95
 193:Drivers/STM32F1xx_HAL_Driver/Src/stm32f1xx_hal_dma.c ****   }
 259              		.loc 1 193 26 is_stmt 0 view .LVU96
 260 007c 074A     		ldr	r2, .L15+20
 261 007e DA63     		str	r2, [r3, #60]
 262 0080 D0E7     		b	.L9
 263              	.LVL13:
 264              	.L10:
 265              	.LCFI6:
 266              		.cfi_def_cfa_offset 0
 267              		.cfi_restore 4
 168:Drivers/STM32F1xx_HAL_Driver/Src/stm32f1xx_hal_dma.c ****   }
 268              		.loc 1 168 12 view .LVU97
 269 0082 0120     		movs	r0, #1
 270              	.LVL14:
 237:Drivers/STM32F1xx_HAL_Driver/Src/stm32f1xx_hal_dma.c **** 
 271              		.loc 1 237 1 view .LVU98
 272 0084 7047     		bx	lr
 273              	.L16:
 274 0086 00BF     		.align	2
 275              	.L15:
 276 0088 07040240 		.word	1073873927
 277 008c F8FFFDBF 		.word	-1073872904
 278 0090 CDCCCCCC 		.word	-858993459
 279 0094 00000240 		.word	1073872896
 280 0098 F8FBFDBF 		.word	-1073873928
 281 009c 00040240 		.word	1073873920
 282              		.cfi_endproc
 283              	.LFE66:
 285              		.section	.text.HAL_DMA_DeInit,"ax",%progbits
 286              		.align	1
 287              		.global	HAL_DMA_DeInit
 288              		.syntax unified
 289              		.thumb
ARM GAS  /tmp/cc4nKcdQ.s 			page 23


 290              		.thumb_func
 291              		.fpu softvfp
 293              	HAL_DMA_DeInit:
 294              	.LVL15:
 295              	.LFB67:
 246:Drivers/STM32F1xx_HAL_Driver/Src/stm32f1xx_hal_dma.c ****   /* Check the DMA handle allocation */
 296              		.loc 1 246 1 is_stmt 1 view -0
 297              		.cfi_startproc
 298              		@ args = 0, pretend = 0, frame = 0
 299              		@ frame_needed = 0, uses_anonymous_args = 0
 300              		@ link register save eliminated.
 248:Drivers/STM32F1xx_HAL_Driver/Src/stm32f1xx_hal_dma.c ****   {
 301              		.loc 1 248 3 view .LVU100
 248:Drivers/STM32F1xx_HAL_Driver/Src/stm32f1xx_hal_dma.c ****   {
 302              		.loc 1 248 5 is_stmt 0 view .LVU101
 303 0000 0346     		mov	r3, r0
 304 0002 0028     		cmp	r0, #0
 305 0004 32D0     		beq	.L21
 254:Drivers/STM32F1xx_HAL_Driver/Src/stm32f1xx_hal_dma.c **** 
 306              		.loc 1 254 3 is_stmt 1 view .LVU102
 257:Drivers/STM32F1xx_HAL_Driver/Src/stm32f1xx_hal_dma.c **** 
 307              		.loc 1 257 3 view .LVU103
 308 0006 0168     		ldr	r1, [r0]
 309 0008 0A68     		ldr	r2, [r1]
 310 000a 22F00102 		bic	r2, r2, #1
 311 000e 0A60     		str	r2, [r1]
 260:Drivers/STM32F1xx_HAL_Driver/Src/stm32f1xx_hal_dma.c **** 
 312              		.loc 1 260 3 view .LVU104
 260:Drivers/STM32F1xx_HAL_Driver/Src/stm32f1xx_hal_dma.c **** 
 313              		.loc 1 260 7 is_stmt 0 view .LVU105
 314 0010 0168     		ldr	r1, [r0]
 260:Drivers/STM32F1xx_HAL_Driver/Src/stm32f1xx_hal_dma.c **** 
 315              		.loc 1 260 24 view .LVU106
 316 0012 0022     		movs	r2, #0
 317 0014 0A60     		str	r2, [r1]
 263:Drivers/STM32F1xx_HAL_Driver/Src/stm32f1xx_hal_dma.c **** 
 318              		.loc 1 263 3 is_stmt 1 view .LVU107
 263:Drivers/STM32F1xx_HAL_Driver/Src/stm32f1xx_hal_dma.c **** 
 319              		.loc 1 263 7 is_stmt 0 view .LVU108
 320 0016 0168     		ldr	r1, [r0]
 263:Drivers/STM32F1xx_HAL_Driver/Src/stm32f1xx_hal_dma.c **** 
 321              		.loc 1 263 25 view .LVU109
 322 0018 4A60     		str	r2, [r1, #4]
 266:Drivers/STM32F1xx_HAL_Driver/Src/stm32f1xx_hal_dma.c **** 
 323              		.loc 1 266 3 is_stmt 1 view .LVU110
 266:Drivers/STM32F1xx_HAL_Driver/Src/stm32f1xx_hal_dma.c **** 
 324              		.loc 1 266 7 is_stmt 0 view .LVU111
 325 001a 0168     		ldr	r1, [r0]
 266:Drivers/STM32F1xx_HAL_Driver/Src/stm32f1xx_hal_dma.c **** 
 326              		.loc 1 266 25 view .LVU112
 327 001c 8A60     		str	r2, [r1, #8]
 269:Drivers/STM32F1xx_HAL_Driver/Src/stm32f1xx_hal_dma.c **** 
 328              		.loc 1 269 3 is_stmt 1 view .LVU113
 269:Drivers/STM32F1xx_HAL_Driver/Src/stm32f1xx_hal_dma.c **** 
 329              		.loc 1 269 7 is_stmt 0 view .LVU114
 330 001e 0168     		ldr	r1, [r0]
 269:Drivers/STM32F1xx_HAL_Driver/Src/stm32f1xx_hal_dma.c **** 
ARM GAS  /tmp/cc4nKcdQ.s 			page 24


 331              		.loc 1 269 24 view .LVU115
 332 0020 CA60     		str	r2, [r1, #12]
 273:Drivers/STM32F1xx_HAL_Driver/Src/stm32f1xx_hal_dma.c ****   {
 333              		.loc 1 273 3 is_stmt 1 view .LVU116
 273:Drivers/STM32F1xx_HAL_Driver/Src/stm32f1xx_hal_dma.c ****   {
 334              		.loc 1 273 22 is_stmt 0 view .LVU117
 335 0022 0168     		ldr	r1, [r0]
 273:Drivers/STM32F1xx_HAL_Driver/Src/stm32f1xx_hal_dma.c ****   {
 336              		.loc 1 273 6 view .LVU118
 337 0024 124A     		ldr	r2, .L22
 338 0026 9142     		cmp	r1, r2
 339 0028 15D8     		bhi	.L19
 276:Drivers/STM32F1xx_HAL_Driver/Src/stm32f1xx_hal_dma.c ****     hdma->DmaBaseAddress = DMA1;
 340              		.loc 1 276 5 is_stmt 1 view .LVU119
 276:Drivers/STM32F1xx_HAL_Driver/Src/stm32f1xx_hal_dma.c ****     hdma->DmaBaseAddress = DMA1;
 341              		.loc 1 276 53 is_stmt 0 view .LVU120
 342 002a 124A     		ldr	r2, .L22+4
 343 002c 0A44     		add	r2, r2, r1
 276:Drivers/STM32F1xx_HAL_Driver/Src/stm32f1xx_hal_dma.c ****     hdma->DmaBaseAddress = DMA1;
 344              		.loc 1 276 80 view .LVU121
 345 002e 1249     		ldr	r1, .L22+8
 346 0030 A1FB0212 		umull	r1, r2, r1, r2
 347 0034 1209     		lsrs	r2, r2, #4
 276:Drivers/STM32F1xx_HAL_Driver/Src/stm32f1xx_hal_dma.c ****     hdma->DmaBaseAddress = DMA1;
 348              		.loc 1 276 135 view .LVU122
 349 0036 9200     		lsls	r2, r2, #2
 276:Drivers/STM32F1xx_HAL_Driver/Src/stm32f1xx_hal_dma.c ****     hdma->DmaBaseAddress = DMA1;
 350              		.loc 1 276 24 view .LVU123
 351 0038 0264     		str	r2, [r0, #64]
 277:Drivers/STM32F1xx_HAL_Driver/Src/stm32f1xx_hal_dma.c ****   }
 352              		.loc 1 277 5 is_stmt 1 view .LVU124
 277:Drivers/STM32F1xx_HAL_Driver/Src/stm32f1xx_hal_dma.c ****   }
 353              		.loc 1 277 26 is_stmt 0 view .LVU125
 354 003a 104A     		ldr	r2, .L22+12
 355 003c C263     		str	r2, [r0, #60]
 356              	.L20:
 292:Drivers/STM32F1xx_HAL_Driver/Src/stm32f1xx_hal_dma.c **** 
 357              		.loc 1 292 3 is_stmt 1 view .LVU126
 292:Drivers/STM32F1xx_HAL_Driver/Src/stm32f1xx_hal_dma.c **** 
 358              		.loc 1 292 54 is_stmt 0 view .LVU127
 359 003e 186C     		ldr	r0, [r3, #64]
 360              	.LVL16:
 292:Drivers/STM32F1xx_HAL_Driver/Src/stm32f1xx_hal_dma.c **** 
 361              		.loc 1 292 7 view .LVU128
 362 0040 D96B     		ldr	r1, [r3, #60]
 292:Drivers/STM32F1xx_HAL_Driver/Src/stm32f1xx_hal_dma.c **** 
 363              		.loc 1 292 46 view .LVU129
 364 0042 0122     		movs	r2, #1
 365 0044 8240     		lsls	r2, r2, r0
 292:Drivers/STM32F1xx_HAL_Driver/Src/stm32f1xx_hal_dma.c **** 
 366              		.loc 1 292 30 view .LVU130
 367 0046 4A60     		str	r2, [r1, #4]
 295:Drivers/STM32F1xx_HAL_Driver/Src/stm32f1xx_hal_dma.c **** 
 368              		.loc 1 295 3 is_stmt 1 view .LVU131
 295:Drivers/STM32F1xx_HAL_Driver/Src/stm32f1xx_hal_dma.c **** 
 369              		.loc 1 295 19 is_stmt 0 view .LVU132
 370 0048 0020     		movs	r0, #0
ARM GAS  /tmp/cc4nKcdQ.s 			page 25


 371 004a 9863     		str	r0, [r3, #56]
 298:Drivers/STM32F1xx_HAL_Driver/Src/stm32f1xx_hal_dma.c **** 
 372              		.loc 1 298 3 is_stmt 1 view .LVU133
 298:Drivers/STM32F1xx_HAL_Driver/Src/stm32f1xx_hal_dma.c **** 
 373              		.loc 1 298 15 is_stmt 0 view .LVU134
 374 004c 83F82100 		strb	r0, [r3, #33]
 301:Drivers/STM32F1xx_HAL_Driver/Src/stm32f1xx_hal_dma.c **** 
 375              		.loc 1 301 3 is_stmt 1 view .LVU135
 301:Drivers/STM32F1xx_HAL_Driver/Src/stm32f1xx_hal_dma.c **** 
 376              		.loc 1 301 3 view .LVU136
 377 0050 83F82000 		strb	r0, [r3, #32]
 301:Drivers/STM32F1xx_HAL_Driver/Src/stm32f1xx_hal_dma.c **** 
 378              		.loc 1 301 3 view .LVU137
 303:Drivers/STM32F1xx_HAL_Driver/Src/stm32f1xx_hal_dma.c **** }
 379              		.loc 1 303 3 view .LVU138
 303:Drivers/STM32F1xx_HAL_Driver/Src/stm32f1xx_hal_dma.c **** }
 380              		.loc 1 303 10 is_stmt 0 view .LVU139
 381 0054 7047     		bx	lr
 382              	.LVL17:
 383              	.L19:
 282:Drivers/STM32F1xx_HAL_Driver/Src/stm32f1xx_hal_dma.c ****     hdma->DmaBaseAddress = DMA2;
 384              		.loc 1 282 5 is_stmt 1 view .LVU140
 282:Drivers/STM32F1xx_HAL_Driver/Src/stm32f1xx_hal_dma.c ****     hdma->DmaBaseAddress = DMA2;
 385              		.loc 1 282 53 is_stmt 0 view .LVU141
 386 0056 0A4A     		ldr	r2, .L22+16
 387 0058 0A44     		add	r2, r2, r1
 282:Drivers/STM32F1xx_HAL_Driver/Src/stm32f1xx_hal_dma.c ****     hdma->DmaBaseAddress = DMA2;
 388              		.loc 1 282 80 view .LVU142
 389 005a 0749     		ldr	r1, .L22+8
 390 005c A1FB0212 		umull	r1, r2, r1, r2
 391 0060 1209     		lsrs	r2, r2, #4
 282:Drivers/STM32F1xx_HAL_Driver/Src/stm32f1xx_hal_dma.c ****     hdma->DmaBaseAddress = DMA2;
 392              		.loc 1 282 135 view .LVU143
 393 0062 9200     		lsls	r2, r2, #2
 282:Drivers/STM32F1xx_HAL_Driver/Src/stm32f1xx_hal_dma.c ****     hdma->DmaBaseAddress = DMA2;
 394              		.loc 1 282 24 view .LVU144
 395 0064 0264     		str	r2, [r0, #64]
 283:Drivers/STM32F1xx_HAL_Driver/Src/stm32f1xx_hal_dma.c ****   }
 396              		.loc 1 283 5 is_stmt 1 view .LVU145
 283:Drivers/STM32F1xx_HAL_Driver/Src/stm32f1xx_hal_dma.c ****   }
 397              		.loc 1 283 26 is_stmt 0 view .LVU146
 398 0066 074A     		ldr	r2, .L22+20
 399 0068 C263     		str	r2, [r0, #60]
 400 006a E8E7     		b	.L20
 401              	.L21:
 250:Drivers/STM32F1xx_HAL_Driver/Src/stm32f1xx_hal_dma.c ****   }
 402              		.loc 1 250 12 view .LVU147
 403 006c 0120     		movs	r0, #1
 404              	.LVL18:
 304:Drivers/STM32F1xx_HAL_Driver/Src/stm32f1xx_hal_dma.c **** 
 405              		.loc 1 304 1 view .LVU148
 406 006e 7047     		bx	lr
 407              	.L23:
 408              		.align	2
 409              	.L22:
 410 0070 07040240 		.word	1073873927
 411 0074 F8FFFDBF 		.word	-1073872904
ARM GAS  /tmp/cc4nKcdQ.s 			page 26


 412 0078 CDCCCCCC 		.word	-858993459
 413 007c 00000240 		.word	1073872896
 414 0080 F8FBFDBF 		.word	-1073873928
 415 0084 00040240 		.word	1073873920
 416              		.cfi_endproc
 417              	.LFE67:
 419              		.section	.text.HAL_DMA_Start,"ax",%progbits
 420              		.align	1
 421              		.global	HAL_DMA_Start
 422              		.syntax unified
 423              		.thumb
 424              		.thumb_func
 425              		.fpu softvfp
 427              	HAL_DMA_Start:
 428              	.LVL19:
 429              	.LFB68:
 339:Drivers/STM32F1xx_HAL_Driver/Src/stm32f1xx_hal_dma.c ****   HAL_StatusTypeDef status = HAL_OK;
 430              		.loc 1 339 1 is_stmt 1 view -0
 431              		.cfi_startproc
 432              		@ args = 0, pretend = 0, frame = 0
 433              		@ frame_needed = 0, uses_anonymous_args = 0
 339:Drivers/STM32F1xx_HAL_Driver/Src/stm32f1xx_hal_dma.c ****   HAL_StatusTypeDef status = HAL_OK;
 434              		.loc 1 339 1 is_stmt 0 view .LVU150
 435 0000 70B5     		push	{r4, r5, r6, lr}
 436              	.LCFI7:
 437              		.cfi_def_cfa_offset 16
 438              		.cfi_offset 4, -16
 439              		.cfi_offset 5, -12
 440              		.cfi_offset 6, -8
 441              		.cfi_offset 14, -4
 442 0002 0446     		mov	r4, r0
 340:Drivers/STM32F1xx_HAL_Driver/Src/stm32f1xx_hal_dma.c **** 
 443              		.loc 1 340 3 is_stmt 1 view .LVU151
 444              	.LVL20:
 343:Drivers/STM32F1xx_HAL_Driver/Src/stm32f1xx_hal_dma.c **** 
 445              		.loc 1 343 3 view .LVU152
 346:Drivers/STM32F1xx_HAL_Driver/Src/stm32f1xx_hal_dma.c **** 
 446              		.loc 1 346 3 view .LVU153
 346:Drivers/STM32F1xx_HAL_Driver/Src/stm32f1xx_hal_dma.c **** 
 447              		.loc 1 346 3 view .LVU154
 448 0004 90F82000 		ldrb	r0, [r0, #32]	@ zero_extendqisi2
 449              	.LVL21:
 346:Drivers/STM32F1xx_HAL_Driver/Src/stm32f1xx_hal_dma.c **** 
 450              		.loc 1 346 3 is_stmt 0 view .LVU155
 451 0008 0128     		cmp	r0, #1
 452 000a 1FD0     		beq	.L27
 346:Drivers/STM32F1xx_HAL_Driver/Src/stm32f1xx_hal_dma.c **** 
 453              		.loc 1 346 3 is_stmt 1 discriminator 2 view .LVU156
 454 000c 0120     		movs	r0, #1
 455 000e 84F82000 		strb	r0, [r4, #32]
 346:Drivers/STM32F1xx_HAL_Driver/Src/stm32f1xx_hal_dma.c **** 
 456              		.loc 1 346 3 discriminator 2 view .LVU157
 348:Drivers/STM32F1xx_HAL_Driver/Src/stm32f1xx_hal_dma.c ****   {
 457              		.loc 1 348 3 discriminator 2 view .LVU158
 348:Drivers/STM32F1xx_HAL_Driver/Src/stm32f1xx_hal_dma.c ****   {
 458              		.loc 1 348 33 is_stmt 0 discriminator 2 view .LVU159
 459 0012 94F82100 		ldrb	r0, [r4, #33]	@ zero_extendqisi2
ARM GAS  /tmp/cc4nKcdQ.s 			page 27


 348:Drivers/STM32F1xx_HAL_Driver/Src/stm32f1xx_hal_dma.c ****   {
 460              		.loc 1 348 5 discriminator 2 view .LVU160
 461 0016 0128     		cmp	r0, #1
 462 0018 04D0     		beq	.L29
 366:Drivers/STM32F1xx_HAL_Driver/Src/stm32f1xx_hal_dma.c ****    status = HAL_BUSY;
 463              		.loc 1 366 4 is_stmt 1 view .LVU161
 366:Drivers/STM32F1xx_HAL_Driver/Src/stm32f1xx_hal_dma.c ****    status = HAL_BUSY;
 464              		.loc 1 366 4 view .LVU162
 465 001a 0023     		movs	r3, #0
 466              	.LVL22:
 366:Drivers/STM32F1xx_HAL_Driver/Src/stm32f1xx_hal_dma.c ****    status = HAL_BUSY;
 467              		.loc 1 366 4 is_stmt 0 view .LVU163
 468 001c 84F82030 		strb	r3, [r4, #32]
 366:Drivers/STM32F1xx_HAL_Driver/Src/stm32f1xx_hal_dma.c ****    status = HAL_BUSY;
 469              		.loc 1 366 4 is_stmt 1 view .LVU164
 367:Drivers/STM32F1xx_HAL_Driver/Src/stm32f1xx_hal_dma.c ****   }  
 470              		.loc 1 367 4 view .LVU165
 471              	.LVL23:
 367:Drivers/STM32F1xx_HAL_Driver/Src/stm32f1xx_hal_dma.c ****   }  
 472              		.loc 1 367 11 is_stmt 0 view .LVU166
 473 0020 0220     		movs	r0, #2
 474              	.LVL24:
 475              	.L25:
 370:Drivers/STM32F1xx_HAL_Driver/Src/stm32f1xx_hal_dma.c **** 
 476              		.loc 1 370 1 view .LVU167
 477 0022 70BD     		pop	{r4, r5, r6, pc}
 478              	.LVL25:
 479              	.L29:
 351:Drivers/STM32F1xx_HAL_Driver/Src/stm32f1xx_hal_dma.c ****     hdma->ErrorCode = HAL_DMA_ERROR_NONE;
 480              		.loc 1 351 5 is_stmt 1 view .LVU168
 351:Drivers/STM32F1xx_HAL_Driver/Src/stm32f1xx_hal_dma.c ****     hdma->ErrorCode = HAL_DMA_ERROR_NONE;
 481              		.loc 1 351 17 is_stmt 0 view .LVU169
 482 0024 0220     		movs	r0, #2
 483 0026 84F82100 		strb	r0, [r4, #33]
 352:Drivers/STM32F1xx_HAL_Driver/Src/stm32f1xx_hal_dma.c ****             
 484              		.loc 1 352 5 is_stmt 1 view .LVU170
 352:Drivers/STM32F1xx_HAL_Driver/Src/stm32f1xx_hal_dma.c ****             
 485              		.loc 1 352 21 is_stmt 0 view .LVU171
 486 002a 0025     		movs	r5, #0
 487 002c A563     		str	r5, [r4, #56]
 355:Drivers/STM32F1xx_HAL_Driver/Src/stm32f1xx_hal_dma.c ****     
 488              		.loc 1 355 5 is_stmt 1 view .LVU172
 489 002e 2668     		ldr	r6, [r4]
 490 0030 3068     		ldr	r0, [r6]
 491 0032 20F00100 		bic	r0, r0, #1
 492 0036 3060     		str	r0, [r6]
 358:Drivers/STM32F1xx_HAL_Driver/Src/stm32f1xx_hal_dma.c ****     
 493              		.loc 1 358 5 view .LVU173
 494 0038 2046     		mov	r0, r4
 495 003a FFF7FEFF 		bl	DMA_SetConfig
 496              	.LVL26:
 361:Drivers/STM32F1xx_HAL_Driver/Src/stm32f1xx_hal_dma.c ****   }
 497              		.loc 1 361 5 view .LVU174
 498 003e 2268     		ldr	r2, [r4]
 499 0040 1368     		ldr	r3, [r2]
 500 0042 43F00103 		orr	r3, r3, #1
 501 0046 1360     		str	r3, [r2]
ARM GAS  /tmp/cc4nKcdQ.s 			page 28


 340:Drivers/STM32F1xx_HAL_Driver/Src/stm32f1xx_hal_dma.c **** 
 502              		.loc 1 340 21 is_stmt 0 view .LVU175
 503 0048 2846     		mov	r0, r5
 504 004a EAE7     		b	.L25
 505              	.LVL27:
 506              	.L27:
 346:Drivers/STM32F1xx_HAL_Driver/Src/stm32f1xx_hal_dma.c **** 
 507              		.loc 1 346 3 view .LVU176
 508 004c 0220     		movs	r0, #2
 509 004e E8E7     		b	.L25
 510              		.cfi_endproc
 511              	.LFE68:
 513              		.section	.text.HAL_DMA_Start_IT,"ax",%progbits
 514              		.align	1
 515              		.global	HAL_DMA_Start_IT
 516              		.syntax unified
 517              		.thumb
 518              		.thumb_func
 519              		.fpu softvfp
 521              	HAL_DMA_Start_IT:
 522              	.LVL28:
 523              	.LFB69:
 382:Drivers/STM32F1xx_HAL_Driver/Src/stm32f1xx_hal_dma.c ****   HAL_StatusTypeDef status = HAL_OK;
 524              		.loc 1 382 1 is_stmt 1 view -0
 525              		.cfi_startproc
 526              		@ args = 0, pretend = 0, frame = 0
 527              		@ frame_needed = 0, uses_anonymous_args = 0
 382:Drivers/STM32F1xx_HAL_Driver/Src/stm32f1xx_hal_dma.c ****   HAL_StatusTypeDef status = HAL_OK;
 528              		.loc 1 382 1 is_stmt 0 view .LVU178
 529 0000 38B5     		push	{r3, r4, r5, lr}
 530              	.LCFI8:
 531              		.cfi_def_cfa_offset 16
 532              		.cfi_offset 3, -16
 533              		.cfi_offset 4, -12
 534              		.cfi_offset 5, -8
 535              		.cfi_offset 14, -4
 536 0002 0446     		mov	r4, r0
 383:Drivers/STM32F1xx_HAL_Driver/Src/stm32f1xx_hal_dma.c **** 
 537              		.loc 1 383 3 is_stmt 1 view .LVU179
 538              	.LVL29:
 386:Drivers/STM32F1xx_HAL_Driver/Src/stm32f1xx_hal_dma.c **** 
 539              		.loc 1 386 3 view .LVU180
 389:Drivers/STM32F1xx_HAL_Driver/Src/stm32f1xx_hal_dma.c ****   
 540              		.loc 1 389 3 view .LVU181
 389:Drivers/STM32F1xx_HAL_Driver/Src/stm32f1xx_hal_dma.c ****   
 541              		.loc 1 389 3 view .LVU182
 542 0004 90F82000 		ldrb	r0, [r0, #32]	@ zero_extendqisi2
 543              	.LVL30:
 389:Drivers/STM32F1xx_HAL_Driver/Src/stm32f1xx_hal_dma.c ****   
 544              		.loc 1 389 3 is_stmt 0 view .LVU183
 545 0008 0128     		cmp	r0, #1
 546 000a 31D0     		beq	.L35
 389:Drivers/STM32F1xx_HAL_Driver/Src/stm32f1xx_hal_dma.c ****   
 547              		.loc 1 389 3 is_stmt 1 discriminator 2 view .LVU184
 548 000c 0120     		movs	r0, #1
 549 000e 84F82000 		strb	r0, [r4, #32]
 389:Drivers/STM32F1xx_HAL_Driver/Src/stm32f1xx_hal_dma.c ****   
ARM GAS  /tmp/cc4nKcdQ.s 			page 29


 550              		.loc 1 389 3 discriminator 2 view .LVU185
 391:Drivers/STM32F1xx_HAL_Driver/Src/stm32f1xx_hal_dma.c ****   {
 551              		.loc 1 391 3 discriminator 2 view .LVU186
 391:Drivers/STM32F1xx_HAL_Driver/Src/stm32f1xx_hal_dma.c ****   {
 552              		.loc 1 391 33 is_stmt 0 discriminator 2 view .LVU187
 553 0012 94F82100 		ldrb	r0, [r4, #33]	@ zero_extendqisi2
 391:Drivers/STM32F1xx_HAL_Driver/Src/stm32f1xx_hal_dma.c ****   {
 554              		.loc 1 391 5 discriminator 2 view .LVU188
 555 0016 0128     		cmp	r0, #1
 556 0018 04D0     		beq	.L37
 421:Drivers/STM32F1xx_HAL_Driver/Src/stm32f1xx_hal_dma.c **** 
 557              		.loc 1 421 5 is_stmt 1 view .LVU189
 421:Drivers/STM32F1xx_HAL_Driver/Src/stm32f1xx_hal_dma.c **** 
 558              		.loc 1 421 5 view .LVU190
 559 001a 0023     		movs	r3, #0
 560              	.LVL31:
 421:Drivers/STM32F1xx_HAL_Driver/Src/stm32f1xx_hal_dma.c **** 
 561              		.loc 1 421 5 is_stmt 0 view .LVU191
 562 001c 84F82030 		strb	r3, [r4, #32]
 421:Drivers/STM32F1xx_HAL_Driver/Src/stm32f1xx_hal_dma.c **** 
 563              		.loc 1 421 5 is_stmt 1 view .LVU192
 424:Drivers/STM32F1xx_HAL_Driver/Src/stm32f1xx_hal_dma.c ****   }    
 564              		.loc 1 424 5 view .LVU193
 565              	.LVL32:
 424:Drivers/STM32F1xx_HAL_Driver/Src/stm32f1xx_hal_dma.c ****   }    
 566              		.loc 1 424 12 is_stmt 0 view .LVU194
 567 0020 0220     		movs	r0, #2
 568              	.LVL33:
 569              	.L31:
 427:Drivers/STM32F1xx_HAL_Driver/Src/stm32f1xx_hal_dma.c **** 
 570              		.loc 1 427 1 view .LVU195
 571 0022 38BD     		pop	{r3, r4, r5, pc}
 572              	.LVL34:
 573              	.L37:
 394:Drivers/STM32F1xx_HAL_Driver/Src/stm32f1xx_hal_dma.c ****     hdma->ErrorCode = HAL_DMA_ERROR_NONE;
 574              		.loc 1 394 5 is_stmt 1 view .LVU196
 394:Drivers/STM32F1xx_HAL_Driver/Src/stm32f1xx_hal_dma.c ****     hdma->ErrorCode = HAL_DMA_ERROR_NONE;
 575              		.loc 1 394 17 is_stmt 0 view .LVU197
 576 0024 0220     		movs	r0, #2
 577 0026 84F82100 		strb	r0, [r4, #33]
 395:Drivers/STM32F1xx_HAL_Driver/Src/stm32f1xx_hal_dma.c ****     
 578              		.loc 1 395 5 is_stmt 1 view .LVU198
 395:Drivers/STM32F1xx_HAL_Driver/Src/stm32f1xx_hal_dma.c ****     
 579              		.loc 1 395 21 is_stmt 0 view .LVU199
 580 002a 0020     		movs	r0, #0
 581 002c A063     		str	r0, [r4, #56]
 398:Drivers/STM32F1xx_HAL_Driver/Src/stm32f1xx_hal_dma.c ****     
 582              		.loc 1 398 5 is_stmt 1 view .LVU200
 583 002e 2568     		ldr	r5, [r4]
 584 0030 2868     		ldr	r0, [r5]
 585 0032 20F00100 		bic	r0, r0, #1
 586 0036 2860     		str	r0, [r5]
 401:Drivers/STM32F1xx_HAL_Driver/Src/stm32f1xx_hal_dma.c ****     
 587              		.loc 1 401 5 view .LVU201
 588 0038 2046     		mov	r0, r4
 589 003a FFF7FEFF 		bl	DMA_SetConfig
 590              	.LVL35:
ARM GAS  /tmp/cc4nKcdQ.s 			page 30


 405:Drivers/STM32F1xx_HAL_Driver/Src/stm32f1xx_hal_dma.c ****     {
 591              		.loc 1 405 5 view .LVU202
 405:Drivers/STM32F1xx_HAL_Driver/Src/stm32f1xx_hal_dma.c ****     {
 592              		.loc 1 405 20 is_stmt 0 view .LVU203
 593 003e E36A     		ldr	r3, [r4, #44]
 405:Drivers/STM32F1xx_HAL_Driver/Src/stm32f1xx_hal_dma.c ****     {
 594              		.loc 1 405 7 view .LVU204
 595 0040 5BB1     		cbz	r3, .L33
 408:Drivers/STM32F1xx_HAL_Driver/Src/stm32f1xx_hal_dma.c ****     }
 596              		.loc 1 408 7 is_stmt 1 view .LVU205
 597 0042 2268     		ldr	r2, [r4]
 598 0044 1368     		ldr	r3, [r2]
 599 0046 43F00E03 		orr	r3, r3, #14
 600 004a 1360     		str	r3, [r2]
 601              	.L34:
 416:Drivers/STM32F1xx_HAL_Driver/Src/stm32f1xx_hal_dma.c ****   }
 602              		.loc 1 416 5 view .LVU206
 603 004c 2268     		ldr	r2, [r4]
 604 004e 1368     		ldr	r3, [r2]
 605 0050 43F00103 		orr	r3, r3, #1
 606 0054 1360     		str	r3, [r2]
 383:Drivers/STM32F1xx_HAL_Driver/Src/stm32f1xx_hal_dma.c **** 
 607              		.loc 1 383 21 is_stmt 0 view .LVU207
 608 0056 0020     		movs	r0, #0
 609 0058 E3E7     		b	.L31
 610              	.L33:
 412:Drivers/STM32F1xx_HAL_Driver/Src/stm32f1xx_hal_dma.c ****       __HAL_DMA_ENABLE_IT(hdma, (DMA_IT_TC | DMA_IT_TE));
 611              		.loc 1 412 7 is_stmt 1 view .LVU208
 612 005a 2268     		ldr	r2, [r4]
 613 005c 1368     		ldr	r3, [r2]
 614 005e 23F00403 		bic	r3, r3, #4
 615 0062 1360     		str	r3, [r2]
 413:Drivers/STM32F1xx_HAL_Driver/Src/stm32f1xx_hal_dma.c ****     }
 616              		.loc 1 413 7 view .LVU209
 617 0064 2268     		ldr	r2, [r4]
 618 0066 1368     		ldr	r3, [r2]
 619 0068 43F00A03 		orr	r3, r3, #10
 620 006c 1360     		str	r3, [r2]
 621 006e EDE7     		b	.L34
 622              	.LVL36:
 623              	.L35:
 389:Drivers/STM32F1xx_HAL_Driver/Src/stm32f1xx_hal_dma.c ****   
 624              		.loc 1 389 3 is_stmt 0 view .LVU210
 625 0070 0220     		movs	r0, #2
 626 0072 D6E7     		b	.L31
 627              		.cfi_endproc
 628              	.LFE69:
 630              		.section	.text.HAL_DMA_Abort,"ax",%progbits
 631              		.align	1
 632              		.global	HAL_DMA_Abort
 633              		.syntax unified
 634              		.thumb
 635              		.thumb_func
 636              		.fpu softvfp
 638              	HAL_DMA_Abort:
 639              	.LVL37:
 640              	.LFB70:
ARM GAS  /tmp/cc4nKcdQ.s 			page 31


 436:Drivers/STM32F1xx_HAL_Driver/Src/stm32f1xx_hal_dma.c ****   HAL_StatusTypeDef status = HAL_OK;
 641              		.loc 1 436 1 is_stmt 1 view -0
 642              		.cfi_startproc
 643              		@ args = 0, pretend = 0, frame = 0
 644              		@ frame_needed = 0, uses_anonymous_args = 0
 645              		@ link register save eliminated.
 436:Drivers/STM32F1xx_HAL_Driver/Src/stm32f1xx_hal_dma.c ****   HAL_StatusTypeDef status = HAL_OK;
 646              		.loc 1 436 1 is_stmt 0 view .LVU212
 647 0000 0346     		mov	r3, r0
 437:Drivers/STM32F1xx_HAL_Driver/Src/stm32f1xx_hal_dma.c **** 
 648              		.loc 1 437 3 is_stmt 1 view .LVU213
 649              	.LVL38:
 440:Drivers/STM32F1xx_HAL_Driver/Src/stm32f1xx_hal_dma.c ****     
 650              		.loc 1 440 3 view .LVU214
 651 0002 0168     		ldr	r1, [r0]
 652 0004 0A68     		ldr	r2, [r1]
 653 0006 22F00E02 		bic	r2, r2, #14
 654 000a 0A60     		str	r2, [r1]
 443:Drivers/STM32F1xx_HAL_Driver/Src/stm32f1xx_hal_dma.c ****     
 655              		.loc 1 443 3 view .LVU215
 656 000c 0168     		ldr	r1, [r0]
 657 000e 0A68     		ldr	r2, [r1]
 658 0010 22F00102 		bic	r2, r2, #1
 659 0014 0A60     		str	r2, [r1]
 446:Drivers/STM32F1xx_HAL_Driver/Src/stm32f1xx_hal_dma.c **** 
 660              		.loc 1 446 3 view .LVU216
 446:Drivers/STM32F1xx_HAL_Driver/Src/stm32f1xx_hal_dma.c **** 
 661              		.loc 1 446 53 is_stmt 0 view .LVU217
 662 0016 026C     		ldr	r2, [r0, #64]
 446:Drivers/STM32F1xx_HAL_Driver/Src/stm32f1xx_hal_dma.c **** 
 663              		.loc 1 446 7 view .LVU218
 664 0018 C06B     		ldr	r0, [r0, #60]
 665              	.LVL39:
 446:Drivers/STM32F1xx_HAL_Driver/Src/stm32f1xx_hal_dma.c **** 
 666              		.loc 1 446 46 view .LVU219
 667 001a 0121     		movs	r1, #1
 668 001c 01FA02F2 		lsl	r2, r1, r2
 446:Drivers/STM32F1xx_HAL_Driver/Src/stm32f1xx_hal_dma.c **** 
 669              		.loc 1 446 30 view .LVU220
 670 0020 4260     		str	r2, [r0, #4]
 449:Drivers/STM32F1xx_HAL_Driver/Src/stm32f1xx_hal_dma.c **** 
 671              		.loc 1 449 3 is_stmt 1 view .LVU221
 449:Drivers/STM32F1xx_HAL_Driver/Src/stm32f1xx_hal_dma.c **** 
 672              		.loc 1 449 15 is_stmt 0 view .LVU222
 673 0022 83F82110 		strb	r1, [r3, #33]
 452:Drivers/STM32F1xx_HAL_Driver/Src/stm32f1xx_hal_dma.c ****   
 674              		.loc 1 452 3 is_stmt 1 view .LVU223
 452:Drivers/STM32F1xx_HAL_Driver/Src/stm32f1xx_hal_dma.c ****   
 675              		.loc 1 452 3 view .LVU224
 676 0026 0020     		movs	r0, #0
 677 0028 83F82000 		strb	r0, [r3, #32]
 452:Drivers/STM32F1xx_HAL_Driver/Src/stm32f1xx_hal_dma.c ****   
 678              		.loc 1 452 3 view .LVU225
 454:Drivers/STM32F1xx_HAL_Driver/Src/stm32f1xx_hal_dma.c **** }
 679              		.loc 1 454 3 view .LVU226
 455:Drivers/STM32F1xx_HAL_Driver/Src/stm32f1xx_hal_dma.c **** 
 680              		.loc 1 455 1 is_stmt 0 view .LVU227
ARM GAS  /tmp/cc4nKcdQ.s 			page 32


 681 002c 7047     		bx	lr
 682              		.cfi_endproc
 683              	.LFE70:
 685              		.section	.text.HAL_DMA_Abort_IT,"ax",%progbits
 686              		.align	1
 687              		.global	HAL_DMA_Abort_IT
 688              		.syntax unified
 689              		.thumb
 690              		.thumb_func
 691              		.fpu softvfp
 693              	HAL_DMA_Abort_IT:
 694              	.LVL40:
 695              	.LFB71:
 464:Drivers/STM32F1xx_HAL_Driver/Src/stm32f1xx_hal_dma.c ****   HAL_StatusTypeDef status = HAL_OK;
 696              		.loc 1 464 1 is_stmt 1 view -0
 697              		.cfi_startproc
 698              		@ args = 0, pretend = 0, frame = 0
 699              		@ frame_needed = 0, uses_anonymous_args = 0
 464:Drivers/STM32F1xx_HAL_Driver/Src/stm32f1xx_hal_dma.c ****   HAL_StatusTypeDef status = HAL_OK;
 700              		.loc 1 464 1 is_stmt 0 view .LVU229
 701 0000 08B5     		push	{r3, lr}
 702              	.LCFI9:
 703              		.cfi_def_cfa_offset 8
 704              		.cfi_offset 3, -8
 705              		.cfi_offset 14, -4
 465:Drivers/STM32F1xx_HAL_Driver/Src/stm32f1xx_hal_dma.c ****   
 706              		.loc 1 465 3 is_stmt 1 view .LVU230
 707              	.LVL41:
 467:Drivers/STM32F1xx_HAL_Driver/Src/stm32f1xx_hal_dma.c ****   {
 708              		.loc 1 467 3 view .LVU231
 467:Drivers/STM32F1xx_HAL_Driver/Src/stm32f1xx_hal_dma.c ****   {
 709              		.loc 1 467 32 is_stmt 0 view .LVU232
 710 0002 90F82130 		ldrb	r3, [r0, #33]	@ zero_extendqisi2
 467:Drivers/STM32F1xx_HAL_Driver/Src/stm32f1xx_hal_dma.c ****   {
 711              		.loc 1 467 5 view .LVU233
 712 0006 022B     		cmp	r3, #2
 713 0008 03D0     		beq	.L40
 470:Drivers/STM32F1xx_HAL_Driver/Src/stm32f1xx_hal_dma.c ****         
 714              		.loc 1 470 5 is_stmt 1 view .LVU234
 470:Drivers/STM32F1xx_HAL_Driver/Src/stm32f1xx_hal_dma.c ****         
 715              		.loc 1 470 21 is_stmt 0 view .LVU235
 716 000a 0423     		movs	r3, #4
 717 000c 8363     		str	r3, [r0, #56]
 472:Drivers/STM32F1xx_HAL_Driver/Src/stm32f1xx_hal_dma.c ****   }
 718              		.loc 1 472 5 is_stmt 1 view .LVU236
 719              	.LVL42:
 472:Drivers/STM32F1xx_HAL_Driver/Src/stm32f1xx_hal_dma.c ****   }
 720              		.loc 1 472 12 is_stmt 0 view .LVU237
 721 000e 0120     		movs	r0, #1
 722              	.LVL43:
 723              	.L41:
 497:Drivers/STM32F1xx_HAL_Driver/Src/stm32f1xx_hal_dma.c **** }
 724              		.loc 1 497 3 is_stmt 1 view .LVU238
 498:Drivers/STM32F1xx_HAL_Driver/Src/stm32f1xx_hal_dma.c **** 
 725              		.loc 1 498 1 is_stmt 0 view .LVU239
 726 0010 08BD     		pop	{r3, pc}
 727              	.LVL44:
ARM GAS  /tmp/cc4nKcdQ.s 			page 33


 728              	.L40:
 477:Drivers/STM32F1xx_HAL_Driver/Src/stm32f1xx_hal_dma.c **** 
 729              		.loc 1 477 5 is_stmt 1 view .LVU240
 730 0012 0268     		ldr	r2, [r0]
 731 0014 1368     		ldr	r3, [r2]
 732 0016 23F00E03 		bic	r3, r3, #14
 733 001a 1360     		str	r3, [r2]
 480:Drivers/STM32F1xx_HAL_Driver/Src/stm32f1xx_hal_dma.c **** 
 734              		.loc 1 480 5 view .LVU241
 735 001c 0268     		ldr	r2, [r0]
 736 001e 1368     		ldr	r3, [r2]
 737 0020 23F00103 		bic	r3, r3, #1
 738 0024 1360     		str	r3, [r2]
 483:Drivers/STM32F1xx_HAL_Driver/Src/stm32f1xx_hal_dma.c **** 
 739              		.loc 1 483 5 view .LVU242
 740 0026 0368     		ldr	r3, [r0]
 741 0028 4B4A     		ldr	r2, .L72
 742 002a 9342     		cmp	r3, r2
 743 002c 4ED9     		bls	.L42
 483:Drivers/STM32F1xx_HAL_Driver/Src/stm32f1xx_hal_dma.c **** 
 744              		.loc 1 483 5 is_stmt 0 discriminator 1 view .LVU243
 745 002e 783A     		subs	r2, r2, #120
 746 0030 9342     		cmp	r3, r2
 747 0032 24D0     		beq	.L46
 483:Drivers/STM32F1xx_HAL_Driver/Src/stm32f1xx_hal_dma.c **** 
 748              		.loc 1 483 5 discriminator 3 view .LVU244
 749 0034 1432     		adds	r2, r2, #20
 750 0036 9342     		cmp	r3, r2
 751 0038 30D0     		beq	.L47
 483:Drivers/STM32F1xx_HAL_Driver/Src/stm32f1xx_hal_dma.c **** 
 752              		.loc 1 483 5 discriminator 5 view .LVU245
 753 003a 1432     		adds	r2, r2, #20
 754 003c 9342     		cmp	r3, r2
 755 003e 2FD0     		beq	.L48
 483:Drivers/STM32F1xx_HAL_Driver/Src/stm32f1xx_hal_dma.c **** 
 756              		.loc 1 483 5 discriminator 7 view .LVU246
 757 0040 1432     		adds	r2, r2, #20
 758 0042 9342     		cmp	r3, r2
 759 0044 2FD0     		beq	.L49
 483:Drivers/STM32F1xx_HAL_Driver/Src/stm32f1xx_hal_dma.c **** 
 760              		.loc 1 483 5 discriminator 9 view .LVU247
 761 0046 1432     		adds	r2, r2, #20
 762 0048 9342     		cmp	r3, r2
 763 004a 2FD0     		beq	.L50
 483:Drivers/STM32F1xx_HAL_Driver/Src/stm32f1xx_hal_dma.c **** 
 764              		.loc 1 483 5 discriminator 11 view .LVU248
 765 004c 1432     		adds	r2, r2, #20
 766 004e 9342     		cmp	r3, r2
 767 0050 2FD0     		beq	.L51
 483:Drivers/STM32F1xx_HAL_Driver/Src/stm32f1xx_hal_dma.c **** 
 768              		.loc 1 483 5 discriminator 13 view .LVU249
 769 0052 1432     		adds	r2, r2, #20
 770 0054 9342     		cmp	r3, r2
 771 0056 2FD0     		beq	.L52
 483:Drivers/STM32F1xx_HAL_Driver/Src/stm32f1xx_hal_dma.c **** 
 772              		.loc 1 483 5 discriminator 15 view .LVU250
 773 0058 02F56272 		add	r2, r2, #904
ARM GAS  /tmp/cc4nKcdQ.s 			page 34


 774 005c 9342     		cmp	r3, r2
 775 005e 2ED0     		beq	.L53
 483:Drivers/STM32F1xx_HAL_Driver/Src/stm32f1xx_hal_dma.c **** 
 776              		.loc 1 483 5 discriminator 17 view .LVU251
 777 0060 1432     		adds	r2, r2, #20
 778 0062 9342     		cmp	r3, r2
 779 0064 2DD0     		beq	.L54
 483:Drivers/STM32F1xx_HAL_Driver/Src/stm32f1xx_hal_dma.c **** 
 780              		.loc 1 483 5 discriminator 19 view .LVU252
 781 0066 1432     		adds	r2, r2, #20
 782 0068 9342     		cmp	r3, r2
 783 006a 2CD0     		beq	.L55
 483:Drivers/STM32F1xx_HAL_Driver/Src/stm32f1xx_hal_dma.c **** 
 784              		.loc 1 483 5 discriminator 21 view .LVU253
 785 006c 1432     		adds	r2, r2, #20
 786 006e 9342     		cmp	r3, r2
 787 0070 02D0     		beq	.L70
 483:Drivers/STM32F1xx_HAL_Driver/Src/stm32f1xx_hal_dma.c **** 
 788              		.loc 1 483 5 view .LVU254
 789 0072 4FF48032 		mov	r2, #65536
 790 0076 03E0     		b	.L43
 791              	.L70:
 792 0078 4FF48052 		mov	r2, #4096
 793 007c 00E0     		b	.L43
 794              	.L46:
 795 007e 0122     		movs	r2, #1
 796              	.L43:
 483:Drivers/STM32F1xx_HAL_Driver/Src/stm32f1xx_hal_dma.c **** 
 797              		.loc 1 483 5 discriminator 46 view .LVU255
 798 0080 364B     		ldr	r3, .L72+4
 799 0082 5A60     		str	r2, [r3, #4]
 800              	.L44:
 486:Drivers/STM32F1xx_HAL_Driver/Src/stm32f1xx_hal_dma.c **** 
 801              		.loc 1 486 5 is_stmt 1 view .LVU256
 486:Drivers/STM32F1xx_HAL_Driver/Src/stm32f1xx_hal_dma.c **** 
 802              		.loc 1 486 17 is_stmt 0 view .LVU257
 803 0084 0123     		movs	r3, #1
 804 0086 80F82130 		strb	r3, [r0, #33]
 489:Drivers/STM32F1xx_HAL_Driver/Src/stm32f1xx_hal_dma.c **** 
 805              		.loc 1 489 5 is_stmt 1 view .LVU258
 489:Drivers/STM32F1xx_HAL_Driver/Src/stm32f1xx_hal_dma.c **** 
 806              		.loc 1 489 5 view .LVU259
 807 008a 0023     		movs	r3, #0
 808 008c 80F82030 		strb	r3, [r0, #32]
 489:Drivers/STM32F1xx_HAL_Driver/Src/stm32f1xx_hal_dma.c **** 
 809              		.loc 1 489 5 view .LVU260
 492:Drivers/STM32F1xx_HAL_Driver/Src/stm32f1xx_hal_dma.c ****     {
 810              		.loc 1 492 5 view .LVU261
 492:Drivers/STM32F1xx_HAL_Driver/Src/stm32f1xx_hal_dma.c ****     {
 811              		.loc 1 492 12 is_stmt 0 view .LVU262
 812 0090 436B     		ldr	r3, [r0, #52]
 492:Drivers/STM32F1xx_HAL_Driver/Src/stm32f1xx_hal_dma.c ****     {
 813              		.loc 1 492 7 view .LVU263
 814 0092 002B     		cmp	r3, #0
 815 0094 5ED0     		beq	.L68
 494:Drivers/STM32F1xx_HAL_Driver/Src/stm32f1xx_hal_dma.c ****     } 
 816              		.loc 1 494 7 is_stmt 1 view .LVU264
ARM GAS  /tmp/cc4nKcdQ.s 			page 35


 817 0096 9847     		blx	r3
 818              	.LVL45:
 465:Drivers/STM32F1xx_HAL_Driver/Src/stm32f1xx_hal_dma.c ****   
 819              		.loc 1 465 21 is_stmt 0 view .LVU265
 820 0098 0020     		movs	r0, #0
 821 009a B9E7     		b	.L41
 822              	.LVL46:
 823              	.L47:
 483:Drivers/STM32F1xx_HAL_Driver/Src/stm32f1xx_hal_dma.c **** 
 824              		.loc 1 483 5 view .LVU266
 825 009c 1022     		movs	r2, #16
 826 009e EFE7     		b	.L43
 827              	.L48:
 828 00a0 4FF48072 		mov	r2, #256
 829 00a4 ECE7     		b	.L43
 830              	.L49:
 831 00a6 4FF48052 		mov	r2, #4096
 832 00aa E9E7     		b	.L43
 833              	.L50:
 834 00ac 4FF48032 		mov	r2, #65536
 835 00b0 E6E7     		b	.L43
 836              	.L51:
 837 00b2 4FF48012 		mov	r2, #1048576
 838 00b6 E3E7     		b	.L43
 839              	.L52:
 840 00b8 4FF08072 		mov	r2, #16777216
 841 00bc E0E7     		b	.L43
 842              	.L53:
 843 00be 0122     		movs	r2, #1
 844 00c0 DEE7     		b	.L43
 845              	.L54:
 846 00c2 1022     		movs	r2, #16
 847 00c4 DCE7     		b	.L43
 848              	.L55:
 849 00c6 4FF48072 		mov	r2, #256
 850 00ca D9E7     		b	.L43
 851              	.L42:
 483:Drivers/STM32F1xx_HAL_Driver/Src/stm32f1xx_hal_dma.c **** 
 852              		.loc 1 483 5 discriminator 2 view .LVU267
 853 00cc 244A     		ldr	r2, .L72+8
 854 00ce 9342     		cmp	r3, r2
 855 00d0 24D0     		beq	.L57
 483:Drivers/STM32F1xx_HAL_Driver/Src/stm32f1xx_hal_dma.c **** 
 856              		.loc 1 483 5 discriminator 47 view .LVU268
 857 00d2 1432     		adds	r2, r2, #20
 858 00d4 9342     		cmp	r3, r2
 859 00d6 25D0     		beq	.L58
 483:Drivers/STM32F1xx_HAL_Driver/Src/stm32f1xx_hal_dma.c **** 
 860              		.loc 1 483 5 discriminator 49 view .LVU269
 861 00d8 1432     		adds	r2, r2, #20
 862 00da 9342     		cmp	r3, r2
 863 00dc 24D0     		beq	.L59
 483:Drivers/STM32F1xx_HAL_Driver/Src/stm32f1xx_hal_dma.c **** 
 864              		.loc 1 483 5 discriminator 51 view .LVU270
 865 00de 1432     		adds	r2, r2, #20
 866 00e0 9342     		cmp	r3, r2
 867 00e2 24D0     		beq	.L60
ARM GAS  /tmp/cc4nKcdQ.s 			page 36


 483:Drivers/STM32F1xx_HAL_Driver/Src/stm32f1xx_hal_dma.c **** 
 868              		.loc 1 483 5 discriminator 53 view .LVU271
 869 00e4 1432     		adds	r2, r2, #20
 870 00e6 9342     		cmp	r3, r2
 871 00e8 24D0     		beq	.L61
 483:Drivers/STM32F1xx_HAL_Driver/Src/stm32f1xx_hal_dma.c **** 
 872              		.loc 1 483 5 discriminator 55 view .LVU272
 873 00ea 1432     		adds	r2, r2, #20
 874 00ec 9342     		cmp	r3, r2
 875 00ee 24D0     		beq	.L62
 483:Drivers/STM32F1xx_HAL_Driver/Src/stm32f1xx_hal_dma.c **** 
 876              		.loc 1 483 5 discriminator 57 view .LVU273
 877 00f0 1432     		adds	r2, r2, #20
 878 00f2 9342     		cmp	r3, r2
 879 00f4 24D0     		beq	.L63
 483:Drivers/STM32F1xx_HAL_Driver/Src/stm32f1xx_hal_dma.c **** 
 880              		.loc 1 483 5 discriminator 59 view .LVU274
 881 00f6 02F56272 		add	r2, r2, #904
 882 00fa 9342     		cmp	r3, r2
 883 00fc 23D0     		beq	.L64
 483:Drivers/STM32F1xx_HAL_Driver/Src/stm32f1xx_hal_dma.c **** 
 884              		.loc 1 483 5 discriminator 61 view .LVU275
 885 00fe 1432     		adds	r2, r2, #20
 886 0100 9342     		cmp	r3, r2
 887 0102 22D0     		beq	.L65
 483:Drivers/STM32F1xx_HAL_Driver/Src/stm32f1xx_hal_dma.c **** 
 888              		.loc 1 483 5 discriminator 63 view .LVU276
 889 0104 1432     		adds	r2, r2, #20
 890 0106 9342     		cmp	r3, r2
 891 0108 21D0     		beq	.L66
 483:Drivers/STM32F1xx_HAL_Driver/Src/stm32f1xx_hal_dma.c **** 
 892              		.loc 1 483 5 discriminator 65 view .LVU277
 893 010a 1432     		adds	r2, r2, #20
 894 010c 9342     		cmp	r3, r2
 895 010e 02D0     		beq	.L71
 483:Drivers/STM32F1xx_HAL_Driver/Src/stm32f1xx_hal_dma.c **** 
 896              		.loc 1 483 5 view .LVU278
 897 0110 4FF48032 		mov	r2, #65536
 898 0114 03E0     		b	.L45
 899              	.L71:
 900 0116 4FF48052 		mov	r2, #4096
 901 011a 00E0     		b	.L45
 902              	.L57:
 903 011c 0122     		movs	r2, #1
 904              	.L45:
 483:Drivers/STM32F1xx_HAL_Driver/Src/stm32f1xx_hal_dma.c **** 
 905              		.loc 1 483 5 discriminator 90 view .LVU279
 906 011e 114B     		ldr	r3, .L72+12
 907 0120 5A60     		str	r2, [r3, #4]
 908 0122 AFE7     		b	.L44
 909              	.L58:
 483:Drivers/STM32F1xx_HAL_Driver/Src/stm32f1xx_hal_dma.c **** 
 910              		.loc 1 483 5 view .LVU280
 911 0124 1022     		movs	r2, #16
 912 0126 FAE7     		b	.L45
 913              	.L59:
 914 0128 4FF48072 		mov	r2, #256
ARM GAS  /tmp/cc4nKcdQ.s 			page 37


 915 012c F7E7     		b	.L45
 916              	.L60:
 917 012e 4FF48052 		mov	r2, #4096
 918 0132 F4E7     		b	.L45
 919              	.L61:
 920 0134 4FF48032 		mov	r2, #65536
 921 0138 F1E7     		b	.L45
 922              	.L62:
 923 013a 4FF48012 		mov	r2, #1048576
 924 013e EEE7     		b	.L45
 925              	.L63:
 926 0140 4FF08072 		mov	r2, #16777216
 927 0144 EBE7     		b	.L45
 928              	.L64:
 929 0146 0122     		movs	r2, #1
 930 0148 E9E7     		b	.L45
 931              	.L65:
 932 014a 1022     		movs	r2, #16
 933 014c E7E7     		b	.L45
 934              	.L66:
 935 014e 4FF48072 		mov	r2, #256
 936 0152 E4E7     		b	.L45
 937              	.L68:
 465:Drivers/STM32F1xx_HAL_Driver/Src/stm32f1xx_hal_dma.c ****   
 938              		.loc 1 465 21 view .LVU281
 939 0154 0020     		movs	r0, #0
 940              	.LVL47:
 465:Drivers/STM32F1xx_HAL_Driver/Src/stm32f1xx_hal_dma.c ****   
 941              		.loc 1 465 21 view .LVU282
 942 0156 5BE7     		b	.L41
 943              	.L73:
 944              		.align	2
 945              	.L72:
 946 0158 80000240 		.word	1073873024
 947 015c 00040240 		.word	1073873920
 948 0160 08000240 		.word	1073872904
 949 0164 00000240 		.word	1073872896
 950              		.cfi_endproc
 951              	.LFE71:
 953              		.section	.text.HAL_DMA_PollForTransfer,"ax",%progbits
 954              		.align	1
 955              		.global	HAL_DMA_PollForTransfer
 956              		.syntax unified
 957              		.thumb
 958              		.thumb_func
 959              		.fpu softvfp
 961              	HAL_DMA_PollForTransfer:
 962              	.LVL48:
 963              	.LFB72:
 509:Drivers/STM32F1xx_HAL_Driver/Src/stm32f1xx_hal_dma.c ****   uint32_t temp;
 964              		.loc 1 509 1 is_stmt 1 view -0
 965              		.cfi_startproc
 966              		@ args = 0, pretend = 0, frame = 0
 967              		@ frame_needed = 0, uses_anonymous_args = 0
 509:Drivers/STM32F1xx_HAL_Driver/Src/stm32f1xx_hal_dma.c ****   uint32_t temp;
 968              		.loc 1 509 1 is_stmt 0 view .LVU284
 969 0000 2DE9F843 		push	{r3, r4, r5, r6, r7, r8, r9, lr}
ARM GAS  /tmp/cc4nKcdQ.s 			page 38


 970              	.LCFI10:
 971              		.cfi_def_cfa_offset 32
 972              		.cfi_offset 3, -32
 973              		.cfi_offset 4, -28
 974              		.cfi_offset 5, -24
 975              		.cfi_offset 6, -20
 976              		.cfi_offset 7, -16
 977              		.cfi_offset 8, -12
 978              		.cfi_offset 9, -8
 979              		.cfi_offset 14, -4
 980 0004 0446     		mov	r4, r0
 510:Drivers/STM32F1xx_HAL_Driver/Src/stm32f1xx_hal_dma.c ****   uint32_t tickstart = 0U;
 981              		.loc 1 510 3 is_stmt 1 view .LVU285
 511:Drivers/STM32F1xx_HAL_Driver/Src/stm32f1xx_hal_dma.c **** 
 982              		.loc 1 511 3 view .LVU286
 983              	.LVL49:
 513:Drivers/STM32F1xx_HAL_Driver/Src/stm32f1xx_hal_dma.c ****   {
 984              		.loc 1 513 3 view .LVU287
 513:Drivers/STM32F1xx_HAL_Driver/Src/stm32f1xx_hal_dma.c ****   {
 985              		.loc 1 513 32 is_stmt 0 view .LVU288
 986 0006 90F82130 		ldrb	r3, [r0, #33]	@ zero_extendqisi2
 513:Drivers/STM32F1xx_HAL_Driver/Src/stm32f1xx_hal_dma.c ****   {
 987              		.loc 1 513 5 view .LVU289
 988 000a 022B     		cmp	r3, #2
 989 000c 07D0     		beq	.L75
 516:Drivers/STM32F1xx_HAL_Driver/Src/stm32f1xx_hal_dma.c ****     __HAL_UNLOCK(hdma);
 990              		.loc 1 516 5 is_stmt 1 view .LVU290
 516:Drivers/STM32F1xx_HAL_Driver/Src/stm32f1xx_hal_dma.c ****     __HAL_UNLOCK(hdma);
 991              		.loc 1 516 21 is_stmt 0 view .LVU291
 992 000e 0423     		movs	r3, #4
 993 0010 8363     		str	r3, [r0, #56]
 517:Drivers/STM32F1xx_HAL_Driver/Src/stm32f1xx_hal_dma.c ****     return HAL_ERROR;
 994              		.loc 1 517 5 is_stmt 1 view .LVU292
 517:Drivers/STM32F1xx_HAL_Driver/Src/stm32f1xx_hal_dma.c ****     return HAL_ERROR;
 995              		.loc 1 517 5 view .LVU293
 996 0012 0023     		movs	r3, #0
 997 0014 80F82030 		strb	r3, [r0, #32]
 517:Drivers/STM32F1xx_HAL_Driver/Src/stm32f1xx_hal_dma.c ****     return HAL_ERROR;
 998              		.loc 1 517 5 view .LVU294
 518:Drivers/STM32F1xx_HAL_Driver/Src/stm32f1xx_hal_dma.c ****   }
 999              		.loc 1 518 5 view .LVU295
 518:Drivers/STM32F1xx_HAL_Driver/Src/stm32f1xx_hal_dma.c ****   }
 1000              		.loc 1 518 12 is_stmt 0 view .LVU296
 1001 0018 0120     		movs	r0, #1
 1002              	.LVL50:
 1003              	.L76:
 601:Drivers/STM32F1xx_HAL_Driver/Src/stm32f1xx_hal_dma.c **** 
 1004              		.loc 1 601 1 view .LVU297
 1005 001a BDE8F883 		pop	{r3, r4, r5, r6, r7, r8, r9, pc}
 1006              	.LVL51:
 1007              	.L75:
 601:Drivers/STM32F1xx_HAL_Driver/Src/stm32f1xx_hal_dma.c **** 
 1008              		.loc 1 601 1 view .LVU298
 1009 001e 8846     		mov	r8, r1
 1010 0020 1646     		mov	r6, r2
 522:Drivers/STM32F1xx_HAL_Driver/Src/stm32f1xx_hal_dma.c ****   {
 1011              		.loc 1 522 3 is_stmt 1 view .LVU299
ARM GAS  /tmp/cc4nKcdQ.s 			page 39


 522:Drivers/STM32F1xx_HAL_Driver/Src/stm32f1xx_hal_dma.c ****   {
 1012              		.loc 1 522 21 is_stmt 0 view .LVU300
 1013 0022 0368     		ldr	r3, [r0]
 522:Drivers/STM32F1xx_HAL_Driver/Src/stm32f1xx_hal_dma.c ****   {
 1014              		.loc 1 522 31 view .LVU301
 1015 0024 1A68     		ldr	r2, [r3]
 1016              	.LVL52:
 522:Drivers/STM32F1xx_HAL_Driver/Src/stm32f1xx_hal_dma.c ****   {
 1017              		.loc 1 522 6 view .LVU302
 1018 0026 12F0200F 		tst	r2, #32
 1019 002a 25D1     		bne	.L189
 529:Drivers/STM32F1xx_HAL_Driver/Src/stm32f1xx_hal_dma.c ****   {
 1020              		.loc 1 529 3 is_stmt 1 view .LVU303
 529:Drivers/STM32F1xx_HAL_Driver/Src/stm32f1xx_hal_dma.c ****   {
 1021              		.loc 1 529 5 is_stmt 0 view .LVU304
 1022 002c 61BB     		cbnz	r1, .L78
 532:Drivers/STM32F1xx_HAL_Driver/Src/stm32f1xx_hal_dma.c ****   }
 1023              		.loc 1 532 5 is_stmt 1 view .LVU305
 532:Drivers/STM32F1xx_HAL_Driver/Src/stm32f1xx_hal_dma.c ****   }
 1024              		.loc 1 532 12 is_stmt 0 view .LVU306
 1025 002e AF4A     		ldr	r2, .L201
 1026 0030 9342     		cmp	r3, r2
 1027 0032 51D0     		beq	.L100
 532:Drivers/STM32F1xx_HAL_Driver/Src/stm32f1xx_hal_dma.c ****   }
 1028              		.loc 1 532 12 discriminator 1 view .LVU307
 1029 0034 1432     		adds	r2, r2, #20
 1030 0036 9342     		cmp	r3, r2
 1031 0038 53D0     		beq	.L101
 532:Drivers/STM32F1xx_HAL_Driver/Src/stm32f1xx_hal_dma.c ****   }
 1032              		.loc 1 532 12 discriminator 3 view .LVU308
 1033 003a 1432     		adds	r2, r2, #20
 1034 003c 9342     		cmp	r3, r2
 1035 003e 52D0     		beq	.L102
 532:Drivers/STM32F1xx_HAL_Driver/Src/stm32f1xx_hal_dma.c ****   }
 1036              		.loc 1 532 12 discriminator 5 view .LVU309
 1037 0040 1432     		adds	r2, r2, #20
 1038 0042 9342     		cmp	r3, r2
 1039 0044 52D0     		beq	.L103
 532:Drivers/STM32F1xx_HAL_Driver/Src/stm32f1xx_hal_dma.c ****   }
 1040              		.loc 1 532 12 discriminator 7 view .LVU310
 1041 0046 1432     		adds	r2, r2, #20
 1042 0048 9342     		cmp	r3, r2
 1043 004a 52D0     		beq	.L104
 532:Drivers/STM32F1xx_HAL_Driver/Src/stm32f1xx_hal_dma.c ****   }
 1044              		.loc 1 532 12 discriminator 9 view .LVU311
 1045 004c 1432     		adds	r2, r2, #20
 1046 004e 9342     		cmp	r3, r2
 1047 0050 52D0     		beq	.L105
 532:Drivers/STM32F1xx_HAL_Driver/Src/stm32f1xx_hal_dma.c ****   }
 1048              		.loc 1 532 12 discriminator 11 view .LVU312
 1049 0052 1432     		adds	r2, r2, #20
 1050 0054 9342     		cmp	r3, r2
 1051 0056 52D0     		beq	.L106
 532:Drivers/STM32F1xx_HAL_Driver/Src/stm32f1xx_hal_dma.c ****   }
 1052              		.loc 1 532 12 discriminator 13 view .LVU313
 1053 0058 02F56272 		add	r2, r2, #904
 1054 005c 9342     		cmp	r3, r2
ARM GAS  /tmp/cc4nKcdQ.s 			page 40


 1055 005e 51D0     		beq	.L107
 532:Drivers/STM32F1xx_HAL_Driver/Src/stm32f1xx_hal_dma.c ****   }
 1056              		.loc 1 532 12 discriminator 15 view .LVU314
 1057 0060 1432     		adds	r2, r2, #20
 1058 0062 9342     		cmp	r3, r2
 1059 0064 50D0     		beq	.L108
 532:Drivers/STM32F1xx_HAL_Driver/Src/stm32f1xx_hal_dma.c ****   }
 1060              		.loc 1 532 12 discriminator 17 view .LVU315
 1061 0066 1432     		adds	r2, r2, #20
 1062 0068 9342     		cmp	r3, r2
 1063 006a 4FD0     		beq	.L109
 532:Drivers/STM32F1xx_HAL_Driver/Src/stm32f1xx_hal_dma.c ****   }
 1064              		.loc 1 532 12 discriminator 19 view .LVU316
 1065 006c 1432     		adds	r2, r2, #20
 1066 006e 9342     		cmp	r3, r2
 1067 0070 07D0     		beq	.L190
 532:Drivers/STM32F1xx_HAL_Driver/Src/stm32f1xx_hal_dma.c ****   }
 1068              		.loc 1 532 12 view .LVU317
 1069 0072 4FF40037 		mov	r7, #131072
 1070 0076 30E0     		b	.L79
 1071              	.L189:
 524:Drivers/STM32F1xx_HAL_Driver/Src/stm32f1xx_hal_dma.c ****     return HAL_ERROR;
 1072              		.loc 1 524 5 is_stmt 1 view .LVU318
 524:Drivers/STM32F1xx_HAL_Driver/Src/stm32f1xx_hal_dma.c ****     return HAL_ERROR;
 1073              		.loc 1 524 21 is_stmt 0 view .LVU319
 1074 0078 4FF48073 		mov	r3, #256
 1075 007c 8363     		str	r3, [r0, #56]
 525:Drivers/STM32F1xx_HAL_Driver/Src/stm32f1xx_hal_dma.c ****   }
 1076              		.loc 1 525 5 is_stmt 1 view .LVU320
 525:Drivers/STM32F1xx_HAL_Driver/Src/stm32f1xx_hal_dma.c ****   }
 1077              		.loc 1 525 12 is_stmt 0 view .LVU321
 1078 007e 0120     		movs	r0, #1
 1079              	.LVL53:
 525:Drivers/STM32F1xx_HAL_Driver/Src/stm32f1xx_hal_dma.c ****   }
 1080              		.loc 1 525 12 view .LVU322
 1081 0080 CBE7     		b	.L76
 1082              	.LVL54:
 1083              	.L190:
 532:Drivers/STM32F1xx_HAL_Driver/Src/stm32f1xx_hal_dma.c ****   }
 1084              		.loc 1 532 12 view .LVU323
 1085 0082 4FF40057 		mov	r7, #8192
 1086 0086 28E0     		b	.L79
 1087              	.L78:
 537:Drivers/STM32F1xx_HAL_Driver/Src/stm32f1xx_hal_dma.c ****   }
 1088              		.loc 1 537 5 is_stmt 1 view .LVU324
 537:Drivers/STM32F1xx_HAL_Driver/Src/stm32f1xx_hal_dma.c ****   }
 1089              		.loc 1 537 12 is_stmt 0 view .LVU325
 1090 0088 984A     		ldr	r2, .L201
 1091 008a 9342     		cmp	r3, r2
 1092 008c 41D0     		beq	.L111
 537:Drivers/STM32F1xx_HAL_Driver/Src/stm32f1xx_hal_dma.c ****   }
 1093              		.loc 1 537 12 discriminator 1 view .LVU326
 1094 008e 1432     		adds	r2, r2, #20
 1095 0090 9342     		cmp	r3, r2
 1096 0092 40D0     		beq	.L112
 537:Drivers/STM32F1xx_HAL_Driver/Src/stm32f1xx_hal_dma.c ****   }
 1097              		.loc 1 537 12 discriminator 3 view .LVU327
ARM GAS  /tmp/cc4nKcdQ.s 			page 41


 1098 0094 1432     		adds	r2, r2, #20
 1099 0096 9342     		cmp	r3, r2
 1100 0098 3FD0     		beq	.L113
 537:Drivers/STM32F1xx_HAL_Driver/Src/stm32f1xx_hal_dma.c ****   }
 1101              		.loc 1 537 12 discriminator 5 view .LVU328
 1102 009a 1432     		adds	r2, r2, #20
 1103 009c 9342     		cmp	r3, r2
 1104 009e 3FD0     		beq	.L114
 537:Drivers/STM32F1xx_HAL_Driver/Src/stm32f1xx_hal_dma.c ****   }
 1105              		.loc 1 537 12 discriminator 7 view .LVU329
 1106 00a0 1432     		adds	r2, r2, #20
 1107 00a2 9342     		cmp	r3, r2
 1108 00a4 3FD0     		beq	.L115
 537:Drivers/STM32F1xx_HAL_Driver/Src/stm32f1xx_hal_dma.c ****   }
 1109              		.loc 1 537 12 discriminator 9 view .LVU330
 1110 00a6 1432     		adds	r2, r2, #20
 1111 00a8 9342     		cmp	r3, r2
 1112 00aa 3FD0     		beq	.L116
 537:Drivers/STM32F1xx_HAL_Driver/Src/stm32f1xx_hal_dma.c ****   }
 1113              		.loc 1 537 12 discriminator 11 view .LVU331
 1114 00ac 1432     		adds	r2, r2, #20
 1115 00ae 9342     		cmp	r3, r2
 1116 00b0 3FD0     		beq	.L117
 537:Drivers/STM32F1xx_HAL_Driver/Src/stm32f1xx_hal_dma.c ****   }
 1117              		.loc 1 537 12 discriminator 13 view .LVU332
 1118 00b2 02F56272 		add	r2, r2, #904
 1119 00b6 9342     		cmp	r3, r2
 1120 00b8 3ED0     		beq	.L118
 537:Drivers/STM32F1xx_HAL_Driver/Src/stm32f1xx_hal_dma.c ****   }
 1121              		.loc 1 537 12 discriminator 15 view .LVU333
 1122 00ba 1432     		adds	r2, r2, #20
 1123 00bc 9342     		cmp	r3, r2
 1124 00be 3DD0     		beq	.L119
 537:Drivers/STM32F1xx_HAL_Driver/Src/stm32f1xx_hal_dma.c ****   }
 1125              		.loc 1 537 12 discriminator 17 view .LVU334
 1126 00c0 1432     		adds	r2, r2, #20
 1127 00c2 9342     		cmp	r3, r2
 1128 00c4 3CD0     		beq	.L120
 537:Drivers/STM32F1xx_HAL_Driver/Src/stm32f1xx_hal_dma.c ****   }
 1129              		.loc 1 537 12 discriminator 19 view .LVU335
 1130 00c6 1432     		adds	r2, r2, #20
 1131 00c8 9342     		cmp	r3, r2
 1132 00ca 02D0     		beq	.L191
 537:Drivers/STM32F1xx_HAL_Driver/Src/stm32f1xx_hal_dma.c ****   }
 1133              		.loc 1 537 12 view .LVU336
 1134 00cc 4FF48027 		mov	r7, #262144
 1135 00d0 03E0     		b	.L79
 1136              	.L191:
 1137 00d2 4FF48047 		mov	r7, #16384
 1138 00d6 00E0     		b	.L79
 1139              	.L100:
 532:Drivers/STM32F1xx_HAL_Driver/Src/stm32f1xx_hal_dma.c ****   }
 1140              		.loc 1 532 12 view .LVU337
 1141 00d8 0227     		movs	r7, #2
 1142              	.L79:
 1143              	.LVL55:
 541:Drivers/STM32F1xx_HAL_Driver/Src/stm32f1xx_hal_dma.c **** 
ARM GAS  /tmp/cc4nKcdQ.s 			page 42


 1144              		.loc 1 541 3 is_stmt 1 view .LVU338
 541:Drivers/STM32F1xx_HAL_Driver/Src/stm32f1xx_hal_dma.c **** 
 1145              		.loc 1 541 15 is_stmt 0 view .LVU339
 1146 00da FFF7FEFF 		bl	HAL_GetTick
 1147              	.LVL56:
 541:Drivers/STM32F1xx_HAL_Driver/Src/stm32f1xx_hal_dma.c **** 
 1148              		.loc 1 541 15 view .LVU340
 1149 00de 8146     		mov	r9, r0
 1150              	.LVL57:
 543:Drivers/STM32F1xx_HAL_Driver/Src/stm32f1xx_hal_dma.c ****   {
 1151              		.loc 1 543 3 is_stmt 1 view .LVU341
 543:Drivers/STM32F1xx_HAL_Driver/Src/stm32f1xx_hal_dma.c ****   {
 1152              		.loc 1 543 8 is_stmt 0 view .LVU342
 1153 00e0 40E0     		b	.L86
 1154              	.LVL58:
 1155              	.L101:
 532:Drivers/STM32F1xx_HAL_Driver/Src/stm32f1xx_hal_dma.c ****   }
 1156              		.loc 1 532 12 view .LVU343
 1157 00e2 2027     		movs	r7, #32
 1158 00e4 F9E7     		b	.L79
 1159              	.L102:
 1160 00e6 4FF40077 		mov	r7, #512
 1161 00ea F6E7     		b	.L79
 1162              	.L103:
 1163 00ec 4FF40057 		mov	r7, #8192
 1164 00f0 F3E7     		b	.L79
 1165              	.L104:
 1166 00f2 4FF40037 		mov	r7, #131072
 1167 00f6 F0E7     		b	.L79
 1168              	.L105:
 1169 00f8 4FF40017 		mov	r7, #2097152
 1170 00fc EDE7     		b	.L79
 1171              	.L106:
 1172 00fe 4FF00077 		mov	r7, #33554432
 1173 0102 EAE7     		b	.L79
 1174              	.L107:
 1175 0104 0227     		movs	r7, #2
 1176 0106 E8E7     		b	.L79
 1177              	.L108:
 1178 0108 2027     		movs	r7, #32
 1179 010a E6E7     		b	.L79
 1180              	.L109:
 1181 010c 4FF40077 		mov	r7, #512
 1182 0110 E3E7     		b	.L79
 1183              	.L111:
 537:Drivers/STM32F1xx_HAL_Driver/Src/stm32f1xx_hal_dma.c ****   }
 1184              		.loc 1 537 12 view .LVU344
 1185 0112 0427     		movs	r7, #4
 1186 0114 E1E7     		b	.L79
 1187              	.L112:
 1188 0116 4027     		movs	r7, #64
 1189 0118 DFE7     		b	.L79
 1190              	.L113:
 1191 011a 4FF48067 		mov	r7, #1024
 1192 011e DCE7     		b	.L79
 1193              	.L114:
 1194 0120 4FF48047 		mov	r7, #16384
ARM GAS  /tmp/cc4nKcdQ.s 			page 43


 1195 0124 D9E7     		b	.L79
 1196              	.L115:
 1197 0126 4FF48027 		mov	r7, #262144
 1198 012a D6E7     		b	.L79
 1199              	.L116:
 1200 012c 4FF48007 		mov	r7, #4194304
 1201 0130 D3E7     		b	.L79
 1202              	.L117:
 1203 0132 4FF08067 		mov	r7, #67108864
 1204 0136 D0E7     		b	.L79
 1205              	.L118:
 1206 0138 0427     		movs	r7, #4
 1207 013a CEE7     		b	.L79
 1208              	.L119:
 1209 013c 4027     		movs	r7, #64
 1210 013e CCE7     		b	.L79
 1211              	.L120:
 1212 0140 4FF48067 		mov	r7, #1024
 1213 0144 C9E7     		b	.L79
 1214              	.LVL59:
 1215              	.L195:
 545:Drivers/STM32F1xx_HAL_Driver/Src/stm32f1xx_hal_dma.c ****     {
 1216              		.loc 1 545 9 view .LVU345
 1217 0146 4FF40043 		mov	r3, #32768
 1218 014a 00E0     		b	.L82
 1219              	.L122:
 1220 014c 0823     		movs	r3, #8
 1221              	.L82:
 545:Drivers/STM32F1xx_HAL_Driver/Src/stm32f1xx_hal_dma.c ****     {
 1222              		.loc 1 545 69 discriminator 46 view .LVU346
 1223 014e 1A42     		tst	r2, r3
 1224 0150 14BF     		ite	ne
 1225 0152 0123     		movne	r3, #1
 1226 0154 0023     		moveq	r3, #0
 1227              	.L83:
 545:Drivers/STM32F1xx_HAL_Driver/Src/stm32f1xx_hal_dma.c ****     {
 1228              		.loc 1 545 7 discriminator 92 view .LVU347
 1229 0156 002B     		cmp	r3, #0
 1230 0158 40F09E80 		bne	.L192
 564:Drivers/STM32F1xx_HAL_Driver/Src/stm32f1xx_hal_dma.c ****     {
 1231              		.loc 1 564 5 is_stmt 1 view .LVU348
 564:Drivers/STM32F1xx_HAL_Driver/Src/stm32f1xx_hal_dma.c ****     {
 1232              		.loc 1 564 7 is_stmt 0 view .LVU349
 1233 015c B6F1FF3F 		cmp	r6, #-1
 1234 0160 40F0A980 		bne	.L193
 1235              	.L86:
 543:Drivers/STM32F1xx_HAL_Driver/Src/stm32f1xx_hal_dma.c ****   {
 1236              		.loc 1 543 8 is_stmt 1 view .LVU350
 543:Drivers/STM32F1xx_HAL_Driver/Src/stm32f1xx_hal_dma.c ****   {
 1237              		.loc 1 543 9 is_stmt 0 view .LVU351
 1238 0164 2368     		ldr	r3, [r4]
 1239 0166 1A46     		mov	r2, r3
 543:Drivers/STM32F1xx_HAL_Driver/Src/stm32f1xx_hal_dma.c ****   {
 1240              		.loc 1 543 40 view .LVU352
 1241 0168 614D     		ldr	r5, .L201+4
 1242 016a AB42     		cmp	r3, r5
 1243 016c 40F2B680 		bls	.L88
ARM GAS  /tmp/cc4nKcdQ.s 			page 44


 543:Drivers/STM32F1xx_HAL_Driver/Src/stm32f1xx_hal_dma.c ****   {
 1244              		.loc 1 543 9 discriminator 1 view .LVU353
 1245 0170 6049     		ldr	r1, .L201+8
 1246 0172 0968     		ldr	r1, [r1]
 543:Drivers/STM32F1xx_HAL_Driver/Src/stm32f1xx_hal_dma.c ****   {
 1247              		.loc 1 543 40 discriminator 1 view .LVU354
 1248 0174 3942     		tst	r1, r7
 1249 0176 0CBF     		ite	eq
 1250 0178 0125     		moveq	r5, #1
 1251 017a 0025     		movne	r5, #0
 1252              	.L89:
 543:Drivers/STM32F1xx_HAL_Driver/Src/stm32f1xx_hal_dma.c ****   {
 1253              		.loc 1 543 8 discriminator 4 view .LVU355
 1254 017c 002D     		cmp	r5, #0
 1255 017e 00F0BD80 		beq	.L194
 545:Drivers/STM32F1xx_HAL_Driver/Src/stm32f1xx_hal_dma.c ****     {
 1256              		.loc 1 545 5 is_stmt 1 view .LVU356
 545:Drivers/STM32F1xx_HAL_Driver/Src/stm32f1xx_hal_dma.c ****     {
 1257              		.loc 1 545 69 is_stmt 0 view .LVU357
 1258 0182 5B4A     		ldr	r2, .L201+4
 1259 0184 9342     		cmp	r3, r2
 1260 0186 3FD9     		bls	.L81
 545:Drivers/STM32F1xx_HAL_Driver/Src/stm32f1xx_hal_dma.c ****     {
 1261              		.loc 1 545 9 discriminator 1 view .LVU358
 1262 0188 02F56072 		add	r2, r2, #896
 1263 018c 1268     		ldr	r2, [r2]
 1264 018e 5749     		ldr	r1, .L201
 1265 0190 8B42     		cmp	r3, r1
 1266 0192 DBD0     		beq	.L122
 545:Drivers/STM32F1xx_HAL_Driver/Src/stm32f1xx_hal_dma.c ****     {
 1267              		.loc 1 545 9 discriminator 3 view .LVU359
 1268 0194 1431     		adds	r1, r1, #20
 1269 0196 8B42     		cmp	r3, r1
 1270 0198 1ED0     		beq	.L123
 545:Drivers/STM32F1xx_HAL_Driver/Src/stm32f1xx_hal_dma.c ****     {
 1271              		.loc 1 545 9 discriminator 5 view .LVU360
 1272 019a 1431     		adds	r1, r1, #20
 1273 019c 8B42     		cmp	r3, r1
 1274 019e 1DD0     		beq	.L124
 545:Drivers/STM32F1xx_HAL_Driver/Src/stm32f1xx_hal_dma.c ****     {
 1275              		.loc 1 545 9 discriminator 7 view .LVU361
 1276 01a0 1431     		adds	r1, r1, #20
 1277 01a2 8B42     		cmp	r3, r1
 1278 01a4 1DD0     		beq	.L125
 545:Drivers/STM32F1xx_HAL_Driver/Src/stm32f1xx_hal_dma.c ****     {
 1279              		.loc 1 545 9 discriminator 9 view .LVU362
 1280 01a6 1431     		adds	r1, r1, #20
 1281 01a8 8B42     		cmp	r3, r1
 1282 01aa 1DD0     		beq	.L126
 545:Drivers/STM32F1xx_HAL_Driver/Src/stm32f1xx_hal_dma.c ****     {
 1283              		.loc 1 545 9 discriminator 11 view .LVU363
 1284 01ac 1431     		adds	r1, r1, #20
 1285 01ae 8B42     		cmp	r3, r1
 1286 01b0 1DD0     		beq	.L127
 545:Drivers/STM32F1xx_HAL_Driver/Src/stm32f1xx_hal_dma.c ****     {
 1287              		.loc 1 545 9 discriminator 13 view .LVU364
 1288 01b2 1431     		adds	r1, r1, #20
ARM GAS  /tmp/cc4nKcdQ.s 			page 45


 1289 01b4 8B42     		cmp	r3, r1
 1290 01b6 1DD0     		beq	.L128
 545:Drivers/STM32F1xx_HAL_Driver/Src/stm32f1xx_hal_dma.c ****     {
 1291              		.loc 1 545 9 discriminator 15 view .LVU365
 1292 01b8 01F56271 		add	r1, r1, #904
 1293 01bc 8B42     		cmp	r3, r1
 1294 01be 1CD0     		beq	.L129
 545:Drivers/STM32F1xx_HAL_Driver/Src/stm32f1xx_hal_dma.c ****     {
 1295              		.loc 1 545 9 discriminator 17 view .LVU366
 1296 01c0 1431     		adds	r1, r1, #20
 1297 01c2 8B42     		cmp	r3, r1
 1298 01c4 1BD0     		beq	.L130
 545:Drivers/STM32F1xx_HAL_Driver/Src/stm32f1xx_hal_dma.c ****     {
 1299              		.loc 1 545 9 discriminator 19 view .LVU367
 1300 01c6 1431     		adds	r1, r1, #20
 1301 01c8 8B42     		cmp	r3, r1
 1302 01ca 1AD0     		beq	.L131
 545:Drivers/STM32F1xx_HAL_Driver/Src/stm32f1xx_hal_dma.c ****     {
 1303              		.loc 1 545 9 discriminator 21 view .LVU368
 1304 01cc 1431     		adds	r1, r1, #20
 1305 01ce 8B42     		cmp	r3, r1
 1306 01d0 B9D0     		beq	.L195
 545:Drivers/STM32F1xx_HAL_Driver/Src/stm32f1xx_hal_dma.c ****     {
 1307              		.loc 1 545 9 view .LVU369
 1308 01d2 4FF40023 		mov	r3, #524288
 1309 01d6 BAE7     		b	.L82
 1310              	.L123:
 1311 01d8 8023     		movs	r3, #128
 1312 01da B8E7     		b	.L82
 1313              	.L124:
 1314 01dc 4FF40063 		mov	r3, #2048
 1315 01e0 B5E7     		b	.L82
 1316              	.L125:
 1317 01e2 4FF40043 		mov	r3, #32768
 1318 01e6 B2E7     		b	.L82
 1319              	.L126:
 1320 01e8 4FF40023 		mov	r3, #524288
 1321 01ec AFE7     		b	.L82
 1322              	.L127:
 1323 01ee 4FF40003 		mov	r3, #8388608
 1324 01f2 ACE7     		b	.L82
 1325              	.L128:
 1326 01f4 4FF00063 		mov	r3, #134217728
 1327 01f8 A9E7     		b	.L82
 1328              	.L129:
 1329 01fa 0823     		movs	r3, #8
 1330 01fc A7E7     		b	.L82
 1331              	.L130:
 1332 01fe 8023     		movs	r3, #128
 1333 0200 A5E7     		b	.L82
 1334              	.L131:
 1335 0202 4FF40063 		mov	r3, #2048
 1336 0206 A2E7     		b	.L82
 1337              	.L81:
 545:Drivers/STM32F1xx_HAL_Driver/Src/stm32f1xx_hal_dma.c ****     {
 1338              		.loc 1 545 9 discriminator 2 view .LVU370
 1339 0208 3B4A     		ldr	r2, .L201+12
ARM GAS  /tmp/cc4nKcdQ.s 			page 46


 1340 020a 1268     		ldr	r2, [r2]
 1341 020c 3749     		ldr	r1, .L201
 1342 020e 8B42     		cmp	r3, r1
 1343 0210 24D0     		beq	.L133
 545:Drivers/STM32F1xx_HAL_Driver/Src/stm32f1xx_hal_dma.c ****     {
 1344              		.loc 1 545 9 discriminator 48 view .LVU371
 1345 0212 1431     		adds	r1, r1, #20
 1346 0214 8B42     		cmp	r3, r1
 1347 0216 27D0     		beq	.L134
 545:Drivers/STM32F1xx_HAL_Driver/Src/stm32f1xx_hal_dma.c ****     {
 1348              		.loc 1 545 9 discriminator 50 view .LVU372
 1349 0218 1431     		adds	r1, r1, #20
 1350 021a 8B42     		cmp	r3, r1
 1351 021c 26D0     		beq	.L135
 545:Drivers/STM32F1xx_HAL_Driver/Src/stm32f1xx_hal_dma.c ****     {
 1352              		.loc 1 545 9 discriminator 52 view .LVU373
 1353 021e 1431     		adds	r1, r1, #20
 1354 0220 8B42     		cmp	r3, r1
 1355 0222 26D0     		beq	.L136
 545:Drivers/STM32F1xx_HAL_Driver/Src/stm32f1xx_hal_dma.c ****     {
 1356              		.loc 1 545 9 discriminator 54 view .LVU374
 1357 0224 1431     		adds	r1, r1, #20
 1358 0226 8B42     		cmp	r3, r1
 1359 0228 26D0     		beq	.L137
 545:Drivers/STM32F1xx_HAL_Driver/Src/stm32f1xx_hal_dma.c ****     {
 1360              		.loc 1 545 9 discriminator 56 view .LVU375
 1361 022a 1431     		adds	r1, r1, #20
 1362 022c 8B42     		cmp	r3, r1
 1363 022e 26D0     		beq	.L138
 545:Drivers/STM32F1xx_HAL_Driver/Src/stm32f1xx_hal_dma.c ****     {
 1364              		.loc 1 545 9 discriminator 58 view .LVU376
 1365 0230 1431     		adds	r1, r1, #20
 1366 0232 8B42     		cmp	r3, r1
 1367 0234 26D0     		beq	.L139
 545:Drivers/STM32F1xx_HAL_Driver/Src/stm32f1xx_hal_dma.c ****     {
 1368              		.loc 1 545 9 discriminator 60 view .LVU377
 1369 0236 01F56271 		add	r1, r1, #904
 1370 023a 8B42     		cmp	r3, r1
 1371 023c 25D0     		beq	.L140
 545:Drivers/STM32F1xx_HAL_Driver/Src/stm32f1xx_hal_dma.c ****     {
 1372              		.loc 1 545 9 discriminator 62 view .LVU378
 1373 023e 1431     		adds	r1, r1, #20
 1374 0240 8B42     		cmp	r3, r1
 1375 0242 24D0     		beq	.L141
 545:Drivers/STM32F1xx_HAL_Driver/Src/stm32f1xx_hal_dma.c ****     {
 1376              		.loc 1 545 9 discriminator 64 view .LVU379
 1377 0244 1431     		adds	r1, r1, #20
 1378 0246 8B42     		cmp	r3, r1
 1379 0248 23D0     		beq	.L142
 545:Drivers/STM32F1xx_HAL_Driver/Src/stm32f1xx_hal_dma.c ****     {
 1380              		.loc 1 545 9 discriminator 66 view .LVU380
 1381 024a 1431     		adds	r1, r1, #20
 1382 024c 8B42     		cmp	r3, r1
 1383 024e 02D0     		beq	.L196
 545:Drivers/STM32F1xx_HAL_Driver/Src/stm32f1xx_hal_dma.c ****     {
 1384              		.loc 1 545 9 view .LVU381
 1385 0250 4FF40023 		mov	r3, #524288
ARM GAS  /tmp/cc4nKcdQ.s 			page 47


 1386 0254 03E0     		b	.L84
 1387              	.L196:
 1388 0256 4FF40043 		mov	r3, #32768
 1389 025a 00E0     		b	.L84
 1390              	.L133:
 1391 025c 0823     		movs	r3, #8
 1392              	.L84:
 545:Drivers/STM32F1xx_HAL_Driver/Src/stm32f1xx_hal_dma.c ****     {
 1393              		.loc 1 545 69 discriminator 91 view .LVU382
 1394 025e 1A42     		tst	r2, r3
 1395 0260 14BF     		ite	ne
 1396 0262 0123     		movne	r3, #1
 1397 0264 0023     		moveq	r3, #0
 1398 0266 76E7     		b	.L83
 1399              	.L134:
 545:Drivers/STM32F1xx_HAL_Driver/Src/stm32f1xx_hal_dma.c ****     {
 1400              		.loc 1 545 9 view .LVU383
 1401 0268 8023     		movs	r3, #128
 1402 026a F8E7     		b	.L84
 1403              	.L135:
 1404 026c 4FF40063 		mov	r3, #2048
 1405 0270 F5E7     		b	.L84
 1406              	.L136:
 1407 0272 4FF40043 		mov	r3, #32768
 1408 0276 F2E7     		b	.L84
 1409              	.L137:
 1410 0278 4FF40023 		mov	r3, #524288
 1411 027c EFE7     		b	.L84
 1412              	.L138:
 1413 027e 4FF40003 		mov	r3, #8388608
 1414 0282 ECE7     		b	.L84
 1415              	.L139:
 1416 0284 4FF00063 		mov	r3, #134217728
 1417 0288 E9E7     		b	.L84
 1418              	.L140:
 1419 028a 0823     		movs	r3, #8
 1420 028c E7E7     		b	.L84
 1421              	.L141:
 1422 028e 8023     		movs	r3, #128
 1423 0290 E5E7     		b	.L84
 1424              	.L142:
 1425 0292 4FF40063 		mov	r3, #2048
 1426 0296 E2E7     		b	.L84
 1427              	.L192:
 550:Drivers/STM32F1xx_HAL_Driver/Src/stm32f1xx_hal_dma.c **** 
 1428              		.loc 1 550 7 is_stmt 1 view .LVU384
 550:Drivers/STM32F1xx_HAL_Driver/Src/stm32f1xx_hal_dma.c **** 
 1429              		.loc 1 550 57 is_stmt 0 view .LVU385
 1430 0298 236C     		ldr	r3, [r4, #64]
 550:Drivers/STM32F1xx_HAL_Driver/Src/stm32f1xx_hal_dma.c **** 
 1431              		.loc 1 550 11 view .LVU386
 1432 029a E26B     		ldr	r2, [r4, #60]
 550:Drivers/STM32F1xx_HAL_Driver/Src/stm32f1xx_hal_dma.c **** 
 1433              		.loc 1 550 50 view .LVU387
 1434 029c 0120     		movs	r0, #1
 1435 029e 00FA03F3 		lsl	r3, r0, r3
 550:Drivers/STM32F1xx_HAL_Driver/Src/stm32f1xx_hal_dma.c **** 
ARM GAS  /tmp/cc4nKcdQ.s 			page 48


 1436              		.loc 1 550 34 view .LVU388
 1437 02a2 5360     		str	r3, [r2, #4]
 553:Drivers/STM32F1xx_HAL_Driver/Src/stm32f1xx_hal_dma.c **** 
 1438              		.loc 1 553 7 is_stmt 1 view .LVU389
 1439 02a4 A36B     		ldr	r3, [r4, #56]
 1440 02a6 0343     		orrs	r3, r3, r0
 1441 02a8 A363     		str	r3, [r4, #56]
 556:Drivers/STM32F1xx_HAL_Driver/Src/stm32f1xx_hal_dma.c **** 
 1442              		.loc 1 556 7 view .LVU390
 556:Drivers/STM32F1xx_HAL_Driver/Src/stm32f1xx_hal_dma.c **** 
 1443              		.loc 1 556 18 is_stmt 0 view .LVU391
 1444 02aa 84F82100 		strb	r0, [r4, #33]
 559:Drivers/STM32F1xx_HAL_Driver/Src/stm32f1xx_hal_dma.c **** 
 1445              		.loc 1 559 7 is_stmt 1 view .LVU392
 559:Drivers/STM32F1xx_HAL_Driver/Src/stm32f1xx_hal_dma.c **** 
 1446              		.loc 1 559 7 view .LVU393
 1447 02ae 0023     		movs	r3, #0
 1448 02b0 84F82030 		strb	r3, [r4, #32]
 559:Drivers/STM32F1xx_HAL_Driver/Src/stm32f1xx_hal_dma.c **** 
 1449              		.loc 1 559 7 view .LVU394
 561:Drivers/STM32F1xx_HAL_Driver/Src/stm32f1xx_hal_dma.c ****     }
 1450              		.loc 1 561 7 view .LVU395
 561:Drivers/STM32F1xx_HAL_Driver/Src/stm32f1xx_hal_dma.c ****     }
 1451              		.loc 1 561 14 is_stmt 0 view .LVU396
 1452 02b4 B1E6     		b	.L76
 1453              	.L193:
 566:Drivers/STM32F1xx_HAL_Driver/Src/stm32f1xx_hal_dma.c ****       {
 1454              		.loc 1 566 7 is_stmt 1 view .LVU397
 566:Drivers/STM32F1xx_HAL_Driver/Src/stm32f1xx_hal_dma.c ****       {
 1455              		.loc 1 566 9 is_stmt 0 view .LVU398
 1456 02b6 36B1     		cbz	r6, .L87
 566:Drivers/STM32F1xx_HAL_Driver/Src/stm32f1xx_hal_dma.c ****       {
 1457              		.loc 1 566 31 discriminator 1 view .LVU399
 1458 02b8 FFF7FEFF 		bl	HAL_GetTick
 1459              	.LVL60:
 566:Drivers/STM32F1xx_HAL_Driver/Src/stm32f1xx_hal_dma.c ****       {
 1460              		.loc 1 566 45 discriminator 1 view .LVU400
 1461 02bc A0EB0900 		sub	r0, r0, r9
 566:Drivers/STM32F1xx_HAL_Driver/Src/stm32f1xx_hal_dma.c ****       {
 1462              		.loc 1 566 26 discriminator 1 view .LVU401
 1463 02c0 B042     		cmp	r0, r6
 1464 02c2 7FF64FAF 		bls	.L86
 1465              	.L87:
 569:Drivers/STM32F1xx_HAL_Driver/Src/stm32f1xx_hal_dma.c **** 
 1466              		.loc 1 569 9 is_stmt 1 view .LVU402
 1467 02c6 A36B     		ldr	r3, [r4, #56]
 1468 02c8 43F02003 		orr	r3, r3, #32
 1469 02cc A363     		str	r3, [r4, #56]
 572:Drivers/STM32F1xx_HAL_Driver/Src/stm32f1xx_hal_dma.c **** 
 1470              		.loc 1 572 9 view .LVU403
 572:Drivers/STM32F1xx_HAL_Driver/Src/stm32f1xx_hal_dma.c **** 
 1471              		.loc 1 572 21 is_stmt 0 view .LVU404
 1472 02ce 0120     		movs	r0, #1
 1473 02d0 84F82100 		strb	r0, [r4, #33]
 575:Drivers/STM32F1xx_HAL_Driver/Src/stm32f1xx_hal_dma.c **** 
 1474              		.loc 1 575 9 is_stmt 1 view .LVU405
 575:Drivers/STM32F1xx_HAL_Driver/Src/stm32f1xx_hal_dma.c **** 
ARM GAS  /tmp/cc4nKcdQ.s 			page 49


 1475              		.loc 1 575 9 view .LVU406
 1476 02d4 0023     		movs	r3, #0
 1477 02d6 84F82030 		strb	r3, [r4, #32]
 575:Drivers/STM32F1xx_HAL_Driver/Src/stm32f1xx_hal_dma.c **** 
 1478              		.loc 1 575 9 view .LVU407
 577:Drivers/STM32F1xx_HAL_Driver/Src/stm32f1xx_hal_dma.c ****       }
 1479              		.loc 1 577 9 view .LVU408
 577:Drivers/STM32F1xx_HAL_Driver/Src/stm32f1xx_hal_dma.c ****       }
 1480              		.loc 1 577 16 is_stmt 0 view .LVU409
 1481 02da 9EE6     		b	.L76
 1482              	.L88:
 543:Drivers/STM32F1xx_HAL_Driver/Src/stm32f1xx_hal_dma.c ****   {
 1483              		.loc 1 543 9 discriminator 2 view .LVU410
 1484 02dc 0649     		ldr	r1, .L201+12
 1485 02de 0968     		ldr	r1, [r1]
 543:Drivers/STM32F1xx_HAL_Driver/Src/stm32f1xx_hal_dma.c ****   {
 1486              		.loc 1 543 40 discriminator 2 view .LVU411
 1487 02e0 3942     		tst	r1, r7
 1488 02e2 0CBF     		ite	eq
 1489 02e4 0125     		moveq	r5, #1
 1490 02e6 0025     		movne	r5, #0
 1491 02e8 48E7     		b	.L89
 1492              	.L202:
 1493 02ea 00BF     		.align	2
 1494              	.L201:
 1495 02ec 08000240 		.word	1073872904
 1496 02f0 80000240 		.word	1073873024
 1497 02f4 00040240 		.word	1073873920
 1498 02f8 00000240 		.word	1073872896
 1499              	.L194:
 582:Drivers/STM32F1xx_HAL_Driver/Src/stm32f1xx_hal_dma.c ****   {
 1500              		.loc 1 582 3 is_stmt 1 view .LVU412
 582:Drivers/STM32F1xx_HAL_Driver/Src/stm32f1xx_hal_dma.c ****   {
 1501              		.loc 1 582 5 is_stmt 0 view .LVU413
 1502 02fc B8F1000F 		cmp	r8, #0
 1503 0300 40F09080 		bne	.L91
 585:Drivers/STM32F1xx_HAL_Driver/Src/stm32f1xx_hal_dma.c **** 
 1504              		.loc 1 585 5 is_stmt 1 view .LVU414
 1505 0304 8C49     		ldr	r1, .L203
 1506 0306 8A42     		cmp	r2, r1
 1507 0308 48D9     		bls	.L92
 585:Drivers/STM32F1xx_HAL_Driver/Src/stm32f1xx_hal_dma.c **** 
 1508              		.loc 1 585 5 is_stmt 0 discriminator 1 view .LVU415
 1509 030a 8C4A     		ldr	r2, .L203+4
 1510 030c 9342     		cmp	r3, r2
 1511 030e 23D0     		beq	.L144
 585:Drivers/STM32F1xx_HAL_Driver/Src/stm32f1xx_hal_dma.c **** 
 1512              		.loc 1 585 5 discriminator 3 view .LVU416
 1513 0310 1432     		adds	r2, r2, #20
 1514 0312 9342     		cmp	r3, r2
 1515 0314 2AD0     		beq	.L145
 585:Drivers/STM32F1xx_HAL_Driver/Src/stm32f1xx_hal_dma.c **** 
 1516              		.loc 1 585 5 discriminator 5 view .LVU417
 1517 0316 1432     		adds	r2, r2, #20
 1518 0318 9342     		cmp	r3, r2
 1519 031a 29D0     		beq	.L146
 585:Drivers/STM32F1xx_HAL_Driver/Src/stm32f1xx_hal_dma.c **** 
ARM GAS  /tmp/cc4nKcdQ.s 			page 50


 1520              		.loc 1 585 5 discriminator 7 view .LVU418
 1521 031c 1432     		adds	r2, r2, #20
 1522 031e 9342     		cmp	r3, r2
 1523 0320 29D0     		beq	.L147
 585:Drivers/STM32F1xx_HAL_Driver/Src/stm32f1xx_hal_dma.c **** 
 1524              		.loc 1 585 5 discriminator 9 view .LVU419
 1525 0322 1432     		adds	r2, r2, #20
 1526 0324 9342     		cmp	r3, r2
 1527 0326 29D0     		beq	.L148
 585:Drivers/STM32F1xx_HAL_Driver/Src/stm32f1xx_hal_dma.c **** 
 1528              		.loc 1 585 5 discriminator 11 view .LVU420
 1529 0328 1432     		adds	r2, r2, #20
 1530 032a 9342     		cmp	r3, r2
 1531 032c 29D0     		beq	.L149
 585:Drivers/STM32F1xx_HAL_Driver/Src/stm32f1xx_hal_dma.c **** 
 1532              		.loc 1 585 5 discriminator 13 view .LVU421
 1533 032e 8B42     		cmp	r3, r1
 1534 0330 2AD0     		beq	.L150
 585:Drivers/STM32F1xx_HAL_Driver/Src/stm32f1xx_hal_dma.c **** 
 1535              		.loc 1 585 5 discriminator 15 view .LVU422
 1536 0332 01F56272 		add	r2, r1, #904
 1537 0336 9342     		cmp	r3, r2
 1538 0338 29D0     		beq	.L151
 585:Drivers/STM32F1xx_HAL_Driver/Src/stm32f1xx_hal_dma.c **** 
 1539              		.loc 1 585 5 discriminator 17 view .LVU423
 1540 033a 1432     		adds	r2, r2, #20
 1541 033c 9342     		cmp	r3, r2
 1542 033e 28D0     		beq	.L152
 585:Drivers/STM32F1xx_HAL_Driver/Src/stm32f1xx_hal_dma.c **** 
 1543              		.loc 1 585 5 discriminator 19 view .LVU424
 1544 0340 1432     		adds	r2, r2, #20
 1545 0342 9342     		cmp	r3, r2
 1546 0344 27D0     		beq	.L153
 585:Drivers/STM32F1xx_HAL_Driver/Src/stm32f1xx_hal_dma.c **** 
 1547              		.loc 1 585 5 discriminator 21 view .LVU425
 1548 0346 1432     		adds	r2, r2, #20
 1549 0348 9342     		cmp	r3, r2
 1550 034a 02D0     		beq	.L197
 585:Drivers/STM32F1xx_HAL_Driver/Src/stm32f1xx_hal_dma.c **** 
 1551              		.loc 1 585 5 view .LVU426
 1552 034c 4FF40033 		mov	r3, #131072
 1553 0350 03E0     		b	.L93
 1554              	.L197:
 1555 0352 4FF40053 		mov	r3, #8192
 1556 0356 00E0     		b	.L93
 1557              	.L144:
 1558 0358 0223     		movs	r3, #2
 1559              	.L93:
 585:Drivers/STM32F1xx_HAL_Driver/Src/stm32f1xx_hal_dma.c **** 
 1560              		.loc 1 585 5 discriminator 46 view .LVU427
 1561 035a 794A     		ldr	r2, .L203+8
 1562 035c 5360     		str	r3, [r2, #4]
 1563              	.L94:
 589:Drivers/STM32F1xx_HAL_Driver/Src/stm32f1xx_hal_dma.c ****   }
 1564              		.loc 1 589 5 is_stmt 1 view .LVU428
 589:Drivers/STM32F1xx_HAL_Driver/Src/stm32f1xx_hal_dma.c ****   }
 1565              		.loc 1 589 17 is_stmt 0 view .LVU429
ARM GAS  /tmp/cc4nKcdQ.s 			page 51


 1566 035e 0123     		movs	r3, #1
 1567 0360 84F82130 		strb	r3, [r4, #33]
 1568              	.L96:
 598:Drivers/STM32F1xx_HAL_Driver/Src/stm32f1xx_hal_dma.c **** 
 1569              		.loc 1 598 3 is_stmt 1 view .LVU430
 598:Drivers/STM32F1xx_HAL_Driver/Src/stm32f1xx_hal_dma.c **** 
 1570              		.loc 1 598 3 view .LVU431
 1571 0364 0020     		movs	r0, #0
 1572 0366 84F82000 		strb	r0, [r4, #32]
 598:Drivers/STM32F1xx_HAL_Driver/Src/stm32f1xx_hal_dma.c **** 
 1573              		.loc 1 598 3 view .LVU432
 600:Drivers/STM32F1xx_HAL_Driver/Src/stm32f1xx_hal_dma.c **** }
 1574              		.loc 1 600 3 view .LVU433
 600:Drivers/STM32F1xx_HAL_Driver/Src/stm32f1xx_hal_dma.c **** }
 1575              		.loc 1 600 10 is_stmt 0 view .LVU434
 1576 036a 56E6     		b	.L76
 1577              	.L145:
 585:Drivers/STM32F1xx_HAL_Driver/Src/stm32f1xx_hal_dma.c **** 
 1578              		.loc 1 585 5 view .LVU435
 1579 036c 2023     		movs	r3, #32
 1580 036e F4E7     		b	.L93
 1581              	.L146:
 1582 0370 4FF40073 		mov	r3, #512
 1583 0374 F1E7     		b	.L93
 1584              	.L147:
 1585 0376 4FF40053 		mov	r3, #8192
 1586 037a EEE7     		b	.L93
 1587              	.L148:
 1588 037c 4FF40033 		mov	r3, #131072
 1589 0380 EBE7     		b	.L93
 1590              	.L149:
 1591 0382 4FF40013 		mov	r3, #2097152
 1592 0386 E8E7     		b	.L93
 1593              	.L150:
 1594 0388 4FF00073 		mov	r3, #33554432
 1595 038c E5E7     		b	.L93
 1596              	.L151:
 1597 038e 0223     		movs	r3, #2
 1598 0390 E3E7     		b	.L93
 1599              	.L152:
 1600 0392 2023     		movs	r3, #32
 1601 0394 E1E7     		b	.L93
 1602              	.L153:
 1603 0396 4FF40073 		mov	r3, #512
 1604 039a DEE7     		b	.L93
 1605              	.L92:
 585:Drivers/STM32F1xx_HAL_Driver/Src/stm32f1xx_hal_dma.c **** 
 1606              		.loc 1 585 5 discriminator 2 view .LVU436
 1607 039c 674A     		ldr	r2, .L203+4
 1608 039e 9342     		cmp	r3, r2
 1609 03a0 24D0     		beq	.L155
 585:Drivers/STM32F1xx_HAL_Driver/Src/stm32f1xx_hal_dma.c **** 
 1610              		.loc 1 585 5 discriminator 47 view .LVU437
 1611 03a2 1432     		adds	r2, r2, #20
 1612 03a4 9342     		cmp	r3, r2
 1613 03a6 25D0     		beq	.L156
 585:Drivers/STM32F1xx_HAL_Driver/Src/stm32f1xx_hal_dma.c **** 
ARM GAS  /tmp/cc4nKcdQ.s 			page 52


 1614              		.loc 1 585 5 discriminator 49 view .LVU438
 1615 03a8 1432     		adds	r2, r2, #20
 1616 03aa 9342     		cmp	r3, r2
 1617 03ac 24D0     		beq	.L157
 585:Drivers/STM32F1xx_HAL_Driver/Src/stm32f1xx_hal_dma.c **** 
 1618              		.loc 1 585 5 discriminator 51 view .LVU439
 1619 03ae 1432     		adds	r2, r2, #20
 1620 03b0 9342     		cmp	r3, r2
 1621 03b2 24D0     		beq	.L158
 585:Drivers/STM32F1xx_HAL_Driver/Src/stm32f1xx_hal_dma.c **** 
 1622              		.loc 1 585 5 discriminator 53 view .LVU440
 1623 03b4 1432     		adds	r2, r2, #20
 1624 03b6 9342     		cmp	r3, r2
 1625 03b8 24D0     		beq	.L159
 585:Drivers/STM32F1xx_HAL_Driver/Src/stm32f1xx_hal_dma.c **** 
 1626              		.loc 1 585 5 discriminator 55 view .LVU441
 1627 03ba 1432     		adds	r2, r2, #20
 1628 03bc 9342     		cmp	r3, r2
 1629 03be 24D0     		beq	.L160
 585:Drivers/STM32F1xx_HAL_Driver/Src/stm32f1xx_hal_dma.c **** 
 1630              		.loc 1 585 5 discriminator 57 view .LVU442
 1631 03c0 1432     		adds	r2, r2, #20
 1632 03c2 9342     		cmp	r3, r2
 1633 03c4 24D0     		beq	.L161
 585:Drivers/STM32F1xx_HAL_Driver/Src/stm32f1xx_hal_dma.c **** 
 1634              		.loc 1 585 5 discriminator 59 view .LVU443
 1635 03c6 02F56272 		add	r2, r2, #904
 1636 03ca 9342     		cmp	r3, r2
 1637 03cc 23D0     		beq	.L162
 585:Drivers/STM32F1xx_HAL_Driver/Src/stm32f1xx_hal_dma.c **** 
 1638              		.loc 1 585 5 discriminator 61 view .LVU444
 1639 03ce 1432     		adds	r2, r2, #20
 1640 03d0 9342     		cmp	r3, r2
 1641 03d2 22D0     		beq	.L163
 585:Drivers/STM32F1xx_HAL_Driver/Src/stm32f1xx_hal_dma.c **** 
 1642              		.loc 1 585 5 discriminator 63 view .LVU445
 1643 03d4 1432     		adds	r2, r2, #20
 1644 03d6 9342     		cmp	r3, r2
 1645 03d8 21D0     		beq	.L164
 585:Drivers/STM32F1xx_HAL_Driver/Src/stm32f1xx_hal_dma.c **** 
 1646              		.loc 1 585 5 discriminator 65 view .LVU446
 1647 03da 1432     		adds	r2, r2, #20
 1648 03dc 9342     		cmp	r3, r2
 1649 03de 02D0     		beq	.L198
 585:Drivers/STM32F1xx_HAL_Driver/Src/stm32f1xx_hal_dma.c **** 
 1650              		.loc 1 585 5 view .LVU447
 1651 03e0 4FF40033 		mov	r3, #131072
 1652 03e4 03E0     		b	.L95
 1653              	.L198:
 1654 03e6 4FF40053 		mov	r3, #8192
 1655 03ea 00E0     		b	.L95
 1656              	.L155:
 1657 03ec 0223     		movs	r3, #2
 1658              	.L95:
 585:Drivers/STM32F1xx_HAL_Driver/Src/stm32f1xx_hal_dma.c **** 
 1659              		.loc 1 585 5 discriminator 90 view .LVU448
 1660 03ee 554A     		ldr	r2, .L203+12
ARM GAS  /tmp/cc4nKcdQ.s 			page 53


 1661 03f0 5360     		str	r3, [r2, #4]
 1662 03f2 B4E7     		b	.L94
 1663              	.L156:
 585:Drivers/STM32F1xx_HAL_Driver/Src/stm32f1xx_hal_dma.c **** 
 1664              		.loc 1 585 5 view .LVU449
 1665 03f4 2023     		movs	r3, #32
 1666 03f6 FAE7     		b	.L95
 1667              	.L157:
 1668 03f8 4FF40073 		mov	r3, #512
 1669 03fc F7E7     		b	.L95
 1670              	.L158:
 1671 03fe 4FF40053 		mov	r3, #8192
 1672 0402 F4E7     		b	.L95
 1673              	.L159:
 1674 0404 4FF40033 		mov	r3, #131072
 1675 0408 F1E7     		b	.L95
 1676              	.L160:
 1677 040a 4FF40013 		mov	r3, #2097152
 1678 040e EEE7     		b	.L95
 1679              	.L161:
 1680 0410 4FF00073 		mov	r3, #33554432
 1681 0414 EBE7     		b	.L95
 1682              	.L162:
 1683 0416 0223     		movs	r3, #2
 1684 0418 E9E7     		b	.L95
 1685              	.L163:
 1686 041a 2023     		movs	r3, #32
 1687 041c E7E7     		b	.L95
 1688              	.L164:
 1689 041e 4FF40073 		mov	r3, #512
 1690 0422 E4E7     		b	.L95
 1691              	.L91:
 594:Drivers/STM32F1xx_HAL_Driver/Src/stm32f1xx_hal_dma.c ****   }
 1692              		.loc 1 594 5 is_stmt 1 view .LVU450
 1693 0424 4449     		ldr	r1, .L203
 1694 0426 8A42     		cmp	r2, r1
 1695 0428 42D9     		bls	.L97
 594:Drivers/STM32F1xx_HAL_Driver/Src/stm32f1xx_hal_dma.c ****   }
 1696              		.loc 1 594 5 is_stmt 0 discriminator 1 view .LVU451
 1697 042a 444A     		ldr	r2, .L203+4
 1698 042c 9342     		cmp	r3, r2
 1699 042e 23D0     		beq	.L166
 594:Drivers/STM32F1xx_HAL_Driver/Src/stm32f1xx_hal_dma.c ****   }
 1700              		.loc 1 594 5 discriminator 3 view .LVU452
 1701 0430 1432     		adds	r2, r2, #20
 1702 0432 9342     		cmp	r3, r2
 1703 0434 24D0     		beq	.L167
 594:Drivers/STM32F1xx_HAL_Driver/Src/stm32f1xx_hal_dma.c ****   }
 1704              		.loc 1 594 5 discriminator 5 view .LVU453
 1705 0436 1432     		adds	r2, r2, #20
 1706 0438 9342     		cmp	r3, r2
 1707 043a 23D0     		beq	.L168
 594:Drivers/STM32F1xx_HAL_Driver/Src/stm32f1xx_hal_dma.c ****   }
 1708              		.loc 1 594 5 discriminator 7 view .LVU454
 1709 043c 1432     		adds	r2, r2, #20
 1710 043e 9342     		cmp	r3, r2
 1711 0440 23D0     		beq	.L169
ARM GAS  /tmp/cc4nKcdQ.s 			page 54


 594:Drivers/STM32F1xx_HAL_Driver/Src/stm32f1xx_hal_dma.c ****   }
 1712              		.loc 1 594 5 discriminator 9 view .LVU455
 1713 0442 1432     		adds	r2, r2, #20
 1714 0444 9342     		cmp	r3, r2
 1715 0446 23D0     		beq	.L170
 594:Drivers/STM32F1xx_HAL_Driver/Src/stm32f1xx_hal_dma.c ****   }
 1716              		.loc 1 594 5 discriminator 11 view .LVU456
 1717 0448 1432     		adds	r2, r2, #20
 1718 044a 9342     		cmp	r3, r2
 1719 044c 23D0     		beq	.L171
 594:Drivers/STM32F1xx_HAL_Driver/Src/stm32f1xx_hal_dma.c ****   }
 1720              		.loc 1 594 5 discriminator 13 view .LVU457
 1721 044e 8B42     		cmp	r3, r1
 1722 0450 24D0     		beq	.L172
 594:Drivers/STM32F1xx_HAL_Driver/Src/stm32f1xx_hal_dma.c ****   }
 1723              		.loc 1 594 5 discriminator 15 view .LVU458
 1724 0452 01F56272 		add	r2, r1, #904
 1725 0456 9342     		cmp	r3, r2
 1726 0458 23D0     		beq	.L173
 594:Drivers/STM32F1xx_HAL_Driver/Src/stm32f1xx_hal_dma.c ****   }
 1727              		.loc 1 594 5 discriminator 17 view .LVU459
 1728 045a 1432     		adds	r2, r2, #20
 1729 045c 9342     		cmp	r3, r2
 1730 045e 22D0     		beq	.L174
 594:Drivers/STM32F1xx_HAL_Driver/Src/stm32f1xx_hal_dma.c ****   }
 1731              		.loc 1 594 5 discriminator 19 view .LVU460
 1732 0460 1432     		adds	r2, r2, #20
 1733 0462 9342     		cmp	r3, r2
 1734 0464 21D0     		beq	.L175
 594:Drivers/STM32F1xx_HAL_Driver/Src/stm32f1xx_hal_dma.c ****   }
 1735              		.loc 1 594 5 discriminator 21 view .LVU461
 1736 0466 1432     		adds	r2, r2, #20
 1737 0468 9342     		cmp	r3, r2
 1738 046a 02D0     		beq	.L199
 594:Drivers/STM32F1xx_HAL_Driver/Src/stm32f1xx_hal_dma.c ****   }
 1739              		.loc 1 594 5 view .LVU462
 1740 046c 4FF48023 		mov	r3, #262144
 1741 0470 03E0     		b	.L98
 1742              	.L199:
 1743 0472 4FF48043 		mov	r3, #16384
 1744 0476 00E0     		b	.L98
 1745              	.L166:
 1746 0478 0423     		movs	r3, #4
 1747              	.L98:
 594:Drivers/STM32F1xx_HAL_Driver/Src/stm32f1xx_hal_dma.c ****   }
 1748              		.loc 1 594 5 discriminator 46 view .LVU463
 1749 047a 314A     		ldr	r2, .L203+8
 1750 047c 5360     		str	r3, [r2, #4]
 1751 047e 71E7     		b	.L96
 1752              	.L167:
 594:Drivers/STM32F1xx_HAL_Driver/Src/stm32f1xx_hal_dma.c ****   }
 1753              		.loc 1 594 5 view .LVU464
 1754 0480 4023     		movs	r3, #64
 1755 0482 FAE7     		b	.L98
 1756              	.L168:
 1757 0484 4FF48063 		mov	r3, #1024
 1758 0488 F7E7     		b	.L98
ARM GAS  /tmp/cc4nKcdQ.s 			page 55


 1759              	.L169:
 1760 048a 4FF48043 		mov	r3, #16384
 1761 048e F4E7     		b	.L98
 1762              	.L170:
 1763 0490 4FF48023 		mov	r3, #262144
 1764 0494 F1E7     		b	.L98
 1765              	.L171:
 1766 0496 4FF48003 		mov	r3, #4194304
 1767 049a EEE7     		b	.L98
 1768              	.L172:
 1769 049c 4FF08063 		mov	r3, #67108864
 1770 04a0 EBE7     		b	.L98
 1771              	.L173:
 1772 04a2 0423     		movs	r3, #4
 1773 04a4 E9E7     		b	.L98
 1774              	.L174:
 1775 04a6 4023     		movs	r3, #64
 1776 04a8 E7E7     		b	.L98
 1777              	.L175:
 1778 04aa 4FF48063 		mov	r3, #1024
 1779 04ae E4E7     		b	.L98
 1780              	.L97:
 594:Drivers/STM32F1xx_HAL_Driver/Src/stm32f1xx_hal_dma.c ****   }
 1781              		.loc 1 594 5 discriminator 2 view .LVU465
 1782 04b0 224A     		ldr	r2, .L203+4
 1783 04b2 9342     		cmp	r3, r2
 1784 04b4 24D0     		beq	.L177
 594:Drivers/STM32F1xx_HAL_Driver/Src/stm32f1xx_hal_dma.c ****   }
 1785              		.loc 1 594 5 discriminator 47 view .LVU466
 1786 04b6 1432     		adds	r2, r2, #20
 1787 04b8 9342     		cmp	r3, r2
 1788 04ba 25D0     		beq	.L178
 594:Drivers/STM32F1xx_HAL_Driver/Src/stm32f1xx_hal_dma.c ****   }
 1789              		.loc 1 594 5 discriminator 49 view .LVU467
 1790 04bc 1432     		adds	r2, r2, #20
 1791 04be 9342     		cmp	r3, r2
 1792 04c0 24D0     		beq	.L179
 594:Drivers/STM32F1xx_HAL_Driver/Src/stm32f1xx_hal_dma.c ****   }
 1793              		.loc 1 594 5 discriminator 51 view .LVU468
 1794 04c2 1432     		adds	r2, r2, #20
 1795 04c4 9342     		cmp	r3, r2
 1796 04c6 24D0     		beq	.L180
 594:Drivers/STM32F1xx_HAL_Driver/Src/stm32f1xx_hal_dma.c ****   }
 1797              		.loc 1 594 5 discriminator 53 view .LVU469
 1798 04c8 1432     		adds	r2, r2, #20
 1799 04ca 9342     		cmp	r3, r2
 1800 04cc 24D0     		beq	.L181
 594:Drivers/STM32F1xx_HAL_Driver/Src/stm32f1xx_hal_dma.c ****   }
 1801              		.loc 1 594 5 discriminator 55 view .LVU470
 1802 04ce 1432     		adds	r2, r2, #20
 1803 04d0 9342     		cmp	r3, r2
 1804 04d2 24D0     		beq	.L182
 594:Drivers/STM32F1xx_HAL_Driver/Src/stm32f1xx_hal_dma.c ****   }
 1805              		.loc 1 594 5 discriminator 57 view .LVU471
 1806 04d4 1432     		adds	r2, r2, #20
 1807 04d6 9342     		cmp	r3, r2
 1808 04d8 24D0     		beq	.L183
ARM GAS  /tmp/cc4nKcdQ.s 			page 56


 594:Drivers/STM32F1xx_HAL_Driver/Src/stm32f1xx_hal_dma.c ****   }
 1809              		.loc 1 594 5 discriminator 59 view .LVU472
 1810 04da 02F56272 		add	r2, r2, #904
 1811 04de 9342     		cmp	r3, r2
 1812 04e0 23D0     		beq	.L184
 594:Drivers/STM32F1xx_HAL_Driver/Src/stm32f1xx_hal_dma.c ****   }
 1813              		.loc 1 594 5 discriminator 61 view .LVU473
 1814 04e2 1432     		adds	r2, r2, #20
 1815 04e4 9342     		cmp	r3, r2
 1816 04e6 22D0     		beq	.L185
 594:Drivers/STM32F1xx_HAL_Driver/Src/stm32f1xx_hal_dma.c ****   }
 1817              		.loc 1 594 5 discriminator 63 view .LVU474
 1818 04e8 1432     		adds	r2, r2, #20
 1819 04ea 9342     		cmp	r3, r2
 1820 04ec 21D0     		beq	.L186
 594:Drivers/STM32F1xx_HAL_Driver/Src/stm32f1xx_hal_dma.c ****   }
 1821              		.loc 1 594 5 discriminator 65 view .LVU475
 1822 04ee 1432     		adds	r2, r2, #20
 1823 04f0 9342     		cmp	r3, r2
 1824 04f2 02D0     		beq	.L200
 594:Drivers/STM32F1xx_HAL_Driver/Src/stm32f1xx_hal_dma.c ****   }
 1825              		.loc 1 594 5 view .LVU476
 1826 04f4 4FF48023 		mov	r3, #262144
 1827 04f8 03E0     		b	.L99
 1828              	.L200:
 1829 04fa 4FF48043 		mov	r3, #16384
 1830 04fe 00E0     		b	.L99
 1831              	.L177:
 1832 0500 0423     		movs	r3, #4
 1833              	.L99:
 594:Drivers/STM32F1xx_HAL_Driver/Src/stm32f1xx_hal_dma.c ****   }
 1834              		.loc 1 594 5 discriminator 90 view .LVU477
 1835 0502 104A     		ldr	r2, .L203+12
 1836 0504 5360     		str	r3, [r2, #4]
 1837 0506 2DE7     		b	.L96
 1838              	.L178:
 594:Drivers/STM32F1xx_HAL_Driver/Src/stm32f1xx_hal_dma.c ****   }
 1839              		.loc 1 594 5 view .LVU478
 1840 0508 4023     		movs	r3, #64
 1841 050a FAE7     		b	.L99
 1842              	.L179:
 1843 050c 4FF48063 		mov	r3, #1024
 1844 0510 F7E7     		b	.L99
 1845              	.L180:
 1846 0512 4FF48043 		mov	r3, #16384
 1847 0516 F4E7     		b	.L99
 1848              	.L181:
 1849 0518 4FF48023 		mov	r3, #262144
 1850 051c F1E7     		b	.L99
 1851              	.L182:
 1852 051e 4FF48003 		mov	r3, #4194304
 1853 0522 EEE7     		b	.L99
 1854              	.L183:
 1855 0524 4FF08063 		mov	r3, #67108864
 1856 0528 EBE7     		b	.L99
 1857              	.L184:
 1858 052a 0423     		movs	r3, #4
ARM GAS  /tmp/cc4nKcdQ.s 			page 57


 1859 052c E9E7     		b	.L99
 1860              	.L185:
 1861 052e 4023     		movs	r3, #64
 1862 0530 E7E7     		b	.L99
 1863              	.L186:
 1864 0532 4FF48063 		mov	r3, #1024
 1865 0536 E4E7     		b	.L99
 1866              	.L204:
 1867              		.align	2
 1868              	.L203:
 1869 0538 80000240 		.word	1073873024
 1870 053c 08000240 		.word	1073872904
 1871 0540 00040240 		.word	1073873920
 1872 0544 00000240 		.word	1073872896
 1873              		.cfi_endproc
 1874              	.LFE72:
 1876              		.section	.text.HAL_DMA_IRQHandler,"ax",%progbits
 1877              		.align	1
 1878              		.global	HAL_DMA_IRQHandler
 1879              		.syntax unified
 1880              		.thumb
 1881              		.thumb_func
 1882              		.fpu softvfp
 1884              	HAL_DMA_IRQHandler:
 1885              	.LVL61:
 1886              	.LFB73:
 610:Drivers/STM32F1xx_HAL_Driver/Src/stm32f1xx_hal_dma.c ****   uint32_t flag_it = hdma->DmaBaseAddress->ISR;
 1887              		.loc 1 610 1 is_stmt 1 view -0
 1888              		.cfi_startproc
 1889              		@ args = 0, pretend = 0, frame = 0
 1890              		@ frame_needed = 0, uses_anonymous_args = 0
 610:Drivers/STM32F1xx_HAL_Driver/Src/stm32f1xx_hal_dma.c ****   uint32_t flag_it = hdma->DmaBaseAddress->ISR;
 1891              		.loc 1 610 1 is_stmt 0 view .LVU480
 1892 0000 38B5     		push	{r3, r4, r5, lr}
 1893              	.LCFI11:
 1894              		.cfi_def_cfa_offset 16
 1895              		.cfi_offset 3, -16
 1896              		.cfi_offset 4, -12
 1897              		.cfi_offset 5, -8
 1898              		.cfi_offset 14, -4
 611:Drivers/STM32F1xx_HAL_Driver/Src/stm32f1xx_hal_dma.c ****   uint32_t source_it = hdma->Instance->CCR;
 1899              		.loc 1 611 3 is_stmt 1 view .LVU481
 611:Drivers/STM32F1xx_HAL_Driver/Src/stm32f1xx_hal_dma.c ****   uint32_t source_it = hdma->Instance->CCR;
 1900              		.loc 1 611 26 is_stmt 0 view .LVU482
 1901 0002 C36B     		ldr	r3, [r0, #60]
 611:Drivers/STM32F1xx_HAL_Driver/Src/stm32f1xx_hal_dma.c ****   uint32_t source_it = hdma->Instance->CCR;
 1902              		.loc 1 611 12 view .LVU483
 1903 0004 1A68     		ldr	r2, [r3]
 1904              	.LVL62:
 612:Drivers/STM32F1xx_HAL_Driver/Src/stm32f1xx_hal_dma.c ****   
 1905              		.loc 1 612 3 is_stmt 1 view .LVU484
 612:Drivers/STM32F1xx_HAL_Driver/Src/stm32f1xx_hal_dma.c ****   
 1906              		.loc 1 612 28 is_stmt 0 view .LVU485
 1907 0006 0468     		ldr	r4, [r0]
 612:Drivers/STM32F1xx_HAL_Driver/Src/stm32f1xx_hal_dma.c ****   
 1908              		.loc 1 612 12 view .LVU486
 1909 0008 2568     		ldr	r5, [r4]
ARM GAS  /tmp/cc4nKcdQ.s 			page 58


 1910              	.LVL63:
 615:Drivers/STM32F1xx_HAL_Driver/Src/stm32f1xx_hal_dma.c ****   {
 1911              		.loc 1 615 3 is_stmt 1 view .LVU487
 615:Drivers/STM32F1xx_HAL_Driver/Src/stm32f1xx_hal_dma.c ****   {
 1912              		.loc 1 615 40 is_stmt 0 view .LVU488
 1913 000a 016C     		ldr	r1, [r0, #64]
 615:Drivers/STM32F1xx_HAL_Driver/Src/stm32f1xx_hal_dma.c ****   {
 1914              		.loc 1 615 33 view .LVU489
 1915 000c 0423     		movs	r3, #4
 1916 000e 8B40     		lsls	r3, r3, r1
 615:Drivers/STM32F1xx_HAL_Driver/Src/stm32f1xx_hal_dma.c ****   {
 1917              		.loc 1 615 6 view .LVU490
 1918 0010 1342     		tst	r3, r2
 1919 0012 00F09B80 		beq	.L206
 615:Drivers/STM32F1xx_HAL_Driver/Src/stm32f1xx_hal_dma.c ****   {
 1920              		.loc 1 615 67 discriminator 1 view .LVU491
 1921 0016 15F0040F 		tst	r5, #4
 1922 001a 00F09780 		beq	.L206
 618:Drivers/STM32F1xx_HAL_Driver/Src/stm32f1xx_hal_dma.c ****     {
 1923              		.loc 1 618 5 is_stmt 1 view .LVU492
 618:Drivers/STM32F1xx_HAL_Driver/Src/stm32f1xx_hal_dma.c ****     {
 1924              		.loc 1 618 23 is_stmt 0 view .LVU493
 1925 001e 2368     		ldr	r3, [r4]
 618:Drivers/STM32F1xx_HAL_Driver/Src/stm32f1xx_hal_dma.c ****     {
 1926              		.loc 1 618 7 view .LVU494
 1927 0020 13F0200F 		tst	r3, #32
 1928 0024 03D1     		bne	.L207
 621:Drivers/STM32F1xx_HAL_Driver/Src/stm32f1xx_hal_dma.c ****     }
 1929              		.loc 1 621 7 is_stmt 1 view .LVU495
 1930 0026 2368     		ldr	r3, [r4]
 1931 0028 23F00403 		bic	r3, r3, #4
 1932 002c 2360     		str	r3, [r4]
 1933              	.L207:
 624:Drivers/STM32F1xx_HAL_Driver/Src/stm32f1xx_hal_dma.c **** 
 1934              		.loc 1 624 5 view .LVU496
 1935 002e 0368     		ldr	r3, [r0]
 1936 0030 AA4A     		ldr	r2, .L268
 1937              	.LVL64:
 624:Drivers/STM32F1xx_HAL_Driver/Src/stm32f1xx_hal_dma.c **** 
 1938              		.loc 1 624 5 is_stmt 0 view .LVU497
 1939 0032 9342     		cmp	r3, r2
 1940 0034 46D9     		bls	.L208
 624:Drivers/STM32F1xx_HAL_Driver/Src/stm32f1xx_hal_dma.c **** 
 1941              		.loc 1 624 5 discriminator 1 view .LVU498
 1942 0036 783A     		subs	r2, r2, #120
 1943 0038 9342     		cmp	r3, r2
 1944 003a 24D0     		beq	.L219
 624:Drivers/STM32F1xx_HAL_Driver/Src/stm32f1xx_hal_dma.c **** 
 1945              		.loc 1 624 5 discriminator 3 view .LVU499
 1946 003c 1432     		adds	r2, r2, #20
 1947 003e 9342     		cmp	r3, r2
 1948 0040 28D0     		beq	.L220
 624:Drivers/STM32F1xx_HAL_Driver/Src/stm32f1xx_hal_dma.c **** 
 1949              		.loc 1 624 5 discriminator 5 view .LVU500
 1950 0042 1432     		adds	r2, r2, #20
 1951 0044 9342     		cmp	r3, r2
 1952 0046 27D0     		beq	.L221
ARM GAS  /tmp/cc4nKcdQ.s 			page 59


 624:Drivers/STM32F1xx_HAL_Driver/Src/stm32f1xx_hal_dma.c **** 
 1953              		.loc 1 624 5 discriminator 7 view .LVU501
 1954 0048 1432     		adds	r2, r2, #20
 1955 004a 9342     		cmp	r3, r2
 1956 004c 27D0     		beq	.L222
 624:Drivers/STM32F1xx_HAL_Driver/Src/stm32f1xx_hal_dma.c **** 
 1957              		.loc 1 624 5 discriminator 9 view .LVU502
 1958 004e 1432     		adds	r2, r2, #20
 1959 0050 9342     		cmp	r3, r2
 1960 0052 27D0     		beq	.L223
 624:Drivers/STM32F1xx_HAL_Driver/Src/stm32f1xx_hal_dma.c **** 
 1961              		.loc 1 624 5 discriminator 11 view .LVU503
 1962 0054 1432     		adds	r2, r2, #20
 1963 0056 9342     		cmp	r3, r2
 1964 0058 27D0     		beq	.L224
 624:Drivers/STM32F1xx_HAL_Driver/Src/stm32f1xx_hal_dma.c **** 
 1965              		.loc 1 624 5 discriminator 13 view .LVU504
 1966 005a 1432     		adds	r2, r2, #20
 1967 005c 9342     		cmp	r3, r2
 1968 005e 27D0     		beq	.L225
 624:Drivers/STM32F1xx_HAL_Driver/Src/stm32f1xx_hal_dma.c **** 
 1969              		.loc 1 624 5 discriminator 15 view .LVU505
 1970 0060 02F56272 		add	r2, r2, #904
 1971 0064 9342     		cmp	r3, r2
 1972 0066 26D0     		beq	.L226
 624:Drivers/STM32F1xx_HAL_Driver/Src/stm32f1xx_hal_dma.c **** 
 1973              		.loc 1 624 5 discriminator 17 view .LVU506
 1974 0068 1432     		adds	r2, r2, #20
 1975 006a 9342     		cmp	r3, r2
 1976 006c 25D0     		beq	.L227
 624:Drivers/STM32F1xx_HAL_Driver/Src/stm32f1xx_hal_dma.c **** 
 1977              		.loc 1 624 5 discriminator 19 view .LVU507
 1978 006e 1432     		adds	r2, r2, #20
 1979 0070 9342     		cmp	r3, r2
 1980 0072 24D0     		beq	.L228
 624:Drivers/STM32F1xx_HAL_Driver/Src/stm32f1xx_hal_dma.c **** 
 1981              		.loc 1 624 5 discriminator 21 view .LVU508
 1982 0074 1432     		adds	r2, r2, #20
 1983 0076 9342     		cmp	r3, r2
 1984 0078 02D0     		beq	.L264
 624:Drivers/STM32F1xx_HAL_Driver/Src/stm32f1xx_hal_dma.c **** 
 1985              		.loc 1 624 5 view .LVU509
 1986 007a 4FF48022 		mov	r2, #262144
 1987 007e 03E0     		b	.L209
 1988              	.L264:
 1989 0080 4FF48042 		mov	r2, #16384
 1990 0084 00E0     		b	.L209
 1991              	.L219:
 1992 0086 0422     		movs	r2, #4
 1993              	.L209:
 624:Drivers/STM32F1xx_HAL_Driver/Src/stm32f1xx_hal_dma.c **** 
 1994              		.loc 1 624 5 discriminator 46 view .LVU510
 1995 0088 954B     		ldr	r3, .L268+4
 1996 008a 5A60     		str	r2, [r3, #4]
 1997              	.L210:
 629:Drivers/STM32F1xx_HAL_Driver/Src/stm32f1xx_hal_dma.c ****     {
 1998              		.loc 1 629 5 is_stmt 1 view .LVU511
ARM GAS  /tmp/cc4nKcdQ.s 			page 60


 629:Drivers/STM32F1xx_HAL_Driver/Src/stm32f1xx_hal_dma.c ****     {
 1999              		.loc 1 629 12 is_stmt 0 view .LVU512
 2000 008c C36A     		ldr	r3, [r0, #44]
 629:Drivers/STM32F1xx_HAL_Driver/Src/stm32f1xx_hal_dma.c ****     {
 2001              		.loc 1 629 7 view .LVU513
 2002 008e 03B1     		cbz	r3, .L205
 632:Drivers/STM32F1xx_HAL_Driver/Src/stm32f1xx_hal_dma.c ****     }
 2003              		.loc 1 632 7 is_stmt 1 view .LVU514
 2004 0090 9847     		blx	r3
 2005              	.LVL65:
 2006              	.L205:
 687:Drivers/STM32F1xx_HAL_Driver/Src/stm32f1xx_hal_dma.c **** 
 2007              		.loc 1 687 1 is_stmt 0 view .LVU515
 2008 0092 38BD     		pop	{r3, r4, r5, pc}
 2009              	.LVL66:
 2010              	.L220:
 624:Drivers/STM32F1xx_HAL_Driver/Src/stm32f1xx_hal_dma.c **** 
 2011              		.loc 1 624 5 view .LVU516
 2012 0094 4022     		movs	r2, #64
 2013 0096 F7E7     		b	.L209
 2014              	.L221:
 2015 0098 4FF48062 		mov	r2, #1024
 2016 009c F4E7     		b	.L209
 2017              	.L222:
 2018 009e 4FF48042 		mov	r2, #16384
 2019 00a2 F1E7     		b	.L209
 2020              	.L223:
 2021 00a4 4FF48022 		mov	r2, #262144
 2022 00a8 EEE7     		b	.L209
 2023              	.L224:
 2024 00aa 4FF48002 		mov	r2, #4194304
 2025 00ae EBE7     		b	.L209
 2026              	.L225:
 2027 00b0 4FF08062 		mov	r2, #67108864
 2028 00b4 E8E7     		b	.L209
 2029              	.L226:
 2030 00b6 0422     		movs	r2, #4
 2031 00b8 E6E7     		b	.L209
 2032              	.L227:
 2033 00ba 4022     		movs	r2, #64
 2034 00bc E4E7     		b	.L209
 2035              	.L228:
 2036 00be 4FF48062 		mov	r2, #1024
 2037 00c2 E1E7     		b	.L209
 2038              	.L208:
 624:Drivers/STM32F1xx_HAL_Driver/Src/stm32f1xx_hal_dma.c **** 
 2039              		.loc 1 624 5 discriminator 2 view .LVU517
 2040 00c4 874A     		ldr	r2, .L268+8
 2041 00c6 9342     		cmp	r3, r2
 2042 00c8 24D0     		beq	.L230
 624:Drivers/STM32F1xx_HAL_Driver/Src/stm32f1xx_hal_dma.c **** 
 2043              		.loc 1 624 5 discriminator 47 view .LVU518
 2044 00ca 1432     		adds	r2, r2, #20
 2045 00cc 9342     		cmp	r3, r2
 2046 00ce 25D0     		beq	.L231
 624:Drivers/STM32F1xx_HAL_Driver/Src/stm32f1xx_hal_dma.c **** 
 2047              		.loc 1 624 5 discriminator 49 view .LVU519
ARM GAS  /tmp/cc4nKcdQ.s 			page 61


 2048 00d0 1432     		adds	r2, r2, #20
 2049 00d2 9342     		cmp	r3, r2
 2050 00d4 24D0     		beq	.L232
 624:Drivers/STM32F1xx_HAL_Driver/Src/stm32f1xx_hal_dma.c **** 
 2051              		.loc 1 624 5 discriminator 51 view .LVU520
 2052 00d6 1432     		adds	r2, r2, #20
 2053 00d8 9342     		cmp	r3, r2
 2054 00da 24D0     		beq	.L233
 624:Drivers/STM32F1xx_HAL_Driver/Src/stm32f1xx_hal_dma.c **** 
 2055              		.loc 1 624 5 discriminator 53 view .LVU521
 2056 00dc 1432     		adds	r2, r2, #20
 2057 00de 9342     		cmp	r3, r2
 2058 00e0 24D0     		beq	.L234
 624:Drivers/STM32F1xx_HAL_Driver/Src/stm32f1xx_hal_dma.c **** 
 2059              		.loc 1 624 5 discriminator 55 view .LVU522
 2060 00e2 1432     		adds	r2, r2, #20
 2061 00e4 9342     		cmp	r3, r2
 2062 00e6 24D0     		beq	.L235
 624:Drivers/STM32F1xx_HAL_Driver/Src/stm32f1xx_hal_dma.c **** 
 2063              		.loc 1 624 5 discriminator 57 view .LVU523
 2064 00e8 1432     		adds	r2, r2, #20
 2065 00ea 9342     		cmp	r3, r2
 2066 00ec 24D0     		beq	.L236
 624:Drivers/STM32F1xx_HAL_Driver/Src/stm32f1xx_hal_dma.c **** 
 2067              		.loc 1 624 5 discriminator 59 view .LVU524
 2068 00ee 02F56272 		add	r2, r2, #904
 2069 00f2 9342     		cmp	r3, r2
 2070 00f4 23D0     		beq	.L237
 624:Drivers/STM32F1xx_HAL_Driver/Src/stm32f1xx_hal_dma.c **** 
 2071              		.loc 1 624 5 discriminator 61 view .LVU525
 2072 00f6 1432     		adds	r2, r2, #20
 2073 00f8 9342     		cmp	r3, r2
 2074 00fa 22D0     		beq	.L238
 624:Drivers/STM32F1xx_HAL_Driver/Src/stm32f1xx_hal_dma.c **** 
 2075              		.loc 1 624 5 discriminator 63 view .LVU526
 2076 00fc 1432     		adds	r2, r2, #20
 2077 00fe 9342     		cmp	r3, r2
 2078 0100 21D0     		beq	.L239
 624:Drivers/STM32F1xx_HAL_Driver/Src/stm32f1xx_hal_dma.c **** 
 2079              		.loc 1 624 5 discriminator 65 view .LVU527
 2080 0102 1432     		adds	r2, r2, #20
 2081 0104 9342     		cmp	r3, r2
 2082 0106 02D0     		beq	.L265
 624:Drivers/STM32F1xx_HAL_Driver/Src/stm32f1xx_hal_dma.c **** 
 2083              		.loc 1 624 5 view .LVU528
 2084 0108 4FF48022 		mov	r2, #262144
 2085 010c 03E0     		b	.L211
 2086              	.L265:
 2087 010e 4FF48042 		mov	r2, #16384
 2088 0112 00E0     		b	.L211
 2089              	.L230:
 2090 0114 0422     		movs	r2, #4
 2091              	.L211:
 624:Drivers/STM32F1xx_HAL_Driver/Src/stm32f1xx_hal_dma.c **** 
 2092              		.loc 1 624 5 discriminator 90 view .LVU529
 2093 0116 744B     		ldr	r3, .L268+12
 2094 0118 5A60     		str	r2, [r3, #4]
ARM GAS  /tmp/cc4nKcdQ.s 			page 62


 2095 011a B7E7     		b	.L210
 2096              	.L231:
 624:Drivers/STM32F1xx_HAL_Driver/Src/stm32f1xx_hal_dma.c **** 
 2097              		.loc 1 624 5 view .LVU530
 2098 011c 4022     		movs	r2, #64
 2099 011e FAE7     		b	.L211
 2100              	.L232:
 2101 0120 4FF48062 		mov	r2, #1024
 2102 0124 F7E7     		b	.L211
 2103              	.L233:
 2104 0126 4FF48042 		mov	r2, #16384
 2105 012a F4E7     		b	.L211
 2106              	.L234:
 2107 012c 4FF48022 		mov	r2, #262144
 2108 0130 F1E7     		b	.L211
 2109              	.L235:
 2110 0132 4FF48002 		mov	r2, #4194304
 2111 0136 EEE7     		b	.L211
 2112              	.L236:
 2113 0138 4FF08062 		mov	r2, #67108864
 2114 013c EBE7     		b	.L211
 2115              	.L237:
 2116 013e 0422     		movs	r2, #4
 2117 0140 E9E7     		b	.L211
 2118              	.L238:
 2119 0142 4022     		movs	r2, #64
 2120 0144 E7E7     		b	.L211
 2121              	.L239:
 2122 0146 4FF48062 		mov	r2, #1024
 2123 014a E4E7     		b	.L211
 2124              	.LVL67:
 2125              	.L206:
 637:Drivers/STM32F1xx_HAL_Driver/Src/stm32f1xx_hal_dma.c ****   {
 2126              		.loc 1 637 8 is_stmt 1 view .LVU531
 637:Drivers/STM32F1xx_HAL_Driver/Src/stm32f1xx_hal_dma.c ****   {
 2127              		.loc 1 637 38 is_stmt 0 view .LVU532
 2128 014c 0223     		movs	r3, #2
 2129 014e 8B40     		lsls	r3, r3, r1
 637:Drivers/STM32F1xx_HAL_Driver/Src/stm32f1xx_hal_dma.c ****   {
 2130              		.loc 1 637 11 view .LVU533
 2131 0150 1342     		tst	r3, r2
 2132 0152 00F0A380 		beq	.L213
 637:Drivers/STM32F1xx_HAL_Driver/Src/stm32f1xx_hal_dma.c ****   {
 2133              		.loc 1 637 72 discriminator 1 view .LVU534
 2134 0156 15F0020F 		tst	r5, #2
 2135 015a 00F09F80 		beq	.L213
 639:Drivers/STM32F1xx_HAL_Driver/Src/stm32f1xx_hal_dma.c ****     {
 2136              		.loc 1 639 5 is_stmt 1 view .LVU535
 639:Drivers/STM32F1xx_HAL_Driver/Src/stm32f1xx_hal_dma.c ****     {
 2137              		.loc 1 639 23 is_stmt 0 view .LVU536
 2138 015e 2368     		ldr	r3, [r4]
 639:Drivers/STM32F1xx_HAL_Driver/Src/stm32f1xx_hal_dma.c ****     {
 2139              		.loc 1 639 7 view .LVU537
 2140 0160 13F0200F 		tst	r3, #32
 2141 0164 06D1     		bne	.L214
 642:Drivers/STM32F1xx_HAL_Driver/Src/stm32f1xx_hal_dma.c **** 
 2142              		.loc 1 642 7 is_stmt 1 view .LVU538
ARM GAS  /tmp/cc4nKcdQ.s 			page 63


 2143 0166 2368     		ldr	r3, [r4]
 2144 0168 23F00A03 		bic	r3, r3, #10
 2145 016c 2360     		str	r3, [r4]
 645:Drivers/STM32F1xx_HAL_Driver/Src/stm32f1xx_hal_dma.c ****     }
 2146              		.loc 1 645 7 view .LVU539
 645:Drivers/STM32F1xx_HAL_Driver/Src/stm32f1xx_hal_dma.c ****     }
 2147              		.loc 1 645 19 is_stmt 0 view .LVU540
 2148 016e 0123     		movs	r3, #1
 2149 0170 80F82130 		strb	r3, [r0, #33]
 2150              	.L214:
 648:Drivers/STM32F1xx_HAL_Driver/Src/stm32f1xx_hal_dma.c **** 
 2151              		.loc 1 648 7 is_stmt 1 view .LVU541
 2152 0174 0368     		ldr	r3, [r0]
 2153 0176 594A     		ldr	r2, .L268
 2154              	.LVL68:
 648:Drivers/STM32F1xx_HAL_Driver/Src/stm32f1xx_hal_dma.c **** 
 2155              		.loc 1 648 7 is_stmt 0 view .LVU542
 2156 0178 9342     		cmp	r3, r2
 2157 017a 4BD9     		bls	.L215
 648:Drivers/STM32F1xx_HAL_Driver/Src/stm32f1xx_hal_dma.c **** 
 2158              		.loc 1 648 7 discriminator 1 view .LVU543
 2159 017c 783A     		subs	r2, r2, #120
 2160 017e 9342     		cmp	r3, r2
 2161 0180 24D0     		beq	.L241
 648:Drivers/STM32F1xx_HAL_Driver/Src/stm32f1xx_hal_dma.c **** 
 2162              		.loc 1 648 7 discriminator 3 view .LVU544
 2163 0182 1432     		adds	r2, r2, #20
 2164 0184 9342     		cmp	r3, r2
 2165 0186 2DD0     		beq	.L242
 648:Drivers/STM32F1xx_HAL_Driver/Src/stm32f1xx_hal_dma.c **** 
 2166              		.loc 1 648 7 discriminator 5 view .LVU545
 2167 0188 1432     		adds	r2, r2, #20
 2168 018a 9342     		cmp	r3, r2
 2169 018c 2CD0     		beq	.L243
 648:Drivers/STM32F1xx_HAL_Driver/Src/stm32f1xx_hal_dma.c **** 
 2170              		.loc 1 648 7 discriminator 7 view .LVU546
 2171 018e 1432     		adds	r2, r2, #20
 2172 0190 9342     		cmp	r3, r2
 2173 0192 2CD0     		beq	.L244
 648:Drivers/STM32F1xx_HAL_Driver/Src/stm32f1xx_hal_dma.c **** 
 2174              		.loc 1 648 7 discriminator 9 view .LVU547
 2175 0194 1432     		adds	r2, r2, #20
 2176 0196 9342     		cmp	r3, r2
 2177 0198 2CD0     		beq	.L245
 648:Drivers/STM32F1xx_HAL_Driver/Src/stm32f1xx_hal_dma.c **** 
 2178              		.loc 1 648 7 discriminator 11 view .LVU548
 2179 019a 1432     		adds	r2, r2, #20
 2180 019c 9342     		cmp	r3, r2
 2181 019e 2CD0     		beq	.L246
 648:Drivers/STM32F1xx_HAL_Driver/Src/stm32f1xx_hal_dma.c **** 
 2182              		.loc 1 648 7 discriminator 13 view .LVU549
 2183 01a0 1432     		adds	r2, r2, #20
 2184 01a2 9342     		cmp	r3, r2
 2185 01a4 2CD0     		beq	.L247
 648:Drivers/STM32F1xx_HAL_Driver/Src/stm32f1xx_hal_dma.c **** 
 2186              		.loc 1 648 7 discriminator 15 view .LVU550
 2187 01a6 02F56272 		add	r2, r2, #904
ARM GAS  /tmp/cc4nKcdQ.s 			page 64


 2188 01aa 9342     		cmp	r3, r2
 2189 01ac 2BD0     		beq	.L248
 648:Drivers/STM32F1xx_HAL_Driver/Src/stm32f1xx_hal_dma.c **** 
 2190              		.loc 1 648 7 discriminator 17 view .LVU551
 2191 01ae 1432     		adds	r2, r2, #20
 2192 01b0 9342     		cmp	r3, r2
 2193 01b2 2AD0     		beq	.L249
 648:Drivers/STM32F1xx_HAL_Driver/Src/stm32f1xx_hal_dma.c **** 
 2194              		.loc 1 648 7 discriminator 19 view .LVU552
 2195 01b4 1432     		adds	r2, r2, #20
 2196 01b6 9342     		cmp	r3, r2
 2197 01b8 29D0     		beq	.L250
 648:Drivers/STM32F1xx_HAL_Driver/Src/stm32f1xx_hal_dma.c **** 
 2198              		.loc 1 648 7 discriminator 21 view .LVU553
 2199 01ba 1432     		adds	r2, r2, #20
 2200 01bc 9342     		cmp	r3, r2
 2201 01be 02D0     		beq	.L266
 648:Drivers/STM32F1xx_HAL_Driver/Src/stm32f1xx_hal_dma.c **** 
 2202              		.loc 1 648 7 view .LVU554
 2203 01c0 4FF40032 		mov	r2, #131072
 2204 01c4 03E0     		b	.L216
 2205              	.L266:
 2206 01c6 4FF40052 		mov	r2, #8192
 2207 01ca 00E0     		b	.L216
 2208              	.L241:
 2209 01cc 0222     		movs	r2, #2
 2210              	.L216:
 648:Drivers/STM32F1xx_HAL_Driver/Src/stm32f1xx_hal_dma.c **** 
 2211              		.loc 1 648 7 discriminator 46 view .LVU555
 2212 01ce 444B     		ldr	r3, .L268+4
 2213 01d0 5A60     		str	r2, [r3, #4]
 2214              	.L217:
 651:Drivers/STM32F1xx_HAL_Driver/Src/stm32f1xx_hal_dma.c **** 
 2215              		.loc 1 651 5 is_stmt 1 view .LVU556
 651:Drivers/STM32F1xx_HAL_Driver/Src/stm32f1xx_hal_dma.c **** 
 2216              		.loc 1 651 5 view .LVU557
 2217 01d2 0023     		movs	r3, #0
 2218 01d4 80F82030 		strb	r3, [r0, #32]
 651:Drivers/STM32F1xx_HAL_Driver/Src/stm32f1xx_hal_dma.c **** 
 2219              		.loc 1 651 5 view .LVU558
 653:Drivers/STM32F1xx_HAL_Driver/Src/stm32f1xx_hal_dma.c ****     {
 2220              		.loc 1 653 5 view .LVU559
 653:Drivers/STM32F1xx_HAL_Driver/Src/stm32f1xx_hal_dma.c ****     {
 2221              		.loc 1 653 12 is_stmt 0 view .LVU560
 2222 01d8 836A     		ldr	r3, [r0, #40]
 653:Drivers/STM32F1xx_HAL_Driver/Src/stm32f1xx_hal_dma.c ****     {
 2223              		.loc 1 653 7 view .LVU561
 2224 01da 002B     		cmp	r3, #0
 2225 01dc 3FF459AF 		beq	.L205
 656:Drivers/STM32F1xx_HAL_Driver/Src/stm32f1xx_hal_dma.c ****     }
 2226              		.loc 1 656 7 is_stmt 1 view .LVU562
 2227 01e0 9847     		blx	r3
 2228              	.LVL69:
 656:Drivers/STM32F1xx_HAL_Driver/Src/stm32f1xx_hal_dma.c ****     }
 2229              		.loc 1 656 7 is_stmt 0 view .LVU563
 2230 01e2 56E7     		b	.L205
 2231              	.LVL70:
ARM GAS  /tmp/cc4nKcdQ.s 			page 65


 2232              	.L242:
 648:Drivers/STM32F1xx_HAL_Driver/Src/stm32f1xx_hal_dma.c **** 
 2233              		.loc 1 648 7 view .LVU564
 2234 01e4 2022     		movs	r2, #32
 2235 01e6 F2E7     		b	.L216
 2236              	.L243:
 2237 01e8 4FF40072 		mov	r2, #512
 2238 01ec EFE7     		b	.L216
 2239              	.L244:
 2240 01ee 4FF40052 		mov	r2, #8192
 2241 01f2 ECE7     		b	.L216
 2242              	.L245:
 2243 01f4 4FF40032 		mov	r2, #131072
 2244 01f8 E9E7     		b	.L216
 2245              	.L246:
 2246 01fa 4FF40012 		mov	r2, #2097152
 2247 01fe E6E7     		b	.L216
 2248              	.L247:
 2249 0200 4FF00072 		mov	r2, #33554432
 2250 0204 E3E7     		b	.L216
 2251              	.L248:
 2252 0206 0222     		movs	r2, #2
 2253 0208 E1E7     		b	.L216
 2254              	.L249:
 2255 020a 2022     		movs	r2, #32
 2256 020c DFE7     		b	.L216
 2257              	.L250:
 2258 020e 4FF40072 		mov	r2, #512
 2259 0212 DCE7     		b	.L216
 2260              	.L215:
 648:Drivers/STM32F1xx_HAL_Driver/Src/stm32f1xx_hal_dma.c **** 
 2261              		.loc 1 648 7 discriminator 2 view .LVU565
 2262 0214 334A     		ldr	r2, .L268+8
 2263 0216 9342     		cmp	r3, r2
 2264 0218 24D0     		beq	.L252
 648:Drivers/STM32F1xx_HAL_Driver/Src/stm32f1xx_hal_dma.c **** 
 2265              		.loc 1 648 7 discriminator 47 view .LVU566
 2266 021a 1432     		adds	r2, r2, #20
 2267 021c 9342     		cmp	r3, r2
 2268 021e 25D0     		beq	.L253
 648:Drivers/STM32F1xx_HAL_Driver/Src/stm32f1xx_hal_dma.c **** 
 2269              		.loc 1 648 7 discriminator 49 view .LVU567
 2270 0220 1432     		adds	r2, r2, #20
 2271 0222 9342     		cmp	r3, r2
 2272 0224 24D0     		beq	.L254
 648:Drivers/STM32F1xx_HAL_Driver/Src/stm32f1xx_hal_dma.c **** 
 2273              		.loc 1 648 7 discriminator 51 view .LVU568
 2274 0226 1432     		adds	r2, r2, #20
 2275 0228 9342     		cmp	r3, r2
 2276 022a 24D0     		beq	.L255
 648:Drivers/STM32F1xx_HAL_Driver/Src/stm32f1xx_hal_dma.c **** 
 2277              		.loc 1 648 7 discriminator 53 view .LVU569
 2278 022c 1432     		adds	r2, r2, #20
 2279 022e 9342     		cmp	r3, r2
 2280 0230 24D0     		beq	.L256
 648:Drivers/STM32F1xx_HAL_Driver/Src/stm32f1xx_hal_dma.c **** 
 2281              		.loc 1 648 7 discriminator 55 view .LVU570
ARM GAS  /tmp/cc4nKcdQ.s 			page 66


 2282 0232 1432     		adds	r2, r2, #20
 2283 0234 9342     		cmp	r3, r2
 2284 0236 24D0     		beq	.L257
 648:Drivers/STM32F1xx_HAL_Driver/Src/stm32f1xx_hal_dma.c **** 
 2285              		.loc 1 648 7 discriminator 57 view .LVU571
 2286 0238 1432     		adds	r2, r2, #20
 2287 023a 9342     		cmp	r3, r2
 2288 023c 24D0     		beq	.L258
 648:Drivers/STM32F1xx_HAL_Driver/Src/stm32f1xx_hal_dma.c **** 
 2289              		.loc 1 648 7 discriminator 59 view .LVU572
 2290 023e 02F56272 		add	r2, r2, #904
 2291 0242 9342     		cmp	r3, r2
 2292 0244 23D0     		beq	.L259
 648:Drivers/STM32F1xx_HAL_Driver/Src/stm32f1xx_hal_dma.c **** 
 2293              		.loc 1 648 7 discriminator 61 view .LVU573
 2294 0246 1432     		adds	r2, r2, #20
 2295 0248 9342     		cmp	r3, r2
 2296 024a 22D0     		beq	.L260
 648:Drivers/STM32F1xx_HAL_Driver/Src/stm32f1xx_hal_dma.c **** 
 2297              		.loc 1 648 7 discriminator 63 view .LVU574
 2298 024c 1432     		adds	r2, r2, #20
 2299 024e 9342     		cmp	r3, r2
 2300 0250 21D0     		beq	.L261
 648:Drivers/STM32F1xx_HAL_Driver/Src/stm32f1xx_hal_dma.c **** 
 2301              		.loc 1 648 7 discriminator 65 view .LVU575
 2302 0252 1432     		adds	r2, r2, #20
 2303 0254 9342     		cmp	r3, r2
 2304 0256 02D0     		beq	.L267
 648:Drivers/STM32F1xx_HAL_Driver/Src/stm32f1xx_hal_dma.c **** 
 2305              		.loc 1 648 7 view .LVU576
 2306 0258 4FF40032 		mov	r2, #131072
 2307 025c 03E0     		b	.L218
 2308              	.L267:
 2309 025e 4FF40052 		mov	r2, #8192
 2310 0262 00E0     		b	.L218
 2311              	.L252:
 2312 0264 0222     		movs	r2, #2
 2313              	.L218:
 648:Drivers/STM32F1xx_HAL_Driver/Src/stm32f1xx_hal_dma.c **** 
 2314              		.loc 1 648 7 discriminator 90 view .LVU577
 2315 0266 204B     		ldr	r3, .L268+12
 2316 0268 5A60     		str	r2, [r3, #4]
 2317 026a B2E7     		b	.L217
 2318              	.L253:
 648:Drivers/STM32F1xx_HAL_Driver/Src/stm32f1xx_hal_dma.c **** 
 2319              		.loc 1 648 7 view .LVU578
 2320 026c 2022     		movs	r2, #32
 2321 026e FAE7     		b	.L218
 2322              	.L254:
 2323 0270 4FF40072 		mov	r2, #512
 2324 0274 F7E7     		b	.L218
 2325              	.L255:
 2326 0276 4FF40052 		mov	r2, #8192
 2327 027a F4E7     		b	.L218
 2328              	.L256:
 2329 027c 4FF40032 		mov	r2, #131072
 2330 0280 F1E7     		b	.L218
ARM GAS  /tmp/cc4nKcdQ.s 			page 67


 2331              	.L257:
 2332 0282 4FF40012 		mov	r2, #2097152
 2333 0286 EEE7     		b	.L218
 2334              	.L258:
 2335 0288 4FF00072 		mov	r2, #33554432
 2336 028c EBE7     		b	.L218
 2337              	.L259:
 2338 028e 0222     		movs	r2, #2
 2339 0290 E9E7     		b	.L218
 2340              	.L260:
 2341 0292 2022     		movs	r2, #32
 2342 0294 E7E7     		b	.L218
 2343              	.L261:
 2344 0296 4FF40072 		mov	r2, #512
 2345 029a E4E7     		b	.L218
 2346              	.LVL71:
 2347              	.L213:
 661:Drivers/STM32F1xx_HAL_Driver/Src/stm32f1xx_hal_dma.c ****   {
 2348              		.loc 1 661 8 is_stmt 1 view .LVU579
 661:Drivers/STM32F1xx_HAL_Driver/Src/stm32f1xx_hal_dma.c ****   {
 2349              		.loc 1 661 48 is_stmt 0 view .LVU580
 2350 029c 0823     		movs	r3, #8
 2351 029e 03FA01F1 		lsl	r1, r3, r1
 661:Drivers/STM32F1xx_HAL_Driver/Src/stm32f1xx_hal_dma.c ****   {
 2352              		.loc 1 661 11 view .LVU581
 2353 02a2 1142     		tst	r1, r2
 2354 02a4 3FF4F5AE 		beq	.L205
 661:Drivers/STM32F1xx_HAL_Driver/Src/stm32f1xx_hal_dma.c ****   {
 2355              		.loc 1 661 73 discriminator 1 view .LVU582
 2356 02a8 15F0080F 		tst	r5, #8
 2357 02ac 3FF4F1AE 		beq	.L205
 666:Drivers/STM32F1xx_HAL_Driver/Src/stm32f1xx_hal_dma.c **** 
 2358              		.loc 1 666 5 is_stmt 1 view .LVU583
 2359 02b0 2368     		ldr	r3, [r4]
 2360 02b2 23F00E03 		bic	r3, r3, #14
 2361 02b6 2360     		str	r3, [r4]
 669:Drivers/STM32F1xx_HAL_Driver/Src/stm32f1xx_hal_dma.c **** 
 2362              		.loc 1 669 5 view .LVU584
 669:Drivers/STM32F1xx_HAL_Driver/Src/stm32f1xx_hal_dma.c **** 
 2363              		.loc 1 669 55 is_stmt 0 view .LVU585
 2364 02b8 026C     		ldr	r2, [r0, #64]
 2365              	.LVL72:
 669:Drivers/STM32F1xx_HAL_Driver/Src/stm32f1xx_hal_dma.c **** 
 2366              		.loc 1 669 9 view .LVU586
 2367 02ba C16B     		ldr	r1, [r0, #60]
 669:Drivers/STM32F1xx_HAL_Driver/Src/stm32f1xx_hal_dma.c **** 
 2368              		.loc 1 669 48 view .LVU587
 2369 02bc 0123     		movs	r3, #1
 2370 02be 03FA02F2 		lsl	r2, r3, r2
 669:Drivers/STM32F1xx_HAL_Driver/Src/stm32f1xx_hal_dma.c **** 
 2371              		.loc 1 669 32 view .LVU588
 2372 02c2 4A60     		str	r2, [r1, #4]
 672:Drivers/STM32F1xx_HAL_Driver/Src/stm32f1xx_hal_dma.c **** 
 2373              		.loc 1 672 5 is_stmt 1 view .LVU589
 672:Drivers/STM32F1xx_HAL_Driver/Src/stm32f1xx_hal_dma.c **** 
 2374              		.loc 1 672 21 is_stmt 0 view .LVU590
 2375 02c4 8363     		str	r3, [r0, #56]
ARM GAS  /tmp/cc4nKcdQ.s 			page 68


 675:Drivers/STM32F1xx_HAL_Driver/Src/stm32f1xx_hal_dma.c **** 
 2376              		.loc 1 675 5 is_stmt 1 view .LVU591
 675:Drivers/STM32F1xx_HAL_Driver/Src/stm32f1xx_hal_dma.c **** 
 2377              		.loc 1 675 17 is_stmt 0 view .LVU592
 2378 02c6 80F82130 		strb	r3, [r0, #33]
 678:Drivers/STM32F1xx_HAL_Driver/Src/stm32f1xx_hal_dma.c **** 
 2379              		.loc 1 678 5 is_stmt 1 view .LVU593
 678:Drivers/STM32F1xx_HAL_Driver/Src/stm32f1xx_hal_dma.c **** 
 2380              		.loc 1 678 5 view .LVU594
 2381 02ca 0023     		movs	r3, #0
 2382 02cc 80F82030 		strb	r3, [r0, #32]
 678:Drivers/STM32F1xx_HAL_Driver/Src/stm32f1xx_hal_dma.c **** 
 2383              		.loc 1 678 5 view .LVU595
 680:Drivers/STM32F1xx_HAL_Driver/Src/stm32f1xx_hal_dma.c ****     {
 2384              		.loc 1 680 5 view .LVU596
 680:Drivers/STM32F1xx_HAL_Driver/Src/stm32f1xx_hal_dma.c ****     {
 2385              		.loc 1 680 13 is_stmt 0 view .LVU597
 2386 02d0 036B     		ldr	r3, [r0, #48]
 680:Drivers/STM32F1xx_HAL_Driver/Src/stm32f1xx_hal_dma.c ****     {
 2387              		.loc 1 680 8 view .LVU598
 2388 02d2 002B     		cmp	r3, #0
 2389 02d4 3FF4DDAE 		beq	.L205
 683:Drivers/STM32F1xx_HAL_Driver/Src/stm32f1xx_hal_dma.c ****     }
 2390              		.loc 1 683 7 is_stmt 1 view .LVU599
 2391 02d8 9847     		blx	r3
 2392              	.LVL73:
 686:Drivers/STM32F1xx_HAL_Driver/Src/stm32f1xx_hal_dma.c **** }
 2393              		.loc 1 686 3 view .LVU600
 2394 02da DAE6     		b	.L205
 2395              	.L269:
 2396              		.align	2
 2397              	.L268:
 2398 02dc 80000240 		.word	1073873024
 2399 02e0 00040240 		.word	1073873920
 2400 02e4 08000240 		.word	1073872904
 2401 02e8 00000240 		.word	1073872896
 2402              		.cfi_endproc
 2403              	.LFE73:
 2405              		.section	.text.HAL_DMA_RegisterCallback,"ax",%progbits
 2406              		.align	1
 2407              		.global	HAL_DMA_RegisterCallback
 2408              		.syntax unified
 2409              		.thumb
 2410              		.thumb_func
 2411              		.fpu softvfp
 2413              	HAL_DMA_RegisterCallback:
 2414              	.LVL74:
 2415              	.LFB74:
 700:Drivers/STM32F1xx_HAL_Driver/Src/stm32f1xx_hal_dma.c ****   HAL_StatusTypeDef status = HAL_OK;
 2416              		.loc 1 700 1 view -0
 2417              		.cfi_startproc
 2418              		@ args = 0, pretend = 0, frame = 0
 2419              		@ frame_needed = 0, uses_anonymous_args = 0
 2420              		@ link register save eliminated.
 700:Drivers/STM32F1xx_HAL_Driver/Src/stm32f1xx_hal_dma.c ****   HAL_StatusTypeDef status = HAL_OK;
 2421              		.loc 1 700 1 is_stmt 0 view .LVU602
 2422 0000 0346     		mov	r3, r0
ARM GAS  /tmp/cc4nKcdQ.s 			page 69


 701:Drivers/STM32F1xx_HAL_Driver/Src/stm32f1xx_hal_dma.c ****   
 2423              		.loc 1 701 3 is_stmt 1 view .LVU603
 2424              	.LVL75:
 704:Drivers/STM32F1xx_HAL_Driver/Src/stm32f1xx_hal_dma.c ****   
 2425              		.loc 1 704 3 view .LVU604
 704:Drivers/STM32F1xx_HAL_Driver/Src/stm32f1xx_hal_dma.c ****   
 2426              		.loc 1 704 3 view .LVU605
 2427 0002 90F82000 		ldrb	r0, [r0, #32]	@ zero_extendqisi2
 2428              	.LVL76:
 704:Drivers/STM32F1xx_HAL_Driver/Src/stm32f1xx_hal_dma.c ****   
 2429              		.loc 1 704 3 is_stmt 0 view .LVU606
 2430 0006 0128     		cmp	r0, #1
 2431 0008 1AD0     		beq	.L278
 704:Drivers/STM32F1xx_HAL_Driver/Src/stm32f1xx_hal_dma.c ****   
 2432              		.loc 1 704 3 is_stmt 1 discriminator 2 view .LVU607
 704:Drivers/STM32F1xx_HAL_Driver/Src/stm32f1xx_hal_dma.c ****   
 2433              		.loc 1 704 3 discriminator 2 view .LVU608
 706:Drivers/STM32F1xx_HAL_Driver/Src/stm32f1xx_hal_dma.c ****   {
 2434              		.loc 1 706 3 discriminator 2 view .LVU609
 706:Drivers/STM32F1xx_HAL_Driver/Src/stm32f1xx_hal_dma.c ****   {
 2435              		.loc 1 706 33 is_stmt 0 discriminator 2 view .LVU610
 2436 000a 93F82100 		ldrb	r0, [r3, #33]	@ zero_extendqisi2
 706:Drivers/STM32F1xx_HAL_Driver/Src/stm32f1xx_hal_dma.c ****   {
 2437              		.loc 1 706 5 discriminator 2 view .LVU611
 2438 000e 0128     		cmp	r0, #1
 2439 0010 04D0     		beq	.L280
 733:Drivers/STM32F1xx_HAL_Driver/Src/stm32f1xx_hal_dma.c ****   } 
 2440              		.loc 1 733 12 view .LVU612
 2441 0012 0120     		movs	r0, #1
 2442              	.L272:
 2443              	.LVL77:
 737:Drivers/STM32F1xx_HAL_Driver/Src/stm32f1xx_hal_dma.c ****   
 2444              		.loc 1 737 3 is_stmt 1 view .LVU613
 737:Drivers/STM32F1xx_HAL_Driver/Src/stm32f1xx_hal_dma.c ****   
 2445              		.loc 1 737 3 view .LVU614
 2446 0014 0022     		movs	r2, #0
 2447              	.LVL78:
 737:Drivers/STM32F1xx_HAL_Driver/Src/stm32f1xx_hal_dma.c ****   
 2448              		.loc 1 737 3 is_stmt 0 view .LVU615
 2449 0016 83F82020 		strb	r2, [r3, #32]
 737:Drivers/STM32F1xx_HAL_Driver/Src/stm32f1xx_hal_dma.c ****   
 2450              		.loc 1 737 3 is_stmt 1 view .LVU616
 739:Drivers/STM32F1xx_HAL_Driver/Src/stm32f1xx_hal_dma.c **** }
 2451              		.loc 1 739 3 view .LVU617
 739:Drivers/STM32F1xx_HAL_Driver/Src/stm32f1xx_hal_dma.c **** }
 2452              		.loc 1 739 10 is_stmt 0 view .LVU618
 2453 001a 7047     		bx	lr
 2454              	.LVL79:
 2455              	.L280:
 708:Drivers/STM32F1xx_HAL_Driver/Src/stm32f1xx_hal_dma.c ****     {
 2456              		.loc 1 708 5 is_stmt 1 view .LVU619
 2457 001c 0329     		cmp	r1, #3
 2458 001e F9D8     		bhi	.L272
 2459 0020 DFE801F0 		tbb	[pc, r1]
 2460              	.L274:
 2461 0024 02       		.byte	(.L277-.L274)/2
 2462 0025 05       		.byte	(.L276-.L274)/2
ARM GAS  /tmp/cc4nKcdQ.s 			page 70


 2463 0026 08       		.byte	(.L275-.L274)/2
 2464 0027 0B       		.byte	(.L273-.L274)/2
 2465              		.p2align 1
 2466              	.L277:
 711:Drivers/STM32F1xx_HAL_Driver/Src/stm32f1xx_hal_dma.c ****       break;
 2467              		.loc 1 711 7 view .LVU620
 711:Drivers/STM32F1xx_HAL_Driver/Src/stm32f1xx_hal_dma.c ****       break;
 2468              		.loc 1 711 30 is_stmt 0 view .LVU621
 2469 0028 9A62     		str	r2, [r3, #40]
 712:Drivers/STM32F1xx_HAL_Driver/Src/stm32f1xx_hal_dma.c ****       
 2470              		.loc 1 712 7 is_stmt 1 view .LVU622
 701:Drivers/STM32F1xx_HAL_Driver/Src/stm32f1xx_hal_dma.c ****   
 2471              		.loc 1 701 21 is_stmt 0 view .LVU623
 2472 002a 0846     		mov	r0, r1
 712:Drivers/STM32F1xx_HAL_Driver/Src/stm32f1xx_hal_dma.c ****       
 2473              		.loc 1 712 7 view .LVU624
 2474 002c F2E7     		b	.L272
 2475              	.L276:
 715:Drivers/STM32F1xx_HAL_Driver/Src/stm32f1xx_hal_dma.c ****       break;         
 2476              		.loc 1 715 7 is_stmt 1 view .LVU625
 715:Drivers/STM32F1xx_HAL_Driver/Src/stm32f1xx_hal_dma.c ****       break;         
 2477              		.loc 1 715 34 is_stmt 0 view .LVU626
 2478 002e DA62     		str	r2, [r3, #44]
 716:Drivers/STM32F1xx_HAL_Driver/Src/stm32f1xx_hal_dma.c **** 
 2479              		.loc 1 716 7 is_stmt 1 view .LVU627
 701:Drivers/STM32F1xx_HAL_Driver/Src/stm32f1xx_hal_dma.c ****   
 2480              		.loc 1 701 21 is_stmt 0 view .LVU628
 2481 0030 0020     		movs	r0, #0
 716:Drivers/STM32F1xx_HAL_Driver/Src/stm32f1xx_hal_dma.c **** 
 2482              		.loc 1 716 7 view .LVU629
 2483 0032 EFE7     		b	.L272
 2484              	.L275:
 719:Drivers/STM32F1xx_HAL_Driver/Src/stm32f1xx_hal_dma.c ****       break;         
 2485              		.loc 1 719 7 is_stmt 1 view .LVU630
 719:Drivers/STM32F1xx_HAL_Driver/Src/stm32f1xx_hal_dma.c ****       break;         
 2486              		.loc 1 719 31 is_stmt 0 view .LVU631
 2487 0034 1A63     		str	r2, [r3, #48]
 720:Drivers/STM32F1xx_HAL_Driver/Src/stm32f1xx_hal_dma.c ****       
 2488              		.loc 1 720 7 is_stmt 1 view .LVU632
 701:Drivers/STM32F1xx_HAL_Driver/Src/stm32f1xx_hal_dma.c ****   
 2489              		.loc 1 701 21 is_stmt 0 view .LVU633
 2490 0036 0020     		movs	r0, #0
 720:Drivers/STM32F1xx_HAL_Driver/Src/stm32f1xx_hal_dma.c ****       
 2491              		.loc 1 720 7 view .LVU634
 2492 0038 ECE7     		b	.L272
 2493              	.L273:
 723:Drivers/STM32F1xx_HAL_Driver/Src/stm32f1xx_hal_dma.c ****       break; 
 2494              		.loc 1 723 7 is_stmt 1 view .LVU635
 723:Drivers/STM32F1xx_HAL_Driver/Src/stm32f1xx_hal_dma.c ****       break; 
 2495              		.loc 1 723 31 is_stmt 0 view .LVU636
 2496 003a 5A63     		str	r2, [r3, #52]
 724:Drivers/STM32F1xx_HAL_Driver/Src/stm32f1xx_hal_dma.c ****       
 2497              		.loc 1 724 7 is_stmt 1 view .LVU637
 701:Drivers/STM32F1xx_HAL_Driver/Src/stm32f1xx_hal_dma.c ****   
 2498              		.loc 1 701 21 is_stmt 0 view .LVU638
 2499 003c 0020     		movs	r0, #0
 724:Drivers/STM32F1xx_HAL_Driver/Src/stm32f1xx_hal_dma.c ****       
ARM GAS  /tmp/cc4nKcdQ.s 			page 71


 2500              		.loc 1 724 7 view .LVU639
 2501 003e E9E7     		b	.L272
 2502              	.L278:
 704:Drivers/STM32F1xx_HAL_Driver/Src/stm32f1xx_hal_dma.c ****   
 2503              		.loc 1 704 3 view .LVU640
 2504 0040 0220     		movs	r0, #2
 740:Drivers/STM32F1xx_HAL_Driver/Src/stm32f1xx_hal_dma.c **** 
 2505              		.loc 1 740 1 view .LVU641
 2506 0042 7047     		bx	lr
 2507              		.cfi_endproc
 2508              	.LFE74:
 2510              		.section	.text.HAL_DMA_UnRegisterCallback,"ax",%progbits
 2511              		.align	1
 2512              		.global	HAL_DMA_UnRegisterCallback
 2513              		.syntax unified
 2514              		.thumb
 2515              		.thumb_func
 2516              		.fpu softvfp
 2518              	HAL_DMA_UnRegisterCallback:
 2519              	.LVL80:
 2520              	.LFB75:
 751:Drivers/STM32F1xx_HAL_Driver/Src/stm32f1xx_hal_dma.c ****   HAL_StatusTypeDef status = HAL_OK;
 2521              		.loc 1 751 1 is_stmt 1 view -0
 2522              		.cfi_startproc
 2523              		@ args = 0, pretend = 0, frame = 0
 2524              		@ frame_needed = 0, uses_anonymous_args = 0
 2525              		@ link register save eliminated.
 751:Drivers/STM32F1xx_HAL_Driver/Src/stm32f1xx_hal_dma.c ****   HAL_StatusTypeDef status = HAL_OK;
 2526              		.loc 1 751 1 is_stmt 0 view .LVU643
 2527 0000 0346     		mov	r3, r0
 752:Drivers/STM32F1xx_HAL_Driver/Src/stm32f1xx_hal_dma.c **** 
 2528              		.loc 1 752 3 is_stmt 1 view .LVU644
 2529              	.LVL81:
 755:Drivers/STM32F1xx_HAL_Driver/Src/stm32f1xx_hal_dma.c ****   
 2530              		.loc 1 755 3 view .LVU645
 755:Drivers/STM32F1xx_HAL_Driver/Src/stm32f1xx_hal_dma.c ****   
 2531              		.loc 1 755 3 view .LVU646
 2532 0002 90F82020 		ldrb	r2, [r0, #32]	@ zero_extendqisi2
 2533 0006 012A     		cmp	r2, #1
 2534 0008 25D0     		beq	.L290
 755:Drivers/STM32F1xx_HAL_Driver/Src/stm32f1xx_hal_dma.c ****   
 2535              		.loc 1 755 3 discriminator 2 view .LVU647
 2536 000a 0122     		movs	r2, #1
 2537 000c 80F82020 		strb	r2, [r0, #32]
 755:Drivers/STM32F1xx_HAL_Driver/Src/stm32f1xx_hal_dma.c ****   
 2538              		.loc 1 755 3 discriminator 2 view .LVU648
 757:Drivers/STM32F1xx_HAL_Driver/Src/stm32f1xx_hal_dma.c ****   {
 2539              		.loc 1 757 3 discriminator 2 view .LVU649
 757:Drivers/STM32F1xx_HAL_Driver/Src/stm32f1xx_hal_dma.c ****   {
 2540              		.loc 1 757 33 is_stmt 0 discriminator 2 view .LVU650
 2541 0010 90F82100 		ldrb	r0, [r0, #33]	@ zero_extendqisi2
 2542              	.LVL82:
 757:Drivers/STM32F1xx_HAL_Driver/Src/stm32f1xx_hal_dma.c ****   {
 2543              		.loc 1 757 5 discriminator 2 view .LVU651
 2544 0014 9042     		cmp	r0, r2
 2545 0016 04D0     		beq	.L292
 791:Drivers/STM32F1xx_HAL_Driver/Src/stm32f1xx_hal_dma.c ****   } 
ARM GAS  /tmp/cc4nKcdQ.s 			page 72


 2546              		.loc 1 791 12 view .LVU652
 2547 0018 0120     		movs	r0, #1
 2548              	.L283:
 2549              	.LVL83:
 795:Drivers/STM32F1xx_HAL_Driver/Src/stm32f1xx_hal_dma.c ****   
 2550              		.loc 1 795 3 is_stmt 1 view .LVU653
 795:Drivers/STM32F1xx_HAL_Driver/Src/stm32f1xx_hal_dma.c ****   
 2551              		.loc 1 795 3 view .LVU654
 2552 001a 0022     		movs	r2, #0
 2553 001c 83F82020 		strb	r2, [r3, #32]
 795:Drivers/STM32F1xx_HAL_Driver/Src/stm32f1xx_hal_dma.c ****   
 2554              		.loc 1 795 3 view .LVU655
 797:Drivers/STM32F1xx_HAL_Driver/Src/stm32f1xx_hal_dma.c **** }
 2555              		.loc 1 797 3 view .LVU656
 797:Drivers/STM32F1xx_HAL_Driver/Src/stm32f1xx_hal_dma.c **** }
 2556              		.loc 1 797 10 is_stmt 0 view .LVU657
 2557 0020 7047     		bx	lr
 2558              	.LVL84:
 2559              	.L292:
 759:Drivers/STM32F1xx_HAL_Driver/Src/stm32f1xx_hal_dma.c ****     {
 2560              		.loc 1 759 5 is_stmt 1 view .LVU658
 2561 0022 0429     		cmp	r1, #4
 2562 0024 F9D8     		bhi	.L283
 2563 0026 DFE801F0 		tbb	[pc, r1]
 2564              	.L285:
 2565 002a 03       		.byte	(.L289-.L285)/2
 2566 002b 07       		.byte	(.L288-.L285)/2
 2567 002c 0A       		.byte	(.L287-.L285)/2
 2568 002d 0D       		.byte	(.L286-.L285)/2
 2569 002e 10       		.byte	(.L284-.L285)/2
 2570 002f 00       		.p2align 1
 2571              	.L289:
 762:Drivers/STM32F1xx_HAL_Driver/Src/stm32f1xx_hal_dma.c ****       break;
 2572              		.loc 1 762 7 view .LVU659
 762:Drivers/STM32F1xx_HAL_Driver/Src/stm32f1xx_hal_dma.c ****       break;
 2573              		.loc 1 762 30 is_stmt 0 view .LVU660
 2574 0030 0022     		movs	r2, #0
 2575 0032 9A62     		str	r2, [r3, #40]
 763:Drivers/STM32F1xx_HAL_Driver/Src/stm32f1xx_hal_dma.c **** 
 2576              		.loc 1 763 7 is_stmt 1 view .LVU661
 752:Drivers/STM32F1xx_HAL_Driver/Src/stm32f1xx_hal_dma.c **** 
 2577              		.loc 1 752 21 is_stmt 0 view .LVU662
 2578 0034 0846     		mov	r0, r1
 763:Drivers/STM32F1xx_HAL_Driver/Src/stm32f1xx_hal_dma.c **** 
 2579              		.loc 1 763 7 view .LVU663
 2580 0036 F0E7     		b	.L283
 2581              	.L288:
 766:Drivers/STM32F1xx_HAL_Driver/Src/stm32f1xx_hal_dma.c ****       break;         
 2582              		.loc 1 766 7 is_stmt 1 view .LVU664
 766:Drivers/STM32F1xx_HAL_Driver/Src/stm32f1xx_hal_dma.c ****       break;         
 2583              		.loc 1 766 34 is_stmt 0 view .LVU665
 2584 0038 0020     		movs	r0, #0
 2585 003a D862     		str	r0, [r3, #44]
 767:Drivers/STM32F1xx_HAL_Driver/Src/stm32f1xx_hal_dma.c **** 
 2586              		.loc 1 767 7 is_stmt 1 view .LVU666
 2587 003c EDE7     		b	.L283
 2588              	.L287:
ARM GAS  /tmp/cc4nKcdQ.s 			page 73


 770:Drivers/STM32F1xx_HAL_Driver/Src/stm32f1xx_hal_dma.c ****       break;         
 2589              		.loc 1 770 7 view .LVU667
 770:Drivers/STM32F1xx_HAL_Driver/Src/stm32f1xx_hal_dma.c ****       break;         
 2590              		.loc 1 770 31 is_stmt 0 view .LVU668
 2591 003e 0020     		movs	r0, #0
 2592 0040 1863     		str	r0, [r3, #48]
 771:Drivers/STM32F1xx_HAL_Driver/Src/stm32f1xx_hal_dma.c **** 
 2593              		.loc 1 771 7 is_stmt 1 view .LVU669
 2594 0042 EAE7     		b	.L283
 2595              	.L286:
 774:Drivers/STM32F1xx_HAL_Driver/Src/stm32f1xx_hal_dma.c ****       break; 
 2596              		.loc 1 774 7 view .LVU670
 774:Drivers/STM32F1xx_HAL_Driver/Src/stm32f1xx_hal_dma.c ****       break; 
 2597              		.loc 1 774 31 is_stmt 0 view .LVU671
 2598 0044 0020     		movs	r0, #0
 2599 0046 5863     		str	r0, [r3, #52]
 775:Drivers/STM32F1xx_HAL_Driver/Src/stm32f1xx_hal_dma.c **** 
 2600              		.loc 1 775 7 is_stmt 1 view .LVU672
 2601 0048 E7E7     		b	.L283
 2602              	.L284:
 778:Drivers/STM32F1xx_HAL_Driver/Src/stm32f1xx_hal_dma.c ****       hdma->XferHalfCpltCallback = NULL;
 2603              		.loc 1 778 7 view .LVU673
 778:Drivers/STM32F1xx_HAL_Driver/Src/stm32f1xx_hal_dma.c ****       hdma->XferHalfCpltCallback = NULL;
 2604              		.loc 1 778 30 is_stmt 0 view .LVU674
 2605 004a 0020     		movs	r0, #0
 2606 004c 9862     		str	r0, [r3, #40]
 779:Drivers/STM32F1xx_HAL_Driver/Src/stm32f1xx_hal_dma.c ****       hdma->XferErrorCallback = NULL;
 2607              		.loc 1 779 7 is_stmt 1 view .LVU675
 779:Drivers/STM32F1xx_HAL_Driver/Src/stm32f1xx_hal_dma.c ****       hdma->XferErrorCallback = NULL;
 2608              		.loc 1 779 34 is_stmt 0 view .LVU676
 2609 004e D862     		str	r0, [r3, #44]
 780:Drivers/STM32F1xx_HAL_Driver/Src/stm32f1xx_hal_dma.c ****       hdma->XferAbortCallback = NULL;
 2610              		.loc 1 780 7 is_stmt 1 view .LVU677
 780:Drivers/STM32F1xx_HAL_Driver/Src/stm32f1xx_hal_dma.c ****       hdma->XferAbortCallback = NULL;
 2611              		.loc 1 780 31 is_stmt 0 view .LVU678
 2612 0050 1863     		str	r0, [r3, #48]
 781:Drivers/STM32F1xx_HAL_Driver/Src/stm32f1xx_hal_dma.c ****       break; 
 2613              		.loc 1 781 7 is_stmt 1 view .LVU679
 781:Drivers/STM32F1xx_HAL_Driver/Src/stm32f1xx_hal_dma.c ****       break; 
 2614              		.loc 1 781 31 is_stmt 0 view .LVU680
 2615 0052 5863     		str	r0, [r3, #52]
 782:Drivers/STM32F1xx_HAL_Driver/Src/stm32f1xx_hal_dma.c **** 
 2616              		.loc 1 782 7 is_stmt 1 view .LVU681
 2617 0054 E1E7     		b	.L283
 2618              	.LVL85:
 2619              	.L290:
 755:Drivers/STM32F1xx_HAL_Driver/Src/stm32f1xx_hal_dma.c ****   
 2620              		.loc 1 755 3 is_stmt 0 view .LVU682
 2621 0056 0220     		movs	r0, #2
 2622              	.LVL86:
 798:Drivers/STM32F1xx_HAL_Driver/Src/stm32f1xx_hal_dma.c ****   
 2623              		.loc 1 798 1 view .LVU683
 2624 0058 7047     		bx	lr
 2625              		.cfi_endproc
 2626              	.LFE75:
 2628              		.section	.text.HAL_DMA_GetState,"ax",%progbits
 2629              		.align	1
ARM GAS  /tmp/cc4nKcdQ.s 			page 74


 2630              		.global	HAL_DMA_GetState
 2631              		.syntax unified
 2632              		.thumb
 2633              		.thumb_func
 2634              		.fpu softvfp
 2636              	HAL_DMA_GetState:
 2637              	.LVL87:
 2638              	.LFB76:
 827:Drivers/STM32F1xx_HAL_Driver/Src/stm32f1xx_hal_dma.c ****   /* Return DMA handle state */
 2639              		.loc 1 827 1 is_stmt 1 view -0
 2640              		.cfi_startproc
 2641              		@ args = 0, pretend = 0, frame = 0
 2642              		@ frame_needed = 0, uses_anonymous_args = 0
 2643              		@ link register save eliminated.
 829:Drivers/STM32F1xx_HAL_Driver/Src/stm32f1xx_hal_dma.c **** }
 2644              		.loc 1 829 3 view .LVU685
 830:Drivers/STM32F1xx_HAL_Driver/Src/stm32f1xx_hal_dma.c **** 
 2645              		.loc 1 830 1 is_stmt 0 view .LVU686
 2646 0000 90F82100 		ldrb	r0, [r0, #33]	@ zero_extendqisi2
 2647              	.LVL88:
 830:Drivers/STM32F1xx_HAL_Driver/Src/stm32f1xx_hal_dma.c **** 
 2648              		.loc 1 830 1 view .LVU687
 2649 0004 7047     		bx	lr
 2650              		.cfi_endproc
 2651              	.LFE76:
 2653              		.section	.text.HAL_DMA_GetError,"ax",%progbits
 2654              		.align	1
 2655              		.global	HAL_DMA_GetError
 2656              		.syntax unified
 2657              		.thumb
 2658              		.thumb_func
 2659              		.fpu softvfp
 2661              	HAL_DMA_GetError:
 2662              	.LVL89:
 2663              	.LFB77:
 839:Drivers/STM32F1xx_HAL_Driver/Src/stm32f1xx_hal_dma.c ****   return hdma->ErrorCode;
 2664              		.loc 1 839 1 is_stmt 1 view -0
 2665              		.cfi_startproc
 2666              		@ args = 0, pretend = 0, frame = 0
 2667              		@ frame_needed = 0, uses_anonymous_args = 0
 2668              		@ link register save eliminated.
 840:Drivers/STM32F1xx_HAL_Driver/Src/stm32f1xx_hal_dma.c **** }
 2669              		.loc 1 840 3 view .LVU689
 840:Drivers/STM32F1xx_HAL_Driver/Src/stm32f1xx_hal_dma.c **** }
 2670              		.loc 1 840 14 is_stmt 0 view .LVU690
 2671 0000 806B     		ldr	r0, [r0, #56]
 2672              	.LVL90:
 841:Drivers/STM32F1xx_HAL_Driver/Src/stm32f1xx_hal_dma.c **** 
 2673              		.loc 1 841 1 view .LVU691
 2674 0002 7047     		bx	lr
 2675              		.cfi_endproc
 2676              	.LFE77:
 2678              		.text
 2679              	.Letext0:
 2680              		.file 2 "/usr/lib/gcc/arm-none-eabi/9.2.1/include/stdint.h"
 2681              		.file 3 "Drivers/CMSIS/Include/core_cm3.h"
 2682              		.file 4 "Drivers/CMSIS/Device/ST/STM32F1xx/Include/system_stm32f1xx.h"
ARM GAS  /tmp/cc4nKcdQ.s 			page 75


 2683              		.file 5 "Drivers/CMSIS/Device/ST/STM32F1xx/Include/stm32f103xe.h"
 2684              		.file 6 "/usr/lib/gcc/arm-none-eabi/9.2.1/include/stddef.h"
 2685              		.file 7 "/usr/include/newlib/sys/_types.h"
 2686              		.file 8 "/usr/include/newlib/sys/reent.h"
 2687              		.file 9 "/usr/include/newlib/sys/lock.h"
 2688              		.file 10 "Drivers/CMSIS/Device/ST/STM32F1xx/Include/stm32f1xx.h"
 2689              		.file 11 "Drivers/STM32F1xx_HAL_Driver/Inc/stm32f1xx_hal_def.h"
 2690              		.file 12 "Drivers/STM32F1xx_HAL_Driver/Inc/stm32f1xx_hal_dma.h"
 2691              		.file 13 "Drivers/STM32F1xx_HAL_Driver/Inc/stm32f1xx_hal.h"
ARM GAS  /tmp/cc4nKcdQ.s 			page 76

